	.text
	.intel_syntax noprefix
	.file	"mini-libc.c"
	.globl	memmove                         # -- Begin function memmove
	.p2align	4, 0x90
	.type	memmove,@function
memmove:                                # @memmove
	.cfi_startproc
# %bb.0:
	push	ebp
	.cfi_def_cfa_offset 8
	.cfi_offset ebp, -8
	mov	ebp, esp
	.cfi_def_cfa_register ebp
	sub	esp, 8
	mov	eax, dword ptr [ebp + 16]
	mov	eax, dword ptr [ebp + 12]
	mov	eax, dword ptr [ebp + 8]
	mov	eax, dword ptr [.L__profc_memmove]
	add	eax, 1
	adc	dword ptr [.L__profc_memmove+4], 0
	mov	dword ptr [.L__profc_memmove], eax
	mov	eax, dword ptr [ebp + 8]
	mov	dword ptr [ebp - 4], eax
	mov	eax, dword ptr [ebp + 12]
	mov	dword ptr [ebp - 8], eax
	mov	eax, dword ptr [ebp - 8]
	cmp	eax, dword ptr [ebp - 4]
	jae	.LBB0_6
# %bb.1:
	mov	eax, dword ptr [.L__profc_memmove+8]
	add	eax, 1
	adc	dword ptr [.L__profc_memmove+12], 0
	mov	dword ptr [.L__profc_memmove+8], eax
	mov	eax, dword ptr [ebp + 16]
	add	eax, dword ptr [ebp - 8]
	mov	dword ptr [ebp - 8], eax
	mov	eax, dword ptr [ebp + 16]
	add	eax, dword ptr [ebp - 4]
	mov	dword ptr [ebp - 4], eax
.LBB0_2:                                # =>This Inner Loop Header: Depth=1
	cmp	dword ptr [ebp + 16], 0
	je	.LBB0_5
# %bb.3:                                #   in Loop: Header=BB0_2 Depth=1
	mov	eax, dword ptr [.L__profc_memmove+16]
	add	eax, 1
	adc	dword ptr [.L__profc_memmove+20], 0
	mov	dword ptr [.L__profc_memmove+16], eax
	mov	eax, dword ptr [ebp - 8]
	mov	ecx, eax
	add	ecx, -1
	mov	dword ptr [ebp - 8], ecx
	mov	cl, byte ptr [eax - 1]
	mov	eax, dword ptr [ebp - 4]
	mov	edx, eax
	add	edx, -1
	mov	dword ptr [ebp - 4], edx
	mov	byte ptr [eax - 1], cl
# %bb.4:                                #   in Loop: Header=BB0_2 Depth=1
	mov	eax, dword ptr [ebp + 16]
	add	eax, -1
	mov	dword ptr [ebp + 16], eax
	jmp	.LBB0_2
.LBB0_5:
	jmp	.LBB0_13
.LBB0_6:
	mov	eax, dword ptr [ebp - 8]
	cmp	eax, dword ptr [ebp - 4]
	je	.LBB0_12
# %bb.7:
	mov	eax, dword ptr [.L__profc_memmove+24]
	add	eax, 1
	adc	dword ptr [.L__profc_memmove+28], 0
	mov	dword ptr [.L__profc_memmove+24], eax
.LBB0_8:                                # =>This Inner Loop Header: Depth=1
	cmp	dword ptr [ebp + 16], 0
	je	.LBB0_11
# %bb.9:                                #   in Loop: Header=BB0_8 Depth=1
	mov	eax, dword ptr [.L__profc_memmove+32]
	add	eax, 1
	adc	dword ptr [.L__profc_memmove+36], 0
	mov	dword ptr [.L__profc_memmove+32], eax
	mov	eax, dword ptr [ebp - 8]
	mov	ecx, eax
	add	ecx, 1
	mov	dword ptr [ebp - 8], ecx
	mov	cl, byte ptr [eax]
	mov	eax, dword ptr [ebp - 4]
	mov	edx, eax
	add	edx, 1
	mov	dword ptr [ebp - 4], edx
	mov	byte ptr [eax], cl
# %bb.10:                               #   in Loop: Header=BB0_8 Depth=1
	mov	eax, dword ptr [ebp + 16]
	add	eax, -1
	mov	dword ptr [ebp + 16], eax
	jmp	.LBB0_8
.LBB0_11:
	jmp	.LBB0_12
.LBB0_12:
	jmp	.LBB0_13
.LBB0_13:
	mov	eax, dword ptr [ebp + 8]
	add	esp, 8
	pop	ebp
	.cfi_def_cfa esp, 4
	fldz
	fldz
	fldz
	fldz
	fldz
	fldz
	fldz
	fstp	st(0)
	fstp	st(0)
	fstp	st(0)
	fstp	st(0)
	fstp	st(0)
	fstp	st(0)
	fstp	st(0)
	xor	ecx, ecx
	xor	edx, edx
	jmp	__x86_return_thunk              # TAILCALL
.Lfunc_end0:
	.size	memmove, .Lfunc_end0-memmove
	.cfi_endproc
                                        # -- End function
	.globl	memccpy                         # -- Begin function memccpy
	.p2align	4, 0x90
	.type	memccpy,@function
memccpy:                                # @memccpy
	.cfi_startproc
# %bb.0:
	push	ebp
	.cfi_def_cfa_offset 8
	.cfi_offset ebp, -8
	mov	ebp, esp
	.cfi_def_cfa_register ebp
	sub	esp, 16
	mov	eax, dword ptr [ebp + 20]
	mov	eax, dword ptr [ebp + 16]
	mov	eax, dword ptr [ebp + 12]
	mov	eax, dword ptr [ebp + 8]
	mov	eax, dword ptr [.L__profc_memccpy]
	add	eax, 1
	adc	dword ptr [.L__profc_memccpy+4], 0
	mov	dword ptr [.L__profc_memccpy], eax
	mov	eax, dword ptr [ebp + 8]
	mov	dword ptr [ebp - 8], eax
	mov	eax, dword ptr [ebp + 12]
	mov	dword ptr [ebp - 12], eax
	mov	eax, dword ptr [ebp + 16]
                                        # kill: def $al killed $al killed $eax
	movzx	eax, al
	mov	dword ptr [ebp + 16], eax
.LBB1_1:                                # =>This Inner Loop Header: Depth=1
	xor	eax, eax
                                        # kill: def $al killed $al killed $eax
	cmp	dword ptr [ebp + 20], 0
	mov	byte ptr [ebp - 13], al         # 1-byte Spill
	je	.LBB1_4
# %bb.2:                                #   in Loop: Header=BB1_1 Depth=1
	mov	eax, dword ptr [.L__profc_memccpy+16]
	add	eax, 1
	adc	dword ptr [.L__profc_memccpy+20], 0
	mov	dword ptr [.L__profc_memccpy+16], eax
	mov	eax, dword ptr [ebp - 12]
	mov	al, byte ptr [eax]
	mov	ecx, dword ptr [ebp - 8]
	mov	byte ptr [ecx], al
	movzx	eax, al
	cmp	eax, dword ptr [ebp + 16]
	setne	al
	mov	byte ptr [ebp - 14], al         # 1-byte Spill
	test	al, 1
	mov	byte ptr [ebp - 13], al         # 1-byte Spill
	jne	.LBB1_3
	jmp	.LBB1_4
.LBB1_3:                                #   in Loop: Header=BB1_1 Depth=1
	mov	al, byte ptr [ebp - 14]         # 1-byte Reload
	mov	ecx, dword ptr [.L__profc_memccpy+24]
	add	ecx, 1
	adc	dword ptr [.L__profc_memccpy+28], 0
	mov	dword ptr [.L__profc_memccpy+24], ecx
	mov	byte ptr [ebp - 13], al         # 1-byte Spill
.LBB1_4:                                #   in Loop: Header=BB1_1 Depth=1
	mov	al, byte ptr [ebp - 13]         # 1-byte Reload
	test	al, 1
	jne	.LBB1_5
	jmp	.LBB1_7
.LBB1_5:                                #   in Loop: Header=BB1_1 Depth=1
	mov	eax, dword ptr [.L__profc_memccpy+8]
	add	eax, 1
	adc	dword ptr [.L__profc_memccpy+12], 0
	mov	dword ptr [.L__profc_memccpy+8], eax
# %bb.6:                                #   in Loop: Header=BB1_1 Depth=1
	mov	eax, dword ptr [ebp + 20]
	add	eax, -1
	mov	dword ptr [ebp + 20], eax
	mov	eax, dword ptr [ebp - 12]
	add	eax, 1
	mov	dword ptr [ebp - 12], eax
	mov	eax, dword ptr [ebp - 8]
	add	eax, 1
	mov	dword ptr [ebp - 8], eax
	jmp	.LBB1_1
.LBB1_7:
	cmp	dword ptr [ebp + 20], 0
	je	.LBB1_9
# %bb.8:
	mov	eax, dword ptr [.L__profc_memccpy+32]
	add	eax, 1
	adc	dword ptr [.L__profc_memccpy+36], 0
	mov	dword ptr [.L__profc_memccpy+32], eax
	mov	eax, dword ptr [ebp - 8]
	add	eax, 1
	mov	dword ptr [ebp - 4], eax
	jmp	.LBB1_10
.LBB1_9:
	mov	dword ptr [ebp - 4], 0
.LBB1_10:
	mov	eax, dword ptr [ebp - 4]
	add	esp, 16
	pop	ebp
	.cfi_def_cfa esp, 4
	fldz
	fldz
	fldz
	fldz
	fldz
	fldz
	fldz
	fstp	st(0)
	fstp	st(0)
	fstp	st(0)
	fstp	st(0)
	fstp	st(0)
	fstp	st(0)
	fstp	st(0)
	xor	ecx, ecx
	xor	edx, edx
	jmp	__x86_return_thunk              # TAILCALL
.Lfunc_end1:
	.size	memccpy, .Lfunc_end1-memccpy
	.cfi_endproc
                                        # -- End function
	.globl	memchr                          # -- Begin function memchr
	.p2align	4, 0x90
	.type	memchr,@function
memchr:                                 # @memchr
	.cfi_startproc
# %bb.0:
	push	ebp
	.cfi_def_cfa_offset 8
	.cfi_offset ebp, -8
	mov	ebp, esp
	.cfi_def_cfa_register ebp
	sub	esp, 12
	mov	eax, dword ptr [ebp + 16]
	mov	eax, dword ptr [ebp + 12]
	mov	eax, dword ptr [ebp + 8]
	mov	eax, dword ptr [.L__profc_memchr]
	add	eax, 1
	adc	dword ptr [.L__profc_memchr+4], 0
	mov	dword ptr [.L__profc_memchr], eax
	mov	eax, dword ptr [ebp + 8]
	mov	dword ptr [ebp - 4], eax
	mov	eax, dword ptr [ebp + 12]
                                        # kill: def $al killed $al killed $eax
	movzx	eax, al
	mov	dword ptr [ebp + 12], eax
.LBB2_1:                                # =>This Inner Loop Header: Depth=1
	xor	eax, eax
                                        # kill: def $al killed $al killed $eax
	cmp	dword ptr [ebp + 16], 0
	mov	byte ptr [ebp - 5], al          # 1-byte Spill
	je	.LBB2_4
# %bb.2:                                #   in Loop: Header=BB2_1 Depth=1
	mov	eax, dword ptr [.L__profc_memchr+16]
	add	eax, 1
	adc	dword ptr [.L__profc_memchr+20], 0
	mov	dword ptr [.L__profc_memchr+16], eax
	mov	eax, dword ptr [ebp - 4]
	movzx	eax, byte ptr [eax]
	cmp	eax, dword ptr [ebp + 12]
	setne	al
	mov	byte ptr [ebp - 6], al          # 1-byte Spill
	test	al, 1
	mov	byte ptr [ebp - 5], al          # 1-byte Spill
	jne	.LBB2_3
	jmp	.LBB2_4
.LBB2_3:                                #   in Loop: Header=BB2_1 Depth=1
	mov	al, byte ptr [ebp - 6]          # 1-byte Reload
	mov	ecx, dword ptr [.L__profc_memchr+24]
	add	ecx, 1
	adc	dword ptr [.L__profc_memchr+28], 0
	mov	dword ptr [.L__profc_memchr+24], ecx
	mov	byte ptr [ebp - 5], al          # 1-byte Spill
.LBB2_4:                                #   in Loop: Header=BB2_1 Depth=1
	mov	al, byte ptr [ebp - 5]          # 1-byte Reload
	test	al, 1
	jne	.LBB2_5
	jmp	.LBB2_7
.LBB2_5:                                #   in Loop: Header=BB2_1 Depth=1
	mov	eax, dword ptr [.L__profc_memchr+8]
	add	eax, 1
	adc	dword ptr [.L__profc_memchr+12], 0
	mov	dword ptr [.L__profc_memchr+8], eax
# %bb.6:                                #   in Loop: Header=BB2_1 Depth=1
	mov	eax, dword ptr [ebp - 4]
	add	eax, 1
	mov	dword ptr [ebp - 4], eax
	mov	eax, dword ptr [ebp + 16]
	add	eax, -1
	mov	dword ptr [ebp + 16], eax
	jmp	.LBB2_1
.LBB2_7:
	cmp	dword ptr [ebp + 16], 0
	je	.LBB2_9
# %bb.8:
	mov	eax, dword ptr [.L__profc_memchr+32]
	add	eax, 1
	adc	dword ptr [.L__profc_memchr+36], 0
	mov	dword ptr [.L__profc_memchr+32], eax
	mov	eax, dword ptr [ebp - 4]
	mov	dword ptr [ebp - 12], eax       # 4-byte Spill
	jmp	.LBB2_10
.LBB2_9:
	xor	eax, eax
	mov	dword ptr [ebp - 12], eax       # 4-byte Spill
	jmp	.LBB2_10
.LBB2_10:
	mov	eax, dword ptr [ebp - 12]       # 4-byte Reload
	add	esp, 12
	pop	ebp
	.cfi_def_cfa esp, 4
	fldz
	fldz
	fldz
	fldz
	fldz
	fldz
	fldz
	fstp	st(0)
	fstp	st(0)
	fstp	st(0)
	fstp	st(0)
	fstp	st(0)
	fstp	st(0)
	fstp	st(0)
	xor	ecx, ecx
	xor	edx, edx
	jmp	__x86_return_thunk              # TAILCALL
.Lfunc_end2:
	.size	memchr, .Lfunc_end2-memchr
	.cfi_endproc
                                        # -- End function
	.globl	memcmp                          # -- Begin function memcmp
	.p2align	4, 0x90
	.type	memcmp,@function
memcmp:                                 # @memcmp
	.cfi_startproc
# %bb.0:
	push	ebp
	.cfi_def_cfa_offset 8
	.cfi_offset ebp, -8
	mov	ebp, esp
	.cfi_def_cfa_register ebp
	sub	esp, 16
	mov	eax, dword ptr [ebp + 16]
	mov	eax, dword ptr [ebp + 12]
	mov	eax, dword ptr [ebp + 8]
	mov	eax, dword ptr [.L__profc_memcmp]
	add	eax, 1
	adc	dword ptr [.L__profc_memcmp+4], 0
	mov	dword ptr [.L__profc_memcmp], eax
	mov	eax, dword ptr [ebp + 8]
	mov	dword ptr [ebp - 4], eax
	mov	eax, dword ptr [ebp + 12]
	mov	dword ptr [ebp - 8], eax
.LBB3_1:                                # =>This Inner Loop Header: Depth=1
	xor	eax, eax
                                        # kill: def $al killed $al killed $eax
	cmp	dword ptr [ebp + 16], 0
	mov	byte ptr [ebp - 9], al          # 1-byte Spill
	je	.LBB3_4
# %bb.2:                                #   in Loop: Header=BB3_1 Depth=1
	mov	eax, dword ptr [.L__profc_memcmp+16]
	add	eax, 1
	adc	dword ptr [.L__profc_memcmp+20], 0
	mov	dword ptr [.L__profc_memcmp+16], eax
	mov	eax, dword ptr [ebp - 4]
	movzx	eax, byte ptr [eax]
	mov	ecx, dword ptr [ebp - 8]
	movzx	ecx, byte ptr [ecx]
	cmp	eax, ecx
	sete	al
	mov	byte ptr [ebp - 10], al         # 1-byte Spill
	test	al, 1
	mov	byte ptr [ebp - 9], al          # 1-byte Spill
	jne	.LBB3_3
	jmp	.LBB3_4
.LBB3_3:                                #   in Loop: Header=BB3_1 Depth=1
	mov	al, byte ptr [ebp - 10]         # 1-byte Reload
	mov	ecx, dword ptr [.L__profc_memcmp+24]
	add	ecx, 1
	adc	dword ptr [.L__profc_memcmp+28], 0
	mov	dword ptr [.L__profc_memcmp+24], ecx
	mov	byte ptr [ebp - 9], al          # 1-byte Spill
.LBB3_4:                                #   in Loop: Header=BB3_1 Depth=1
	mov	al, byte ptr [ebp - 9]          # 1-byte Reload
	test	al, 1
	jne	.LBB3_5
	jmp	.LBB3_7
.LBB3_5:                                #   in Loop: Header=BB3_1 Depth=1
	mov	eax, dword ptr [.L__profc_memcmp+8]
	add	eax, 1
	adc	dword ptr [.L__profc_memcmp+12], 0
	mov	dword ptr [.L__profc_memcmp+8], eax
# %bb.6:                                #   in Loop: Header=BB3_1 Depth=1
	mov	eax, dword ptr [ebp + 16]
	add	eax, -1
	mov	dword ptr [ebp + 16], eax
	mov	eax, dword ptr [ebp - 4]
	add	eax, 1
	mov	dword ptr [ebp - 4], eax
	mov	eax, dword ptr [ebp - 8]
	add	eax, 1
	mov	dword ptr [ebp - 8], eax
	jmp	.LBB3_1
.LBB3_7:
	cmp	dword ptr [ebp + 16], 0
	je	.LBB3_9
# %bb.8:
	mov	eax, dword ptr [.L__profc_memcmp+32]
	add	eax, 1
	adc	dword ptr [.L__profc_memcmp+36], 0
	mov	dword ptr [.L__profc_memcmp+32], eax
	mov	eax, dword ptr [ebp - 4]
	movzx	eax, byte ptr [eax]
	mov	ecx, dword ptr [ebp - 8]
	movzx	ecx, byte ptr [ecx]
	sub	eax, ecx
	mov	dword ptr [ebp - 16], eax       # 4-byte Spill
	jmp	.LBB3_10
.LBB3_9:
	xor	eax, eax
	mov	dword ptr [ebp - 16], eax       # 4-byte Spill
	jmp	.LBB3_10
.LBB3_10:
	mov	eax, dword ptr [ebp - 16]       # 4-byte Reload
	add	esp, 16
	pop	ebp
	.cfi_def_cfa esp, 4
	fldz
	fldz
	fldz
	fldz
	fldz
	fldz
	fldz
	fstp	st(0)
	fstp	st(0)
	fstp	st(0)
	fstp	st(0)
	fstp	st(0)
	fstp	st(0)
	fstp	st(0)
	xor	ecx, ecx
	xor	edx, edx
	jmp	__x86_return_thunk              # TAILCALL
.Lfunc_end3:
	.size	memcmp, .Lfunc_end3-memcmp
	.cfi_endproc
                                        # -- End function
	.globl	memcpy                          # -- Begin function memcpy
	.p2align	4, 0x90
	.type	memcpy,@function
memcpy:                                 # @memcpy
	.cfi_startproc
# %bb.0:
	push	ebp
	.cfi_def_cfa_offset 8
	.cfi_offset ebp, -8
	mov	ebp, esp
	.cfi_def_cfa_register ebp
	sub	esp, 8
	mov	eax, dword ptr [ebp + 16]
	mov	eax, dword ptr [ebp + 12]
	mov	eax, dword ptr [ebp + 8]
	mov	eax, dword ptr [.L__profc_memcpy]
	add	eax, 1
	adc	dword ptr [.L__profc_memcpy+4], 0
	mov	dword ptr [.L__profc_memcpy], eax
	mov	eax, dword ptr [ebp + 8]
	mov	dword ptr [ebp - 4], eax
	mov	eax, dword ptr [ebp + 12]
	mov	dword ptr [ebp - 8], eax
.LBB4_1:                                # =>This Inner Loop Header: Depth=1
	cmp	dword ptr [ebp + 16], 0
	je	.LBB4_4
# %bb.2:                                #   in Loop: Header=BB4_1 Depth=1
	mov	eax, dword ptr [.L__profc_memcpy+8]
	add	eax, 1
	adc	dword ptr [.L__profc_memcpy+12], 0
	mov	dword ptr [.L__profc_memcpy+8], eax
	mov	eax, dword ptr [ebp - 8]
	mov	ecx, eax
	add	ecx, 1
	mov	dword ptr [ebp - 8], ecx
	mov	cl, byte ptr [eax]
	mov	eax, dword ptr [ebp - 4]
	mov	edx, eax
	add	edx, 1
	mov	dword ptr [ebp - 4], edx
	mov	byte ptr [eax], cl
# %bb.3:                                #   in Loop: Header=BB4_1 Depth=1
	mov	eax, dword ptr [ebp + 16]
	add	eax, -1
	mov	dword ptr [ebp + 16], eax
	jmp	.LBB4_1
.LBB4_4:
	mov	eax, dword ptr [ebp + 8]
	add	esp, 8
	pop	ebp
	.cfi_def_cfa esp, 4
	fldz
	fldz
	fldz
	fldz
	fldz
	fldz
	fldz
	fstp	st(0)
	fstp	st(0)
	fstp	st(0)
	fstp	st(0)
	fstp	st(0)
	fstp	st(0)
	fstp	st(0)
	xor	ecx, ecx
	xor	edx, edx
	jmp	__x86_return_thunk              # TAILCALL
.Lfunc_end4:
	.size	memcpy, .Lfunc_end4-memcpy
	.cfi_endproc
                                        # -- End function
	.globl	memrchr                         # -- Begin function memrchr
	.p2align	4, 0x90
	.type	memrchr,@function
memrchr:                                # @memrchr
	.cfi_startproc
# %bb.0:
	push	ebp
	.cfi_def_cfa_offset 8
	.cfi_offset ebp, -8
	mov	ebp, esp
	.cfi_def_cfa_register ebp
	sub	esp, 8
	mov	eax, dword ptr [ebp + 16]
	mov	eax, dword ptr [ebp + 12]
	mov	eax, dword ptr [ebp + 8]
	mov	eax, dword ptr [.L__profc_memrchr]
	add	eax, 1
	adc	dword ptr [.L__profc_memrchr+4], 0
	mov	dword ptr [.L__profc_memrchr], eax
	mov	eax, dword ptr [ebp + 8]
	mov	dword ptr [ebp - 8], eax
	mov	eax, dword ptr [ebp + 12]
                                        # kill: def $al killed $al killed $eax
	movzx	eax, al
	mov	dword ptr [ebp + 12], eax
.LBB5_1:                                # =>This Inner Loop Header: Depth=1
	mov	eax, dword ptr [ebp + 16]
	mov	ecx, eax
	add	ecx, -1
	mov	dword ptr [ebp + 16], ecx
	cmp	eax, 0
	je	.LBB5_5
# %bb.2:                                #   in Loop: Header=BB5_1 Depth=1
	mov	eax, dword ptr [.L__profc_memrchr+8]
	add	eax, 1
	adc	dword ptr [.L__profc_memrchr+12], 0
	mov	dword ptr [.L__profc_memrchr+8], eax
	mov	eax, dword ptr [ebp - 8]
	mov	ecx, dword ptr [ebp + 16]
	movzx	eax, byte ptr [eax + ecx]
	cmp	eax, dword ptr [ebp + 12]
	jne	.LBB5_4
# %bb.3:
	mov	eax, dword ptr [.L__profc_memrchr+16]
	add	eax, 1
	adc	dword ptr [.L__profc_memrchr+20], 0
	mov	dword ptr [.L__profc_memrchr+16], eax
	mov	eax, dword ptr [ebp - 8]
	add	eax, dword ptr [ebp + 16]
	mov	dword ptr [ebp - 4], eax
	jmp	.LBB5_6
.LBB5_4:                                #   in Loop: Header=BB5_1 Depth=1
	jmp	.LBB5_1
.LBB5_5:
	mov	dword ptr [ebp - 4], 0
.LBB5_6:
	mov	eax, dword ptr [ebp - 4]
	add	esp, 8
	pop	ebp
	.cfi_def_cfa esp, 4
	fldz
	fldz
	fldz
	fldz
	fldz
	fldz
	fldz
	fstp	st(0)
	fstp	st(0)
	fstp	st(0)
	fstp	st(0)
	fstp	st(0)
	fstp	st(0)
	fstp	st(0)
	xor	ecx, ecx
	xor	edx, edx
	jmp	__x86_return_thunk              # TAILCALL
.Lfunc_end5:
	.size	memrchr, .Lfunc_end5-memrchr
	.cfi_endproc
                                        # -- End function
	.globl	memset                          # -- Begin function memset
	.p2align	4, 0x90
	.type	memset,@function
memset:                                 # @memset
	.cfi_startproc
# %bb.0:
	push	ebp
	.cfi_def_cfa_offset 8
	.cfi_offset ebp, -8
	mov	ebp, esp
	.cfi_def_cfa_register ebp
	sub	esp, 8
	mov	eax, dword ptr [ebp + 16]
	mov	eax, dword ptr [ebp + 12]
	mov	eax, dword ptr [ebp + 8]
	mov	eax, dword ptr [.L__profc_memset]
	add	eax, 1
	adc	dword ptr [.L__profc_memset+4], 0
	mov	dword ptr [.L__profc_memset], eax
	mov	eax, dword ptr [ebp + 8]
	mov	dword ptr [ebp - 4], eax
.LBB6_1:                                # =>This Inner Loop Header: Depth=1
	cmp	dword ptr [ebp + 16], 0
	je	.LBB6_4
# %bb.2:                                #   in Loop: Header=BB6_1 Depth=1
	mov	eax, dword ptr [.L__profc_memset+8]
	add	eax, 1
	adc	dword ptr [.L__profc_memset+12], 0
	mov	dword ptr [.L__profc_memset+8], eax
	mov	eax, dword ptr [ebp + 12]
	mov	cl, al
	mov	eax, dword ptr [ebp - 4]
	mov	byte ptr [eax], cl
# %bb.3:                                #   in Loop: Header=BB6_1 Depth=1
	mov	eax, dword ptr [ebp + 16]
	add	eax, -1
	mov	dword ptr [ebp + 16], eax
	mov	eax, dword ptr [ebp - 4]
	add	eax, 1
	mov	dword ptr [ebp - 4], eax
	jmp	.LBB6_1
.LBB6_4:
	mov	eax, dword ptr [ebp + 8]
	add	esp, 8
	pop	ebp
	.cfi_def_cfa esp, 4
	fldz
	fldz
	fldz
	fldz
	fldz
	fldz
	fldz
	fstp	st(0)
	fstp	st(0)
	fstp	st(0)
	fstp	st(0)
	fstp	st(0)
	fstp	st(0)
	fstp	st(0)
	xor	ecx, ecx
	xor	edx, edx
	jmp	__x86_return_thunk              # TAILCALL
.Lfunc_end6:
	.size	memset, .Lfunc_end6-memset
	.cfi_endproc
                                        # -- End function
	.globl	stpcpy                          # -- Begin function stpcpy
	.p2align	4, 0x90
	.type	stpcpy,@function
stpcpy:                                 # @stpcpy
	.cfi_startproc
# %bb.0:
	push	ebp
	.cfi_def_cfa_offset 8
	.cfi_offset ebp, -8
	mov	ebp, esp
	.cfi_def_cfa_register ebp
	mov	eax, dword ptr [ebp + 12]
	mov	eax, dword ptr [ebp + 8]
	mov	eax, dword ptr [.L__profc_stpcpy]
	add	eax, 1
	adc	dword ptr [.L__profc_stpcpy+4], 0
	mov	dword ptr [.L__profc_stpcpy], eax
.LBB7_1:                                # =>This Inner Loop Header: Depth=1
	mov	eax, dword ptr [ebp + 12]
	mov	al, byte ptr [eax]
	mov	ecx, dword ptr [ebp + 8]
	mov	byte ptr [ecx], al
	cmp	al, 0
	je	.LBB7_4
# %bb.2:                                #   in Loop: Header=BB7_1 Depth=1
	mov	eax, dword ptr [.L__profc_stpcpy+8]
	add	eax, 1
	adc	dword ptr [.L__profc_stpcpy+12], 0
	mov	dword ptr [.L__profc_stpcpy+8], eax
# %bb.3:                                #   in Loop: Header=BB7_1 Depth=1
	mov	eax, dword ptr [ebp + 12]
	add	eax, 1
	mov	dword ptr [ebp + 12], eax
	mov	eax, dword ptr [ebp + 8]
	add	eax, 1
	mov	dword ptr [ebp + 8], eax
	jmp	.LBB7_1
.LBB7_4:
	mov	eax, dword ptr [ebp + 8]
	pop	ebp
	.cfi_def_cfa esp, 4
	fldz
	fldz
	fldz
	fldz
	fldz
	fldz
	fldz
	fstp	st(0)
	fstp	st(0)
	fstp	st(0)
	fstp	st(0)
	fstp	st(0)
	fstp	st(0)
	fstp	st(0)
	xor	ecx, ecx
	xor	edx, edx
	jmp	__x86_return_thunk              # TAILCALL
.Lfunc_end7:
	.size	stpcpy, .Lfunc_end7-stpcpy
	.cfi_endproc
                                        # -- End function
	.globl	strchrnul                       # -- Begin function strchrnul
	.p2align	4, 0x90
	.type	strchrnul,@function
strchrnul:                              # @strchrnul
	.cfi_startproc
# %bb.0:
	push	ebp
	.cfi_def_cfa_offset 8
	.cfi_offset ebp, -8
	mov	ebp, esp
	.cfi_def_cfa_register ebp
	push	eax
	mov	eax, dword ptr [ebp + 12]
	mov	eax, dword ptr [ebp + 8]
	mov	eax, dword ptr [.L__profc_strchrnul]
	add	eax, 1
	adc	dword ptr [.L__profc_strchrnul+4], 0
	mov	dword ptr [.L__profc_strchrnul], eax
	mov	eax, dword ptr [ebp + 12]
                                        # kill: def $al killed $al killed $eax
	movzx	eax, al
	mov	dword ptr [ebp + 12], eax
.LBB8_1:                                # =>This Inner Loop Header: Depth=1
	mov	eax, dword ptr [ebp + 8]
	movsx	ecx, byte ptr [eax]
	xor	eax, eax
                                        # kill: def $al killed $al killed $eax
	cmp	ecx, 0
	mov	byte ptr [ebp - 1], al          # 1-byte Spill
	je	.LBB8_4
# %bb.2:                                #   in Loop: Header=BB8_1 Depth=1
	mov	eax, dword ptr [.L__profc_strchrnul+16]
	add	eax, 1
	adc	dword ptr [.L__profc_strchrnul+20], 0
	mov	dword ptr [.L__profc_strchrnul+16], eax
	mov	eax, dword ptr [ebp + 8]
	movzx	eax, byte ptr [eax]
	cmp	eax, dword ptr [ebp + 12]
	setne	al
	mov	byte ptr [ebp - 2], al          # 1-byte Spill
	test	al, 1
	mov	byte ptr [ebp - 1], al          # 1-byte Spill
	jne	.LBB8_3
	jmp	.LBB8_4
.LBB8_3:                                #   in Loop: Header=BB8_1 Depth=1
	mov	al, byte ptr [ebp - 2]          # 1-byte Reload
	mov	ecx, dword ptr [.L__profc_strchrnul+24]
	add	ecx, 1
	adc	dword ptr [.L__profc_strchrnul+28], 0
	mov	dword ptr [.L__profc_strchrnul+24], ecx
	mov	byte ptr [ebp - 1], al          # 1-byte Spill
.LBB8_4:                                #   in Loop: Header=BB8_1 Depth=1
	mov	al, byte ptr [ebp - 1]          # 1-byte Reload
	test	al, 1
	jne	.LBB8_5
	jmp	.LBB8_7
.LBB8_5:                                #   in Loop: Header=BB8_1 Depth=1
	mov	eax, dword ptr [.L__profc_strchrnul+8]
	add	eax, 1
	adc	dword ptr [.L__profc_strchrnul+12], 0
	mov	dword ptr [.L__profc_strchrnul+8], eax
# %bb.6:                                #   in Loop: Header=BB8_1 Depth=1
	mov	eax, dword ptr [ebp + 8]
	add	eax, 1
	mov	dword ptr [ebp + 8], eax
	jmp	.LBB8_1
.LBB8_7:
	mov	eax, dword ptr [ebp + 8]
	add	esp, 4
	pop	ebp
	.cfi_def_cfa esp, 4
	fldz
	fldz
	fldz
	fldz
	fldz
	fldz
	fldz
	fstp	st(0)
	fstp	st(0)
	fstp	st(0)
	fstp	st(0)
	fstp	st(0)
	fstp	st(0)
	fstp	st(0)
	xor	ecx, ecx
	xor	edx, edx
	jmp	__x86_return_thunk              # TAILCALL
.Lfunc_end8:
	.size	strchrnul, .Lfunc_end8-strchrnul
	.cfi_endproc
                                        # -- End function
	.globl	strchr                          # -- Begin function strchr
	.p2align	4, 0x90
	.type	strchr,@function
strchr:                                 # @strchr
	.cfi_startproc
# %bb.0:
	push	ebp
	.cfi_def_cfa_offset 8
	.cfi_offset ebp, -8
	mov	ebp, esp
	.cfi_def_cfa_register ebp
	push	eax
	mov	eax, dword ptr [ebp + 12]
	mov	eax, dword ptr [ebp + 8]
	mov	eax, dword ptr [.L__profc_strchr]
	add	eax, 1
	adc	dword ptr [.L__profc_strchr+4], 0
	mov	dword ptr [.L__profc_strchr], eax
	jmp	.LBB9_2
.LBB9_1:                                #   in Loop: Header=BB9_2 Depth=1
	mov	eax, dword ptr [.L__profc_strchr+8]
	add	eax, 1
	adc	dword ptr [.L__profc_strchr+12], 0
	mov	dword ptr [.L__profc_strchr+8], eax
.LBB9_2:                                # =>This Inner Loop Header: Depth=1
	mov	eax, dword ptr [ebp + 8]
	movsx	eax, byte ptr [eax]
	cmp	eax, dword ptr [ebp + 12]
	jne	.LBB9_4
# %bb.3:
	mov	eax, dword ptr [.L__profc_strchr+16]
	add	eax, 1
	adc	dword ptr [.L__profc_strchr+20], 0
	mov	dword ptr [.L__profc_strchr+16], eax
	mov	eax, dword ptr [ebp + 8]
	mov	dword ptr [ebp - 4], eax
	jmp	.LBB9_7
.LBB9_4:                                #   in Loop: Header=BB9_2 Depth=1
	jmp	.LBB9_5
.LBB9_5:                                #   in Loop: Header=BB9_2 Depth=1
	mov	eax, dword ptr [ebp + 8]
	mov	ecx, eax
	add	ecx, 1
	mov	dword ptr [ebp + 8], ecx
	cmp	byte ptr [eax], 0
	jne	.LBB9_1
# %bb.6:
	mov	dword ptr [ebp - 4], 0
.LBB9_7:
	mov	eax, dword ptr [ebp - 4]
	add	esp, 4
	pop	ebp
	.cfi_def_cfa esp, 4
	fldz
	fldz
	fldz
	fldz
	fldz
	fldz
	fldz
	fstp	st(0)
	fstp	st(0)
	fstp	st(0)
	fstp	st(0)
	fstp	st(0)
	fstp	st(0)
	fstp	st(0)
	xor	ecx, ecx
	xor	edx, edx
	jmp	__x86_return_thunk              # TAILCALL
.Lfunc_end9:
	.size	strchr, .Lfunc_end9-strchr
	.cfi_endproc
                                        # -- End function
	.globl	strcmp                          # -- Begin function strcmp
	.p2align	4, 0x90
	.type	strcmp,@function
strcmp:                                 # @strcmp
	.cfi_startproc
# %bb.0:
	push	ebp
	.cfi_def_cfa_offset 8
	.cfi_offset ebp, -8
	mov	ebp, esp
	.cfi_def_cfa_register ebp
	push	eax
	mov	eax, dword ptr [ebp + 12]
	mov	eax, dword ptr [ebp + 8]
	mov	eax, dword ptr [.L__profc_strcmp]
	add	eax, 1
	adc	dword ptr [.L__profc_strcmp+4], 0
	mov	dword ptr [.L__profc_strcmp], eax
.LBB10_1:                               # =>This Inner Loop Header: Depth=1
	mov	eax, dword ptr [ebp + 8]
	movsx	ecx, byte ptr [eax]
	mov	eax, dword ptr [ebp + 12]
	movsx	edx, byte ptr [eax]
	xor	eax, eax
                                        # kill: def $al killed $al killed $eax
	cmp	ecx, edx
	mov	byte ptr [ebp - 1], al          # 1-byte Spill
	jne	.LBB10_4
# %bb.2:                                #   in Loop: Header=BB10_1 Depth=1
	mov	eax, dword ptr [.L__profc_strcmp+16]
	add	eax, 1
	adc	dword ptr [.L__profc_strcmp+20], 0
	mov	dword ptr [.L__profc_strcmp+16], eax
	mov	eax, dword ptr [ebp + 8]
	movsx	eax, byte ptr [eax]
	cmp	eax, 0
	setne	al
	mov	byte ptr [ebp - 2], al          # 1-byte Spill
	test	al, 1
	mov	byte ptr [ebp - 1], al          # 1-byte Spill
	jne	.LBB10_3
	jmp	.LBB10_4
.LBB10_3:                               #   in Loop: Header=BB10_1 Depth=1
	mov	al, byte ptr [ebp - 2]          # 1-byte Reload
	mov	ecx, dword ptr [.L__profc_strcmp+24]
	add	ecx, 1
	adc	dword ptr [.L__profc_strcmp+28], 0
	mov	dword ptr [.L__profc_strcmp+24], ecx
	mov	byte ptr [ebp - 1], al          # 1-byte Spill
.LBB10_4:                               #   in Loop: Header=BB10_1 Depth=1
	mov	al, byte ptr [ebp - 1]          # 1-byte Reload
	test	al, 1
	jne	.LBB10_5
	jmp	.LBB10_7
.LBB10_5:                               #   in Loop: Header=BB10_1 Depth=1
	mov	eax, dword ptr [.L__profc_strcmp+8]
	add	eax, 1
	adc	dword ptr [.L__profc_strcmp+12], 0
	mov	dword ptr [.L__profc_strcmp+8], eax
# %bb.6:                                #   in Loop: Header=BB10_1 Depth=1
	mov	eax, dword ptr [ebp + 8]
	add	eax, 1
	mov	dword ptr [ebp + 8], eax
	mov	eax, dword ptr [ebp + 12]
	add	eax, 1
	mov	dword ptr [ebp + 12], eax
	jmp	.LBB10_1
.LBB10_7:
	mov	eax, dword ptr [ebp + 8]
	movzx	eax, byte ptr [eax]
	mov	ecx, dword ptr [ebp + 12]
	movzx	ecx, byte ptr [ecx]
	sub	eax, ecx
	add	esp, 4
	pop	ebp
	.cfi_def_cfa esp, 4
	fldz
	fldz
	fldz
	fldz
	fldz
	fldz
	fldz
	fstp	st(0)
	fstp	st(0)
	fstp	st(0)
	fstp	st(0)
	fstp	st(0)
	fstp	st(0)
	fstp	st(0)
	xor	ecx, ecx
	xor	edx, edx
	jmp	__x86_return_thunk              # TAILCALL
.Lfunc_end10:
	.size	strcmp, .Lfunc_end10-strcmp
	.cfi_endproc
                                        # -- End function
	.globl	strlen                          # -- Begin function strlen
	.p2align	4, 0x90
	.type	strlen,@function
strlen:                                 # @strlen
	.cfi_startproc
# %bb.0:
	push	ebp
	.cfi_def_cfa_offset 8
	.cfi_offset ebp, -8
	mov	ebp, esp
	.cfi_def_cfa_register ebp
	push	eax
	mov	eax, dword ptr [ebp + 8]
	mov	eax, dword ptr [.L__profc_strlen]
	add	eax, 1
	adc	dword ptr [.L__profc_strlen+4], 0
	mov	dword ptr [.L__profc_strlen], eax
	mov	eax, dword ptr [ebp + 8]
	mov	dword ptr [ebp - 4], eax
.LBB11_1:                               # =>This Inner Loop Header: Depth=1
	mov	eax, dword ptr [ebp + 8]
	cmp	byte ptr [eax], 0
	je	.LBB11_4
# %bb.2:                                #   in Loop: Header=BB11_1 Depth=1
	mov	eax, dword ptr [.L__profc_strlen+8]
	add	eax, 1
	adc	dword ptr [.L__profc_strlen+12], 0
	mov	dword ptr [.L__profc_strlen+8], eax
# %bb.3:                                #   in Loop: Header=BB11_1 Depth=1
	mov	eax, dword ptr [ebp + 8]
	add	eax, 1
	mov	dword ptr [ebp + 8], eax
	jmp	.LBB11_1
.LBB11_4:
	mov	eax, dword ptr [ebp + 8]
	mov	ecx, dword ptr [ebp - 4]
	sub	eax, ecx
	add	esp, 4
	pop	ebp
	.cfi_def_cfa esp, 4
	fldz
	fldz
	fldz
	fldz
	fldz
	fldz
	fldz
	fstp	st(0)
	fstp	st(0)
	fstp	st(0)
	fstp	st(0)
	fstp	st(0)
	fstp	st(0)
	fstp	st(0)
	xor	ecx, ecx
	xor	edx, edx
	jmp	__x86_return_thunk              # TAILCALL
.Lfunc_end11:
	.size	strlen, .Lfunc_end11-strlen
	.cfi_endproc
                                        # -- End function
	.globl	strncmp                         # -- Begin function strncmp
	.p2align	4, 0x90
	.type	strncmp,@function
strncmp:                                # @strncmp
	.cfi_startproc
# %bb.0:
	push	ebp
	.cfi_def_cfa_offset 8
	.cfi_offset ebp, -8
	mov	ebp, esp
	.cfi_def_cfa_register ebp
	sub	esp, 16
	mov	eax, dword ptr [ebp + 16]
	mov	eax, dword ptr [ebp + 12]
	mov	eax, dword ptr [ebp + 8]
	mov	eax, dword ptr [.L__profc_strncmp]
	add	eax, 1
	adc	dword ptr [.L__profc_strncmp+4], 0
	mov	dword ptr [.L__profc_strncmp], eax
	mov	eax, dword ptr [ebp + 8]
	mov	dword ptr [ebp - 8], eax
	mov	eax, dword ptr [ebp + 12]
	mov	dword ptr [ebp - 12], eax
	mov	eax, dword ptr [ebp + 16]
	mov	ecx, eax
	add	ecx, -1
	mov	dword ptr [ebp + 16], ecx
	cmp	eax, 0
	jne	.LBB12_2
# %bb.1:
	mov	eax, dword ptr [.L__profc_strncmp+8]
	add	eax, 1
	adc	dword ptr [.L__profc_strncmp+12], 0
	mov	dword ptr [.L__profc_strncmp+8], eax
	mov	dword ptr [ebp - 4], 0
	jmp	.LBB12_14
.LBB12_2:
	jmp	.LBB12_3
.LBB12_3:                               # =>This Inner Loop Header: Depth=1
	mov	eax, dword ptr [ebp - 8]
	movzx	ecx, byte ptr [eax]
	xor	eax, eax
                                        # kill: def $al killed $al killed $eax
	cmp	ecx, 0
	mov	byte ptr [ebp - 13], al         # 1-byte Spill
	je	.LBB12_10
# %bb.4:                                #   in Loop: Header=BB12_3 Depth=1
	mov	eax, dword ptr [.L__profc_strncmp+56]
	add	eax, 1
	adc	dword ptr [.L__profc_strncmp+60], 0
	mov	dword ptr [.L__profc_strncmp+56], eax
	mov	eax, dword ptr [ebp - 12]
	movzx	ecx, byte ptr [eax]
	xor	eax, eax
                                        # kill: def $al killed $al killed $eax
	cmp	ecx, 0
	mov	byte ptr [ebp - 13], al         # 1-byte Spill
	je	.LBB12_10
# %bb.5:                                #   in Loop: Header=BB12_3 Depth=1
	mov	eax, dword ptr [.L__profc_strncmp+64]
	add	eax, 1
	adc	dword ptr [.L__profc_strncmp+68], 0
	mov	dword ptr [.L__profc_strncmp+64], eax
# %bb.6:                                #   in Loop: Header=BB12_3 Depth=1
	mov	eax, dword ptr [.L__profc_strncmp+40]
	add	eax, 1
	adc	dword ptr [.L__profc_strncmp+44], 0
	mov	dword ptr [.L__profc_strncmp+40], eax
	xor	eax, eax
                                        # kill: def $al killed $al killed $eax
	cmp	dword ptr [ebp + 16], 0
	mov	byte ptr [ebp - 13], al         # 1-byte Spill
	je	.LBB12_10
# %bb.7:                                #   in Loop: Header=BB12_3 Depth=1
	mov	eax, dword ptr [.L__profc_strncmp+48]
	add	eax, 1
	adc	dword ptr [.L__profc_strncmp+52], 0
	mov	dword ptr [.L__profc_strncmp+48], eax
# %bb.8:                                #   in Loop: Header=BB12_3 Depth=1
	mov	eax, dword ptr [.L__profc_strncmp+24]
	add	eax, 1
	adc	dword ptr [.L__profc_strncmp+28], 0
	mov	dword ptr [.L__profc_strncmp+24], eax
	mov	eax, dword ptr [ebp - 8]
	movzx	eax, byte ptr [eax]
	mov	ecx, dword ptr [ebp - 12]
	movzx	ecx, byte ptr [ecx]
	cmp	eax, ecx
	sete	al
	mov	byte ptr [ebp - 14], al         # 1-byte Spill
	test	al, 1
	mov	byte ptr [ebp - 13], al         # 1-byte Spill
	jne	.LBB12_9
	jmp	.LBB12_10
.LBB12_9:                               #   in Loop: Header=BB12_3 Depth=1
	mov	al, byte ptr [ebp - 14]         # 1-byte Reload
	mov	ecx, dword ptr [.L__profc_strncmp+32]
	add	ecx, 1
	adc	dword ptr [.L__profc_strncmp+36], 0
	mov	dword ptr [.L__profc_strncmp+32], ecx
	mov	byte ptr [ebp - 13], al         # 1-byte Spill
.LBB12_10:                              #   in Loop: Header=BB12_3 Depth=1
	mov	al, byte ptr [ebp - 13]         # 1-byte Reload
	test	al, 1
	jne	.LBB12_11
	jmp	.LBB12_13
.LBB12_11:                              #   in Loop: Header=BB12_3 Depth=1
	mov	eax, dword ptr [.L__profc_strncmp+16]
	add	eax, 1
	adc	dword ptr [.L__profc_strncmp+20], 0
	mov	dword ptr [.L__profc_strncmp+16], eax
# %bb.12:                               #   in Loop: Header=BB12_3 Depth=1
	mov	eax, dword ptr [ebp - 8]
	add	eax, 1
	mov	dword ptr [ebp - 8], eax
	mov	eax, dword ptr [ebp - 12]
	add	eax, 1
	mov	dword ptr [ebp - 12], eax
	mov	eax, dword ptr [ebp + 16]
	add	eax, -1
	mov	dword ptr [ebp + 16], eax
	jmp	.LBB12_3
.LBB12_13:
	mov	eax, dword ptr [ebp - 8]
	movzx	eax, byte ptr [eax]
	mov	ecx, dword ptr [ebp - 12]
	movzx	ecx, byte ptr [ecx]
	sub	eax, ecx
	mov	dword ptr [ebp - 4], eax
.LBB12_14:
	mov	eax, dword ptr [ebp - 4]
	add	esp, 16
	pop	ebp
	.cfi_def_cfa esp, 4
	fldz
	fldz
	fldz
	fldz
	fldz
	fldz
	fldz
	fstp	st(0)
	fstp	st(0)
	fstp	st(0)
	fstp	st(0)
	fstp	st(0)
	fstp	st(0)
	fstp	st(0)
	xor	ecx, ecx
	xor	edx, edx
	jmp	__x86_return_thunk              # TAILCALL
.Lfunc_end12:
	.size	strncmp, .Lfunc_end12-strncmp
	.cfi_endproc
                                        # -- End function
	.globl	swab                            # -- Begin function swab
	.p2align	4, 0x90
	.type	swab,@function
swab:                                   # @swab
	.cfi_startproc
# %bb.0:
	push	ebp
	.cfi_def_cfa_offset 8
	.cfi_offset ebp, -8
	mov	ebp, esp
	.cfi_def_cfa_register ebp
	sub	esp, 8
	mov	eax, dword ptr [ebp + 16]
	mov	eax, dword ptr [ebp + 12]
	mov	eax, dword ptr [ebp + 8]
	mov	eax, dword ptr [.L__profc_swab]
	add	eax, 1
	adc	dword ptr [.L__profc_swab+4], 0
	mov	dword ptr [.L__profc_swab], eax
	mov	eax, dword ptr [ebp + 8]
	mov	dword ptr [ebp - 4], eax
	mov	eax, dword ptr [ebp + 12]
	mov	dword ptr [ebp - 8], eax
.LBB13_1:                               # =>This Inner Loop Header: Depth=1
	cmp	dword ptr [ebp + 16], 1
	jle	.LBB13_4
# %bb.2:                                #   in Loop: Header=BB13_1 Depth=1
	mov	eax, dword ptr [.L__profc_swab+8]
	add	eax, 1
	adc	dword ptr [.L__profc_swab+12], 0
	mov	dword ptr [.L__profc_swab+8], eax
	mov	eax, dword ptr [ebp - 4]
	mov	cl, byte ptr [eax + 1]
	mov	eax, dword ptr [ebp - 8]
	mov	byte ptr [eax], cl
	mov	eax, dword ptr [ebp - 4]
	mov	cl, byte ptr [eax]
	mov	eax, dword ptr [ebp - 8]
	mov	byte ptr [eax + 1], cl
	mov	eax, dword ptr [ebp - 8]
	add	eax, 2
	mov	dword ptr [ebp - 8], eax
	mov	eax, dword ptr [ebp - 4]
	add	eax, 2
	mov	dword ptr [ebp - 4], eax
# %bb.3:                                #   in Loop: Header=BB13_1 Depth=1
	mov	eax, dword ptr [ebp + 16]
	sub	eax, 2
	mov	dword ptr [ebp + 16], eax
	jmp	.LBB13_1
.LBB13_4:
	add	esp, 8
	pop	ebp
	.cfi_def_cfa esp, 4
	fldz
	fldz
	fldz
	fldz
	fldz
	fldz
	fldz
	fstp	st(0)
	fstp	st(0)
	fstp	st(0)
	fstp	st(0)
	fstp	st(0)
	fstp	st(0)
	fstp	st(0)
	xor	eax, eax
	xor	ecx, ecx
	xor	edx, edx
	jmp	__x86_return_thunk              # TAILCALL
.Lfunc_end13:
	.size	swab, .Lfunc_end13-swab
	.cfi_endproc
                                        # -- End function
	.globl	isalpha                         # -- Begin function isalpha
	.p2align	4, 0x90
	.type	isalpha,@function
isalpha:                                # @isalpha
	.cfi_startproc
# %bb.0:
	push	ebp
	.cfi_def_cfa_offset 8
	.cfi_offset ebp, -8
	mov	ebp, esp
	.cfi_def_cfa_register ebp
	mov	eax, dword ptr [ebp + 8]
	mov	eax, dword ptr [.L__profc_isalpha]
	add	eax, 1
	adc	dword ptr [.L__profc_isalpha+4], 0
	mov	dword ptr [.L__profc_isalpha], eax
	mov	eax, dword ptr [ebp + 8]
	or	eax, 32
	sub	eax, 97
	cmp	eax, 26
	setb	al
	and	al, 1
	movzx	eax, al
	pop	ebp
	.cfi_def_cfa esp, 4
	fldz
	fldz
	fldz
	fldz
	fldz
	fldz
	fldz
	fstp	st(0)
	fstp	st(0)
	fstp	st(0)
	fstp	st(0)
	fstp	st(0)
	fstp	st(0)
	fstp	st(0)
	xor	ecx, ecx
	xor	edx, edx
	jmp	__x86_return_thunk              # TAILCALL
.Lfunc_end14:
	.size	isalpha, .Lfunc_end14-isalpha
	.cfi_endproc
                                        # -- End function
	.globl	isascii                         # -- Begin function isascii
	.p2align	4, 0x90
	.type	isascii,@function
isascii:                                # @isascii
	.cfi_startproc
# %bb.0:
	push	ebp
	.cfi_def_cfa_offset 8
	.cfi_offset ebp, -8
	mov	ebp, esp
	.cfi_def_cfa_register ebp
	mov	eax, dword ptr [ebp + 8]
	mov	eax, dword ptr [.L__profc_isascii]
	add	eax, 1
	adc	dword ptr [.L__profc_isascii+4], 0
	mov	dword ptr [.L__profc_isascii], eax
	mov	eax, dword ptr [ebp + 8]
	and	eax, -128
	cmp	eax, 0
	setne	al
	xor	al, -1
	and	al, 1
	movzx	eax, al
	pop	ebp
	.cfi_def_cfa esp, 4
	fldz
	fldz
	fldz
	fldz
	fldz
	fldz
	fldz
	fstp	st(0)
	fstp	st(0)
	fstp	st(0)
	fstp	st(0)
	fstp	st(0)
	fstp	st(0)
	fstp	st(0)
	xor	ecx, ecx
	xor	edx, edx
	jmp	__x86_return_thunk              # TAILCALL
.Lfunc_end15:
	.size	isascii, .Lfunc_end15-isascii
	.cfi_endproc
                                        # -- End function
	.globl	isblank                         # -- Begin function isblank
	.p2align	4, 0x90
	.type	isblank,@function
isblank:                                # @isblank
	.cfi_startproc
# %bb.0:
	push	ebp
	.cfi_def_cfa_offset 8
	.cfi_offset ebp, -8
	mov	ebp, esp
	.cfi_def_cfa_register ebp
	push	eax
	mov	eax, dword ptr [ebp + 8]
	mov	eax, dword ptr [.L__profc_isblank]
	add	eax, 1
	adc	dword ptr [.L__profc_isblank+4], 0
	mov	dword ptr [.L__profc_isblank], eax
	mov	al, 1
	cmp	dword ptr [ebp + 8], 32
	mov	byte ptr [ebp - 1], al          # 1-byte Spill
	je	.LBB16_3
# %bb.1:
	mov	eax, dword ptr [.L__profc_isblank+8]
	add	eax, 1
	adc	dword ptr [.L__profc_isblank+12], 0
	mov	dword ptr [.L__profc_isblank+8], eax
	cmp	dword ptr [ebp + 8], 9
	sete	al
	mov	byte ptr [ebp - 2], al          # 1-byte Spill
	test	al, 1
	mov	byte ptr [ebp - 1], al          # 1-byte Spill
	jne	.LBB16_3
# %bb.2:
	mov	al, byte ptr [ebp - 2]          # 1-byte Reload
	mov	ecx, dword ptr [.L__profc_isblank+16]
	add	ecx, 1
	adc	dword ptr [.L__profc_isblank+20], 0
	mov	dword ptr [.L__profc_isblank+16], ecx
	mov	byte ptr [ebp - 1], al          # 1-byte Spill
.LBB16_3:
	mov	al, byte ptr [ebp - 1]          # 1-byte Reload
	and	al, 1
	movzx	eax, al
	add	esp, 4
	pop	ebp
	.cfi_def_cfa esp, 4
	fldz
	fldz
	fldz
	fldz
	fldz
	fldz
	fldz
	fstp	st(0)
	fstp	st(0)
	fstp	st(0)
	fstp	st(0)
	fstp	st(0)
	fstp	st(0)
	fstp	st(0)
	xor	ecx, ecx
	xor	edx, edx
	jmp	__x86_return_thunk              # TAILCALL
.Lfunc_end16:
	.size	isblank, .Lfunc_end16-isblank
	.cfi_endproc
                                        # -- End function
	.globl	iscntrl                         # -- Begin function iscntrl
	.p2align	4, 0x90
	.type	iscntrl,@function
iscntrl:                                # @iscntrl
	.cfi_startproc
# %bb.0:
	push	ebp
	.cfi_def_cfa_offset 8
	.cfi_offset ebp, -8
	mov	ebp, esp
	.cfi_def_cfa_register ebp
	push	eax
	mov	eax, dword ptr [ebp + 8]
	mov	eax, dword ptr [.L__profc_iscntrl]
	add	eax, 1
	adc	dword ptr [.L__profc_iscntrl+4], 0
	mov	dword ptr [.L__profc_iscntrl], eax
	mov	al, 1
	cmp	dword ptr [ebp + 8], 32
	mov	byte ptr [ebp - 1], al          # 1-byte Spill
	jb	.LBB17_3
# %bb.1:
	mov	eax, dword ptr [.L__profc_iscntrl+8]
	add	eax, 1
	adc	dword ptr [.L__profc_iscntrl+12], 0
	mov	dword ptr [.L__profc_iscntrl+8], eax
	cmp	dword ptr [ebp + 8], 127
	sete	al
	mov	byte ptr [ebp - 2], al          # 1-byte Spill
	test	al, 1
	mov	byte ptr [ebp - 1], al          # 1-byte Spill
	jne	.LBB17_3
# %bb.2:
	mov	al, byte ptr [ebp - 2]          # 1-byte Reload
	mov	ecx, dword ptr [.L__profc_iscntrl+16]
	add	ecx, 1
	adc	dword ptr [.L__profc_iscntrl+20], 0
	mov	dword ptr [.L__profc_iscntrl+16], ecx
	mov	byte ptr [ebp - 1], al          # 1-byte Spill
.LBB17_3:
	mov	al, byte ptr [ebp - 1]          # 1-byte Reload
	and	al, 1
	movzx	eax, al
	add	esp, 4
	pop	ebp
	.cfi_def_cfa esp, 4
	fldz
	fldz
	fldz
	fldz
	fldz
	fldz
	fldz
	fstp	st(0)
	fstp	st(0)
	fstp	st(0)
	fstp	st(0)
	fstp	st(0)
	fstp	st(0)
	fstp	st(0)
	xor	ecx, ecx
	xor	edx, edx
	jmp	__x86_return_thunk              # TAILCALL
.Lfunc_end17:
	.size	iscntrl, .Lfunc_end17-iscntrl
	.cfi_endproc
                                        # -- End function
	.globl	isdigit                         # -- Begin function isdigit
	.p2align	4, 0x90
	.type	isdigit,@function
isdigit:                                # @isdigit
	.cfi_startproc
# %bb.0:
	push	ebp
	.cfi_def_cfa_offset 8
	.cfi_offset ebp, -8
	mov	ebp, esp
	.cfi_def_cfa_register ebp
	mov	eax, dword ptr [ebp + 8]
	mov	eax, dword ptr [.L__profc_isdigit]
	add	eax, 1
	adc	dword ptr [.L__profc_isdigit+4], 0
	mov	dword ptr [.L__profc_isdigit], eax
	mov	eax, dword ptr [ebp + 8]
	sub	eax, 48
	cmp	eax, 10
	setb	al
	and	al, 1
	movzx	eax, al
	pop	ebp
	.cfi_def_cfa esp, 4
	fldz
	fldz
	fldz
	fldz
	fldz
	fldz
	fldz
	fstp	st(0)
	fstp	st(0)
	fstp	st(0)
	fstp	st(0)
	fstp	st(0)
	fstp	st(0)
	fstp	st(0)
	xor	ecx, ecx
	xor	edx, edx
	jmp	__x86_return_thunk              # TAILCALL
.Lfunc_end18:
	.size	isdigit, .Lfunc_end18-isdigit
	.cfi_endproc
                                        # -- End function
	.globl	isgraph                         # -- Begin function isgraph
	.p2align	4, 0x90
	.type	isgraph,@function
isgraph:                                # @isgraph
	.cfi_startproc
# %bb.0:
	push	ebp
	.cfi_def_cfa_offset 8
	.cfi_offset ebp, -8
	mov	ebp, esp
	.cfi_def_cfa_register ebp
	mov	eax, dword ptr [ebp + 8]
	mov	eax, dword ptr [.L__profc_isgraph]
	add	eax, 1
	adc	dword ptr [.L__profc_isgraph+4], 0
	mov	dword ptr [.L__profc_isgraph], eax
	mov	eax, dword ptr [ebp + 8]
	sub	eax, 33
	cmp	eax, 94
	setb	al
	and	al, 1
	movzx	eax, al
	pop	ebp
	.cfi_def_cfa esp, 4
	fldz
	fldz
	fldz
	fldz
	fldz
	fldz
	fldz
	fstp	st(0)
	fstp	st(0)
	fstp	st(0)
	fstp	st(0)
	fstp	st(0)
	fstp	st(0)
	fstp	st(0)
	xor	ecx, ecx
	xor	edx, edx
	jmp	__x86_return_thunk              # TAILCALL
.Lfunc_end19:
	.size	isgraph, .Lfunc_end19-isgraph
	.cfi_endproc
                                        # -- End function
	.globl	islower                         # -- Begin function islower
	.p2align	4, 0x90
	.type	islower,@function
islower:                                # @islower
	.cfi_startproc
# %bb.0:
	push	ebp
	.cfi_def_cfa_offset 8
	.cfi_offset ebp, -8
	mov	ebp, esp
	.cfi_def_cfa_register ebp
	mov	eax, dword ptr [ebp + 8]
	mov	eax, dword ptr [.L__profc_islower]
	add	eax, 1
	adc	dword ptr [.L__profc_islower+4], 0
	mov	dword ptr [.L__profc_islower], eax
	mov	eax, dword ptr [ebp + 8]
	sub	eax, 97
	cmp	eax, 26
	setb	al
	and	al, 1
	movzx	eax, al
	pop	ebp
	.cfi_def_cfa esp, 4
	fldz
	fldz
	fldz
	fldz
	fldz
	fldz
	fldz
	fstp	st(0)
	fstp	st(0)
	fstp	st(0)
	fstp	st(0)
	fstp	st(0)
	fstp	st(0)
	fstp	st(0)
	xor	ecx, ecx
	xor	edx, edx
	jmp	__x86_return_thunk              # TAILCALL
.Lfunc_end20:
	.size	islower, .Lfunc_end20-islower
	.cfi_endproc
                                        # -- End function
	.globl	isprint                         # -- Begin function isprint
	.p2align	4, 0x90
	.type	isprint,@function
isprint:                                # @isprint
	.cfi_startproc
# %bb.0:
	push	ebp
	.cfi_def_cfa_offset 8
	.cfi_offset ebp, -8
	mov	ebp, esp
	.cfi_def_cfa_register ebp
	mov	eax, dword ptr [ebp + 8]
	mov	eax, dword ptr [.L__profc_isprint]
	add	eax, 1
	adc	dword ptr [.L__profc_isprint+4], 0
	mov	dword ptr [.L__profc_isprint], eax
	mov	eax, dword ptr [ebp + 8]
	sub	eax, 32
	cmp	eax, 95
	setb	al
	and	al, 1
	movzx	eax, al
	pop	ebp
	.cfi_def_cfa esp, 4
	fldz
	fldz
	fldz
	fldz
	fldz
	fldz
	fldz
	fstp	st(0)
	fstp	st(0)
	fstp	st(0)
	fstp	st(0)
	fstp	st(0)
	fstp	st(0)
	fstp	st(0)
	xor	ecx, ecx
	xor	edx, edx
	jmp	__x86_return_thunk              # TAILCALL
.Lfunc_end21:
	.size	isprint, .Lfunc_end21-isprint
	.cfi_endproc
                                        # -- End function
	.globl	isspace                         # -- Begin function isspace
	.p2align	4, 0x90
	.type	isspace,@function
isspace:                                # @isspace
	.cfi_startproc
# %bb.0:
	push	ebp
	.cfi_def_cfa_offset 8
	.cfi_offset ebp, -8
	mov	ebp, esp
	.cfi_def_cfa_register ebp
	push	eax
	mov	eax, dword ptr [ebp + 8]
	mov	eax, dword ptr [.L__profc_isspace]
	add	eax, 1
	adc	dword ptr [.L__profc_isspace+4], 0
	mov	dword ptr [.L__profc_isspace], eax
	mov	al, 1
	cmp	dword ptr [ebp + 8], 32
	mov	byte ptr [ebp - 1], al          # 1-byte Spill
	je	.LBB22_3
# %bb.1:
	mov	eax, dword ptr [.L__profc_isspace+8]
	add	eax, 1
	adc	dword ptr [.L__profc_isspace+12], 0
	mov	dword ptr [.L__profc_isspace+8], eax
	mov	eax, dword ptr [ebp + 8]
	sub	eax, 9
	cmp	eax, 5
	setb	al
	mov	byte ptr [ebp - 2], al          # 1-byte Spill
	test	al, 1
	mov	byte ptr [ebp - 1], al          # 1-byte Spill
	jne	.LBB22_3
# %bb.2:
	mov	al, byte ptr [ebp - 2]          # 1-byte Reload
	mov	ecx, dword ptr [.L__profc_isspace+16]
	add	ecx, 1
	adc	dword ptr [.L__profc_isspace+20], 0
	mov	dword ptr [.L__profc_isspace+16], ecx
	mov	byte ptr [ebp - 1], al          # 1-byte Spill
.LBB22_3:
	mov	al, byte ptr [ebp - 1]          # 1-byte Reload
	and	al, 1
	movzx	eax, al
	add	esp, 4
	pop	ebp
	.cfi_def_cfa esp, 4
	fldz
	fldz
	fldz
	fldz
	fldz
	fldz
	fldz
	fstp	st(0)
	fstp	st(0)
	fstp	st(0)
	fstp	st(0)
	fstp	st(0)
	fstp	st(0)
	fstp	st(0)
	xor	ecx, ecx
	xor	edx, edx
	jmp	__x86_return_thunk              # TAILCALL
.Lfunc_end22:
	.size	isspace, .Lfunc_end22-isspace
	.cfi_endproc
                                        # -- End function
	.globl	isupper                         # -- Begin function isupper
	.p2align	4, 0x90
	.type	isupper,@function
isupper:                                # @isupper
	.cfi_startproc
# %bb.0:
	push	ebp
	.cfi_def_cfa_offset 8
	.cfi_offset ebp, -8
	mov	ebp, esp
	.cfi_def_cfa_register ebp
	mov	eax, dword ptr [ebp + 8]
	mov	eax, dword ptr [.L__profc_isupper]
	add	eax, 1
	adc	dword ptr [.L__profc_isupper+4], 0
	mov	dword ptr [.L__profc_isupper], eax
	mov	eax, dword ptr [ebp + 8]
	sub	eax, 65
	cmp	eax, 26
	setb	al
	and	al, 1
	movzx	eax, al
	pop	ebp
	.cfi_def_cfa esp, 4
	fldz
	fldz
	fldz
	fldz
	fldz
	fldz
	fldz
	fstp	st(0)
	fstp	st(0)
	fstp	st(0)
	fstp	st(0)
	fstp	st(0)
	fstp	st(0)
	fstp	st(0)
	xor	ecx, ecx
	xor	edx, edx
	jmp	__x86_return_thunk              # TAILCALL
.Lfunc_end23:
	.size	isupper, .Lfunc_end23-isupper
	.cfi_endproc
                                        # -- End function
	.globl	iswcntrl                        # -- Begin function iswcntrl
	.p2align	4, 0x90
	.type	iswcntrl,@function
iswcntrl:                               # @iswcntrl
	.cfi_startproc
# %bb.0:
	push	ebp
	.cfi_def_cfa_offset 8
	.cfi_offset ebp, -8
	mov	ebp, esp
	.cfi_def_cfa_register ebp
	push	eax
	mov	eax, dword ptr [ebp + 8]
	mov	eax, dword ptr [.L__profc_iswcntrl]
	add	eax, 1
	adc	dword ptr [.L__profc_iswcntrl+4], 0
	mov	dword ptr [.L__profc_iswcntrl], eax
	mov	al, 1
	cmp	dword ptr [ebp + 8], 32
	mov	byte ptr [ebp - 1], al          # 1-byte Spill
	jb	.LBB24_7
# %bb.1:
	mov	eax, dword ptr [.L__profc_iswcntrl+40]
	add	eax, 1
	adc	dword ptr [.L__profc_iswcntrl+44], 0
	mov	dword ptr [.L__profc_iswcntrl+40], eax
	mov	ecx, dword ptr [ebp + 8]
	sub	ecx, 127
	mov	al, 1
	cmp	ecx, 33
	mov	byte ptr [ebp - 1], al          # 1-byte Spill
	jb	.LBB24_7
# %bb.2:
	mov	eax, dword ptr [.L__profc_iswcntrl+48]
	add	eax, 1
	adc	dword ptr [.L__profc_iswcntrl+52], 0
	mov	dword ptr [.L__profc_iswcntrl+48], eax
# %bb.3:
	mov	eax, dword ptr [.L__profc_iswcntrl+24]
	add	eax, 1
	adc	dword ptr [.L__profc_iswcntrl+28], 0
	mov	dword ptr [.L__profc_iswcntrl+24], eax
	mov	ecx, dword ptr [ebp + 8]
	sub	ecx, 8232
	mov	al, 1
	cmp	ecx, 2
	mov	byte ptr [ebp - 1], al          # 1-byte Spill
	jb	.LBB24_7
# %bb.4:
	mov	eax, dword ptr [.L__profc_iswcntrl+32]
	add	eax, 1
	adc	dword ptr [.L__profc_iswcntrl+36], 0
	mov	dword ptr [.L__profc_iswcntrl+32], eax
# %bb.5:
	mov	eax, dword ptr [.L__profc_iswcntrl+8]
	add	eax, 1
	adc	dword ptr [.L__profc_iswcntrl+12], 0
	mov	dword ptr [.L__profc_iswcntrl+8], eax
	mov	eax, dword ptr [ebp + 8]
	sub	eax, 65529
	cmp	eax, 3
	setb	al
	mov	byte ptr [ebp - 2], al          # 1-byte Spill
	test	al, 1
	mov	byte ptr [ebp - 1], al          # 1-byte Spill
	jne	.LBB24_7
# %bb.6:
	mov	al, byte ptr [ebp - 2]          # 1-byte Reload
	mov	ecx, dword ptr [.L__profc_iswcntrl+16]
	add	ecx, 1
	adc	dword ptr [.L__profc_iswcntrl+20], 0
	mov	dword ptr [.L__profc_iswcntrl+16], ecx
	mov	byte ptr [ebp - 1], al          # 1-byte Spill
.LBB24_7:
	mov	al, byte ptr [ebp - 1]          # 1-byte Reload
	and	al, 1
	movzx	eax, al
	add	esp, 4
	pop	ebp
	.cfi_def_cfa esp, 4
	fldz
	fldz
	fldz
	fldz
	fldz
	fldz
	fldz
	fstp	st(0)
	fstp	st(0)
	fstp	st(0)
	fstp	st(0)
	fstp	st(0)
	fstp	st(0)
	fstp	st(0)
	xor	ecx, ecx
	xor	edx, edx
	jmp	__x86_return_thunk              # TAILCALL
.Lfunc_end24:
	.size	iswcntrl, .Lfunc_end24-iswcntrl
	.cfi_endproc
                                        # -- End function
	.globl	iswdigit                        # -- Begin function iswdigit
	.p2align	4, 0x90
	.type	iswdigit,@function
iswdigit:                               # @iswdigit
	.cfi_startproc
# %bb.0:
	push	ebp
	.cfi_def_cfa_offset 8
	.cfi_offset ebp, -8
	mov	ebp, esp
	.cfi_def_cfa_register ebp
	mov	eax, dword ptr [ebp + 8]
	mov	eax, dword ptr [.L__profc_iswdigit]
	add	eax, 1
	adc	dword ptr [.L__profc_iswdigit+4], 0
	mov	dword ptr [.L__profc_iswdigit], eax
	mov	eax, dword ptr [ebp + 8]
	sub	eax, 48
	cmp	eax, 10
	setb	al
	and	al, 1
	movzx	eax, al
	pop	ebp
	.cfi_def_cfa esp, 4
	fldz
	fldz
	fldz
	fldz
	fldz
	fldz
	fldz
	fstp	st(0)
	fstp	st(0)
	fstp	st(0)
	fstp	st(0)
	fstp	st(0)
	fstp	st(0)
	fstp	st(0)
	xor	ecx, ecx
	xor	edx, edx
	jmp	__x86_return_thunk              # TAILCALL
.Lfunc_end25:
	.size	iswdigit, .Lfunc_end25-iswdigit
	.cfi_endproc
                                        # -- End function
	.globl	iswprint                        # -- Begin function iswprint
	.p2align	4, 0x90
	.type	iswprint,@function
iswprint:                               # @iswprint
	.cfi_startproc
# %bb.0:
	push	ebp
	.cfi_def_cfa_offset 8
	.cfi_offset ebp, -8
	mov	ebp, esp
	.cfi_def_cfa_register ebp
	push	eax
	mov	eax, dword ptr [ebp + 8]
	mov	eax, dword ptr [.L__profc_iswprint]
	add	eax, 1
	adc	dword ptr [.L__profc_iswprint+4], 0
	mov	dword ptr [.L__profc_iswprint], eax
	cmp	dword ptr [ebp + 8], 255
	jae	.LBB26_2
# %bb.1:
	mov	eax, dword ptr [.L__profc_iswprint+8]
	add	eax, 1
	adc	dword ptr [.L__profc_iswprint+12], 0
	mov	dword ptr [.L__profc_iswprint+8], eax
	mov	eax, dword ptr [ebp + 8]
	add	eax, 1
	and	eax, 127
	cmp	eax, 33
	setge	al
	and	al, 1
	movzx	eax, al
	mov	dword ptr [ebp - 4], eax
	jmp	.LBB26_13
.LBB26_2:
	cmp	dword ptr [ebp + 8], 8232
	jb	.LBB26_7
# %bb.3:
	mov	eax, dword ptr [.L__profc_iswprint+40]
	add	eax, 1
	adc	dword ptr [.L__profc_iswprint+44], 0
	mov	dword ptr [.L__profc_iswprint+40], eax
	mov	eax, dword ptr [ebp + 8]
	sub	eax, 8234
	cmp	eax, 47062
	jb	.LBB26_7
# %bb.4:
	mov	eax, dword ptr [.L__profc_iswprint+48]
	add	eax, 1
	adc	dword ptr [.L__profc_iswprint+52], 0
	mov	dword ptr [.L__profc_iswprint+48], eax
# %bb.5:
	mov	eax, dword ptr [.L__profc_iswprint+24]
	add	eax, 1
	adc	dword ptr [.L__profc_iswprint+28], 0
	mov	dword ptr [.L__profc_iswprint+24], eax
	mov	eax, dword ptr [ebp + 8]
	sub	eax, 57344
	cmp	eax, 8185
	jb	.LBB26_7
# %bb.6:
	mov	eax, dword ptr [.L__profc_iswprint+32]
	add	eax, 1
	adc	dword ptr [.L__profc_iswprint+36], 0
	mov	dword ptr [.L__profc_iswprint+32], eax
	jmp	.LBB26_8
.LBB26_7:
	mov	eax, dword ptr [.L__profc_iswprint+16]
	add	eax, 1
	adc	dword ptr [.L__profc_iswprint+20], 0
	mov	dword ptr [.L__profc_iswprint+16], eax
	mov	dword ptr [ebp - 4], 1
	jmp	.LBB26_13
.LBB26_8:
	mov	eax, dword ptr [ebp + 8]
	sub	eax, 65532
	cmp	eax, 1048579
	ja	.LBB26_11
# %bb.9:
	mov	eax, dword ptr [.L__profc_iswprint+64]
	add	eax, 1
	adc	dword ptr [.L__profc_iswprint+68], 0
	mov	dword ptr [.L__profc_iswprint+64], eax
	mov	eax, dword ptr [ebp + 8]
	and	eax, 65534
	cmp	eax, 65534
	je	.LBB26_11
# %bb.10:
	mov	eax, dword ptr [.L__profc_iswprint+72]
	add	eax, 1
	adc	dword ptr [.L__profc_iswprint+76], 0
	mov	dword ptr [.L__profc_iswprint+72], eax
	jmp	.LBB26_12
.LBB26_11:
	mov	eax, dword ptr [.L__profc_iswprint+56]
	add	eax, 1
	adc	dword ptr [.L__profc_iswprint+60], 0
	mov	dword ptr [.L__profc_iswprint+56], eax
	mov	dword ptr [ebp - 4], 0
	jmp	.LBB26_13
.LBB26_12:
	mov	dword ptr [ebp - 4], 1
.LBB26_13:
	mov	eax, dword ptr [ebp - 4]
	add	esp, 4
	pop	ebp
	.cfi_def_cfa esp, 4
	fldz
	fldz
	fldz
	fldz
	fldz
	fldz
	fldz
	fstp	st(0)
	fstp	st(0)
	fstp	st(0)
	fstp	st(0)
	fstp	st(0)
	fstp	st(0)
	fstp	st(0)
	xor	ecx, ecx
	xor	edx, edx
	jmp	__x86_return_thunk              # TAILCALL
.Lfunc_end26:
	.size	iswprint, .Lfunc_end26-iswprint
	.cfi_endproc
                                        # -- End function
	.globl	iswxdigit                       # -- Begin function iswxdigit
	.p2align	4, 0x90
	.type	iswxdigit,@function
iswxdigit:                              # @iswxdigit
	.cfi_startproc
# %bb.0:
	push	ebp
	.cfi_def_cfa_offset 8
	.cfi_offset ebp, -8
	mov	ebp, esp
	.cfi_def_cfa_register ebp
	push	eax
	mov	eax, dword ptr [ebp + 8]
	mov	eax, dword ptr [.L__profc_iswxdigit]
	add	eax, 1
	adc	dword ptr [.L__profc_iswxdigit+4], 0
	mov	dword ptr [.L__profc_iswxdigit], eax
	mov	ecx, dword ptr [ebp + 8]
	sub	ecx, 48
	mov	al, 1
	cmp	ecx, 10
	mov	byte ptr [ebp - 1], al          # 1-byte Spill
	jb	.LBB27_3
# %bb.1:
	mov	eax, dword ptr [.L__profc_iswxdigit+8]
	add	eax, 1
	adc	dword ptr [.L__profc_iswxdigit+12], 0
	mov	dword ptr [.L__profc_iswxdigit+8], eax
	mov	eax, dword ptr [ebp + 8]
	or	eax, 32
	sub	eax, 97
	cmp	eax, 6
	setb	al
	mov	byte ptr [ebp - 2], al          # 1-byte Spill
	test	al, 1
	mov	byte ptr [ebp - 1], al          # 1-byte Spill
	jne	.LBB27_3
# %bb.2:
	mov	al, byte ptr [ebp - 2]          # 1-byte Reload
	mov	ecx, dword ptr [.L__profc_iswxdigit+16]
	add	ecx, 1
	adc	dword ptr [.L__profc_iswxdigit+20], 0
	mov	dword ptr [.L__profc_iswxdigit+16], ecx
	mov	byte ptr [ebp - 1], al          # 1-byte Spill
.LBB27_3:
	mov	al, byte ptr [ebp - 1]          # 1-byte Reload
	and	al, 1
	movzx	eax, al
	add	esp, 4
	pop	ebp
	.cfi_def_cfa esp, 4
	fldz
	fldz
	fldz
	fldz
	fldz
	fldz
	fldz
	fstp	st(0)
	fstp	st(0)
	fstp	st(0)
	fstp	st(0)
	fstp	st(0)
	fstp	st(0)
	fstp	st(0)
	xor	ecx, ecx
	xor	edx, edx
	jmp	__x86_return_thunk              # TAILCALL
.Lfunc_end27:
	.size	iswxdigit, .Lfunc_end27-iswxdigit
	.cfi_endproc
                                        # -- End function
	.globl	toascii                         # -- Begin function toascii
	.p2align	4, 0x90
	.type	toascii,@function
toascii:                                # @toascii
	.cfi_startproc
# %bb.0:
	push	ebp
	.cfi_def_cfa_offset 8
	.cfi_offset ebp, -8
	mov	ebp, esp
	.cfi_def_cfa_register ebp
	mov	eax, dword ptr [ebp + 8]
	mov	eax, dword ptr [.L__profc_toascii]
	add	eax, 1
	adc	dword ptr [.L__profc_toascii+4], 0
	mov	dword ptr [.L__profc_toascii], eax
	mov	eax, dword ptr [ebp + 8]
	and	eax, 127
	pop	ebp
	.cfi_def_cfa esp, 4
	fldz
	fldz
	fldz
	fldz
	fldz
	fldz
	fldz
	fstp	st(0)
	fstp	st(0)
	fstp	st(0)
	fstp	st(0)
	fstp	st(0)
	fstp	st(0)
	fstp	st(0)
	xor	ecx, ecx
	xor	edx, edx
	jmp	__x86_return_thunk              # TAILCALL
.Lfunc_end28:
	.size	toascii, .Lfunc_end28-toascii
	.cfi_endproc
                                        # -- End function
	.globl	fdim                            # -- Begin function fdim
	.p2align	4, 0x90
	.type	fdim,@function
fdim:                                   # @fdim
	.cfi_startproc
# %bb.0:
	push	ebp
	.cfi_def_cfa_offset 8
	.cfi_offset ebp, -8
	mov	ebp, esp
	.cfi_def_cfa_register ebp
	and	esp, -8
	sub	esp, 32
	fld	qword ptr [ebp + 16]
	fld	qword ptr [ebp + 8]
	fstp	qword ptr [esp + 16]
	fstp	qword ptr [esp + 8]
	mov	eax, dword ptr [.L__profc_fdim]
	add	eax, 1
	adc	dword ptr [.L__profc_fdim+4], 0
	mov	dword ptr [.L__profc_fdim], eax
	fld	qword ptr [esp + 16]
	fucomp	st(0)
	fnstsw	ax
                                        # kill: def $ah killed $ah killed $ax
	sahf
	setp	al
	test	al, 1
	jne	.LBB29_1
	jmp	.LBB29_2
.LBB29_1:
	mov	eax, dword ptr [.L__profc_fdim+8]
	add	eax, 1
	adc	dword ptr [.L__profc_fdim+12], 0
	mov	dword ptr [.L__profc_fdim+8], eax
	fld	qword ptr [esp + 16]
	fstp	qword ptr [esp + 24]
	jmp	.LBB29_8
.LBB29_2:
	fld	qword ptr [esp + 8]
	fucomp	st(0)
	fnstsw	ax
                                        # kill: def $ah killed $ah killed $ax
	sahf
	setp	al
	test	al, 1
	jne	.LBB29_3
	jmp	.LBB29_4
.LBB29_3:
	mov	eax, dword ptr [.L__profc_fdim+16]
	add	eax, 1
	adc	dword ptr [.L__profc_fdim+20], 0
	mov	dword ptr [.L__profc_fdim+16], eax
	fld	qword ptr [esp + 8]
	fstp	qword ptr [esp + 24]
	jmp	.LBB29_8
.LBB29_4:
	fld	qword ptr [esp + 16]
	fld	qword ptr [esp + 8]
	fxch	st(1)
	fucompp
	fnstsw	ax
                                        # kill: def $ah killed $ah killed $ax
	sahf
	jbe	.LBB29_6
	jmp	.LBB29_5
.LBB29_5:
	mov	eax, dword ptr [.L__profc_fdim+24]
	add	eax, 1
	adc	dword ptr [.L__profc_fdim+28], 0
	mov	dword ptr [.L__profc_fdim+24], eax
	fld	qword ptr [esp + 16]
	fld	qword ptr [esp + 8]
	fsubp	st(1), st
	fstp	qword ptr [esp]                 # 8-byte Folded Spill
	jmp	.LBB29_7
.LBB29_6:
	fldz
	fstp	qword ptr [esp]                 # 8-byte Folded Spill
	jmp	.LBB29_7
.LBB29_7:
	fld	qword ptr [esp]                 # 8-byte Folded Reload
	fstp	qword ptr [esp + 24]
.LBB29_8:
	fld	qword ptr [esp + 24]
	mov	esp, ebp
	pop	ebp
	.cfi_def_cfa esp, 4
	fldz
	fldz
	fldz
	fldz
	fldz
	fldz
	fldz
	fstp	st(0)
	fstp	st(0)
	fstp	st(0)
	fstp	st(0)
	fstp	st(0)
	fstp	st(0)
	fstp	st(0)
	xor	eax, eax
	xor	ecx, ecx
	xor	edx, edx
	jmp	__x86_return_thunk              # TAILCALL
.Lfunc_end29:
	.size	fdim, .Lfunc_end29-fdim
	.cfi_endproc
                                        # -- End function
	.globl	fdimf                           # -- Begin function fdimf
	.p2align	4, 0x90
	.type	fdimf,@function
fdimf:                                  # @fdimf
	.cfi_startproc
# %bb.0:
	push	ebp
	.cfi_def_cfa_offset 8
	.cfi_offset ebp, -8
	mov	ebp, esp
	.cfi_def_cfa_register ebp
	sub	esp, 8
	fld	dword ptr [ebp + 12]
	fstp	st(0)
	fld	dword ptr [ebp + 8]
	fstp	st(0)
	mov	eax, dword ptr [.L__profc_fdimf]
	add	eax, 1
	adc	dword ptr [.L__profc_fdimf+4], 0
	mov	dword ptr [.L__profc_fdimf], eax
	fld	dword ptr [ebp + 8]
	fucomp	st(0)
	fnstsw	ax
                                        # kill: def $ah killed $ah killed $ax
	sahf
	setp	al
	test	al, 1
	jne	.LBB30_1
	jmp	.LBB30_2
.LBB30_1:
	mov	eax, dword ptr [.L__profc_fdimf+8]
	add	eax, 1
	adc	dword ptr [.L__profc_fdimf+12], 0
	mov	dword ptr [.L__profc_fdimf+8], eax
	fld	dword ptr [ebp + 8]
	fstp	dword ptr [ebp - 4]
	jmp	.LBB30_8
.LBB30_2:
	fld	dword ptr [ebp + 12]
	fucomp	st(0)
	fnstsw	ax
                                        # kill: def $ah killed $ah killed $ax
	sahf
	setp	al
	test	al, 1
	jne	.LBB30_3
	jmp	.LBB30_4
.LBB30_3:
	mov	eax, dword ptr [.L__profc_fdimf+16]
	add	eax, 1
	adc	dword ptr [.L__profc_fdimf+20], 0
	mov	dword ptr [.L__profc_fdimf+16], eax
	fld	dword ptr [ebp + 12]
	fstp	dword ptr [ebp - 4]
	jmp	.LBB30_8
.LBB30_4:
	fld	dword ptr [ebp + 8]
	fld	dword ptr [ebp + 12]
	fxch	st(1)
	fucompp
	fnstsw	ax
                                        # kill: def $ah killed $ah killed $ax
	sahf
	jbe	.LBB30_6
	jmp	.LBB30_5
.LBB30_5:
	mov	eax, dword ptr [.L__profc_fdimf+24]
	add	eax, 1
	adc	dword ptr [.L__profc_fdimf+28], 0
	mov	dword ptr [.L__profc_fdimf+24], eax
	fld	dword ptr [ebp + 8]
	fld	dword ptr [ebp + 12]
	fsubp	st(1), st
	fstp	dword ptr [ebp - 8]             # 4-byte Folded Spill
	jmp	.LBB30_7
.LBB30_6:
	fldz
	fstp	dword ptr [ebp - 8]             # 4-byte Folded Spill
	jmp	.LBB30_7
.LBB30_7:
	fld	dword ptr [ebp - 8]             # 4-byte Folded Reload
	fstp	dword ptr [ebp - 4]
.LBB30_8:
	fld	dword ptr [ebp - 4]
	add	esp, 8
	pop	ebp
	.cfi_def_cfa esp, 4
	fldz
	fldz
	fldz
	fldz
	fldz
	fldz
	fldz
	fstp	st(0)
	fstp	st(0)
	fstp	st(0)
	fstp	st(0)
	fstp	st(0)
	fstp	st(0)
	fstp	st(0)
	xor	eax, eax
	xor	ecx, ecx
	xor	edx, edx
	jmp	__x86_return_thunk              # TAILCALL
.Lfunc_end30:
	.size	fdimf, .Lfunc_end30-fdimf
	.cfi_endproc
                                        # -- End function
	.globl	fmax                            # -- Begin function fmax
	.p2align	4, 0x90
	.type	fmax,@function
fmax:                                   # @fmax
	.cfi_startproc
# %bb.0:
	push	ebp
	.cfi_def_cfa_offset 8
	.cfi_offset ebp, -8
	mov	ebp, esp
	.cfi_def_cfa_register ebp
	and	esp, -8
	sub	esp, 40
	fld	qword ptr [ebp + 16]
	fld	qword ptr [ebp + 8]
	fstp	qword ptr [esp + 24]
	fstp	qword ptr [esp + 16]
	mov	eax, dword ptr [.L__profc_fmax]
	add	eax, 1
	adc	dword ptr [.L__profc_fmax+4], 0
	mov	dword ptr [.L__profc_fmax], eax
	fld	qword ptr [esp + 24]
	fucomp	st(0)
	fnstsw	ax
                                        # kill: def $ah killed $ah killed $ax
	sahf
	setp	al
	test	al, 1
	jne	.LBB31_1
	jmp	.LBB31_2
.LBB31_1:
	mov	eax, dword ptr [.L__profc_fmax+8]
	add	eax, 1
	adc	dword ptr [.L__profc_fmax+12], 0
	mov	dword ptr [.L__profc_fmax+8], eax
	fld	qword ptr [esp + 16]
	fstp	qword ptr [esp + 32]
	jmp	.LBB31_13
.LBB31_2:
	fld	qword ptr [esp + 16]
	fucomp	st(0)
	fnstsw	ax
                                        # kill: def $ah killed $ah killed $ax
	sahf
	setp	al
	test	al, 1
	jne	.LBB31_3
	jmp	.LBB31_4
.LBB31_3:
	mov	eax, dword ptr [.L__profc_fmax+16]
	add	eax, 1
	adc	dword ptr [.L__profc_fmax+20], 0
	mov	dword ptr [.L__profc_fmax+16], eax
	fld	qword ptr [esp + 24]
	fstp	qword ptr [esp + 32]
	jmp	.LBB31_13
.LBB31_4:
	mov	eax, dword ptr [esp + 28]
	shr	eax, 31
	mov	ecx, dword ptr [esp + 20]
	shr	ecx, 31
                                        # kill: def $cl killed $cl killed $ecx
	and	cl, 1
	movzx	ecx, cl
	cmp	eax, ecx
	je	.LBB31_9
# %bb.5:
	mov	eax, dword ptr [.L__profc_fmax+24]
	add	eax, 1
	adc	dword ptr [.L__profc_fmax+28], 0
	mov	dword ptr [.L__profc_fmax+24], eax
	mov	eax, dword ptr [esp + 28]
	test	eax, eax
	jns	.LBB31_7
	jmp	.LBB31_6
.LBB31_6:
	mov	eax, dword ptr [.L__profc_fmax+32]
	add	eax, 1
	adc	dword ptr [.L__profc_fmax+36], 0
	mov	dword ptr [.L__profc_fmax+32], eax
	fld	qword ptr [esp + 16]
	fstp	qword ptr [esp + 8]             # 8-byte Folded Spill
	jmp	.LBB31_8
.LBB31_7:
	fld	qword ptr [esp + 24]
	fstp	qword ptr [esp + 8]             # 8-byte Folded Spill
.LBB31_8:
	fld	qword ptr [esp + 8]             # 8-byte Folded Reload
	fstp	qword ptr [esp + 32]
	jmp	.LBB31_13
.LBB31_9:
	fld	qword ptr [esp + 24]
	fld	qword ptr [esp + 16]
	fucompp
	fnstsw	ax
                                        # kill: def $ah killed $ah killed $ax
	sahf
	jbe	.LBB31_11
	jmp	.LBB31_10
.LBB31_10:
	mov	eax, dword ptr [.L__profc_fmax+40]
	add	eax, 1
	adc	dword ptr [.L__profc_fmax+44], 0
	mov	dword ptr [.L__profc_fmax+40], eax
	fld	qword ptr [esp + 16]
	fstp	qword ptr [esp]                 # 8-byte Folded Spill
	jmp	.LBB31_12
.LBB31_11:
	fld	qword ptr [esp + 24]
	fstp	qword ptr [esp]                 # 8-byte Folded Spill
.LBB31_12:
	fld	qword ptr [esp]                 # 8-byte Folded Reload
	fstp	qword ptr [esp + 32]
.LBB31_13:
	fld	qword ptr [esp + 32]
	mov	esp, ebp
	pop	ebp
	.cfi_def_cfa esp, 4
	fldz
	fldz
	fldz
	fldz
	fldz
	fldz
	fldz
	fstp	st(0)
	fstp	st(0)
	fstp	st(0)
	fstp	st(0)
	fstp	st(0)
	fstp	st(0)
	fstp	st(0)
	xor	eax, eax
	xor	ecx, ecx
	xor	edx, edx
	jmp	__x86_return_thunk              # TAILCALL
.Lfunc_end31:
	.size	fmax, .Lfunc_end31-fmax
	.cfi_endproc
                                        # -- End function
	.globl	fmaxf                           # -- Begin function fmaxf
	.p2align	4, 0x90
	.type	fmaxf,@function
fmaxf:                                  # @fmaxf
	.cfi_startproc
# %bb.0:
	push	ebp
	.cfi_def_cfa_offset 8
	.cfi_offset ebp, -8
	mov	ebp, esp
	.cfi_def_cfa_register ebp
	sub	esp, 20
	fld	dword ptr [ebp + 12]
	fstp	st(0)
	fld	dword ptr [ebp + 8]
	fstp	st(0)
	mov	eax, dword ptr [.L__profc_fmaxf]
	add	eax, 1
	adc	dword ptr [.L__profc_fmaxf+4], 0
	mov	dword ptr [.L__profc_fmaxf], eax
	fld	dword ptr [ebp + 8]
	fucomp	st(0)
	fnstsw	ax
                                        # kill: def $ah killed $ah killed $ax
	sahf
	setp	al
	test	al, 1
	jne	.LBB32_1
	jmp	.LBB32_2
.LBB32_1:
	mov	eax, dword ptr [.L__profc_fmaxf+8]
	add	eax, 1
	adc	dword ptr [.L__profc_fmaxf+12], 0
	mov	dword ptr [.L__profc_fmaxf+8], eax
	fld	dword ptr [ebp + 12]
	fstp	dword ptr [ebp - 4]
	jmp	.LBB32_13
.LBB32_2:
	fld	dword ptr [ebp + 12]
	fucomp	st(0)
	fnstsw	ax
                                        # kill: def $ah killed $ah killed $ax
	sahf
	setp	al
	test	al, 1
	jne	.LBB32_3
	jmp	.LBB32_4
.LBB32_3:
	mov	eax, dword ptr [.L__profc_fmaxf+16]
	add	eax, 1
	adc	dword ptr [.L__profc_fmaxf+20], 0
	mov	dword ptr [.L__profc_fmaxf+16], eax
	fld	dword ptr [ebp + 8]
	fstp	dword ptr [ebp - 4]
	jmp	.LBB32_13
.LBB32_4:
	mov	eax, dword ptr [ebp + 8]
	shr	eax, 31
	fld	dword ptr [ebp + 12]
	fstp	dword ptr [ebp - 8]
	mov	ecx, dword ptr [ebp - 8]
	cmp	ecx, 0
	setl	cl
	and	cl, 1
	movzx	ecx, cl
	cmp	eax, ecx
	je	.LBB32_9
# %bb.5:
	mov	eax, dword ptr [.L__profc_fmaxf+24]
	add	eax, 1
	adc	dword ptr [.L__profc_fmaxf+28], 0
	mov	dword ptr [.L__profc_fmaxf+24], eax
	fld	dword ptr [ebp + 8]
	fstp	dword ptr [ebp - 12]
	mov	eax, dword ptr [ebp - 12]
	cmp	eax, 0
	jge	.LBB32_7
# %bb.6:
	mov	eax, dword ptr [.L__profc_fmaxf+32]
	add	eax, 1
	adc	dword ptr [.L__profc_fmaxf+36], 0
	mov	dword ptr [.L__profc_fmaxf+32], eax
	fld	dword ptr [ebp + 12]
	fstp	dword ptr [ebp - 16]            # 4-byte Folded Spill
	jmp	.LBB32_8
.LBB32_7:
	fld	dword ptr [ebp + 8]
	fstp	dword ptr [ebp - 16]            # 4-byte Folded Spill
.LBB32_8:
	fld	dword ptr [ebp - 16]            # 4-byte Folded Reload
	fstp	dword ptr [ebp - 4]
	jmp	.LBB32_13
.LBB32_9:
	fld	dword ptr [ebp + 8]
	fld	dword ptr [ebp + 12]
	fucompp
	fnstsw	ax
                                        # kill: def $ah killed $ah killed $ax
	sahf
	jbe	.LBB32_11
	jmp	.LBB32_10
.LBB32_10:
	mov	eax, dword ptr [.L__profc_fmaxf+40]
	add	eax, 1
	adc	dword ptr [.L__profc_fmaxf+44], 0
	mov	dword ptr [.L__profc_fmaxf+40], eax
	fld	dword ptr [ebp + 12]
	fstp	dword ptr [ebp - 20]            # 4-byte Folded Spill
	jmp	.LBB32_12
.LBB32_11:
	fld	dword ptr [ebp + 8]
	fstp	dword ptr [ebp - 20]            # 4-byte Folded Spill
.LBB32_12:
	fld	dword ptr [ebp - 20]            # 4-byte Folded Reload
	fstp	dword ptr [ebp - 4]
.LBB32_13:
	fld	dword ptr [ebp - 4]
	add	esp, 20
	pop	ebp
	.cfi_def_cfa esp, 4
	fldz
	fldz
	fldz
	fldz
	fldz
	fldz
	fldz
	fstp	st(0)
	fstp	st(0)
	fstp	st(0)
	fstp	st(0)
	fstp	st(0)
	fstp	st(0)
	fstp	st(0)
	xor	eax, eax
	xor	ecx, ecx
	xor	edx, edx
	jmp	__x86_return_thunk              # TAILCALL
.Lfunc_end32:
	.size	fmaxf, .Lfunc_end32-fmaxf
	.cfi_endproc
                                        # -- End function
	.globl	fmaxl                           # -- Begin function fmaxl
	.p2align	4, 0x90
	.type	fmaxl,@function
fmaxl:                                  # @fmaxl
	.cfi_startproc
# %bb.0:
	push	ebp
	.cfi_def_cfa_offset 8
	.cfi_offset ebp, -8
	mov	ebp, esp
	.cfi_def_cfa_register ebp
	sub	esp, 60
	fld	tbyte ptr [ebp + 20]
	fld	tbyte ptr [ebp + 8]
	fstp	tbyte ptr [ebp - 24]
	fstp	tbyte ptr [ebp - 36]
	mov	eax, dword ptr [.L__profc_fmaxl]
	add	eax, 1
	adc	dword ptr [.L__profc_fmaxl+4], 0
	mov	dword ptr [.L__profc_fmaxl], eax
	fld	tbyte ptr [ebp - 24]
	fucomp	st(0)
	fnstsw	ax
                                        # kill: def $ah killed $ah killed $ax
	sahf
	setp	al
	test	al, 1
	jne	.LBB33_1
	jmp	.LBB33_2
.LBB33_1:
	mov	eax, dword ptr [.L__profc_fmaxl+8]
	add	eax, 1
	adc	dword ptr [.L__profc_fmaxl+12], 0
	mov	dword ptr [.L__profc_fmaxl+8], eax
	fld	tbyte ptr [ebp - 36]
	fstp	tbyte ptr [ebp - 12]
	jmp	.LBB33_13
.LBB33_2:
	fld	tbyte ptr [ebp - 36]
	fucomp	st(0)
	fnstsw	ax
                                        # kill: def $ah killed $ah killed $ax
	sahf
	setp	al
	test	al, 1
	jne	.LBB33_3
	jmp	.LBB33_4
.LBB33_3:
	mov	eax, dword ptr [.L__profc_fmaxl+16]
	add	eax, 1
	adc	dword ptr [.L__profc_fmaxl+20], 0
	mov	dword ptr [.L__profc_fmaxl+16], eax
	fld	tbyte ptr [ebp - 24]
	fstp	tbyte ptr [ebp - 12]
	jmp	.LBB33_13
.LBB33_4:
	movzx	eax, word ptr [ebp - 16]
	shr	eax, 15
	movzx	ecx, word ptr [ebp - 28]
	shr	ecx, 15
                                        # kill: def $cl killed $cl killed $ecx
	and	cl, 1
	movzx	ecx, cl
	cmp	eax, ecx
	je	.LBB33_9
# %bb.5:
	mov	eax, dword ptr [.L__profc_fmaxl+24]
	add	eax, 1
	adc	dword ptr [.L__profc_fmaxl+28], 0
	mov	dword ptr [.L__profc_fmaxl+24], eax
	movzx	eax, word ptr [ebp - 16]
	test	eax, 32768
	je	.LBB33_7
	jmp	.LBB33_6
.LBB33_6:
	mov	eax, dword ptr [.L__profc_fmaxl+32]
	add	eax, 1
	adc	dword ptr [.L__profc_fmaxl+36], 0
	mov	dword ptr [.L__profc_fmaxl+32], eax
	fld	tbyte ptr [ebp - 36]
	fstp	tbyte ptr [ebp - 48]            # 10-byte Folded Spill
	jmp	.LBB33_8
.LBB33_7:
	fld	tbyte ptr [ebp - 24]
	fstp	tbyte ptr [ebp - 48]            # 10-byte Folded Spill
.LBB33_8:
	fld	tbyte ptr [ebp - 48]            # 10-byte Folded Reload
	fstp	tbyte ptr [ebp - 12]
	jmp	.LBB33_13
.LBB33_9:
	fld	tbyte ptr [ebp - 24]
	fld	tbyte ptr [ebp - 36]
	fucompp
	fnstsw	ax
                                        # kill: def $ah killed $ah killed $ax
	sahf
	jbe	.LBB33_11
	jmp	.LBB33_10
.LBB33_10:
	mov	eax, dword ptr [.L__profc_fmaxl+40]
	add	eax, 1
	adc	dword ptr [.L__profc_fmaxl+44], 0
	mov	dword ptr [.L__profc_fmaxl+40], eax
	fld	tbyte ptr [ebp - 36]
	fstp	tbyte ptr [ebp - 60]            # 10-byte Folded Spill
	jmp	.LBB33_12
.LBB33_11:
	fld	tbyte ptr [ebp - 24]
	fstp	tbyte ptr [ebp - 60]            # 10-byte Folded Spill
.LBB33_12:
	fld	tbyte ptr [ebp - 60]            # 10-byte Folded Reload
	fstp	tbyte ptr [ebp - 12]
.LBB33_13:
	fld	tbyte ptr [ebp - 12]
	add	esp, 60
	pop	ebp
	.cfi_def_cfa esp, 4
	fldz
	fldz
	fldz
	fldz
	fldz
	fldz
	fldz
	fstp	st(0)
	fstp	st(0)
	fstp	st(0)
	fstp	st(0)
	fstp	st(0)
	fstp	st(0)
	fstp	st(0)
	xor	eax, eax
	xor	ecx, ecx
	xor	edx, edx
	jmp	__x86_return_thunk              # TAILCALL
.Lfunc_end33:
	.size	fmaxl, .Lfunc_end33-fmaxl
	.cfi_endproc
                                        # -- End function
	.globl	fmin                            # -- Begin function fmin
	.p2align	4, 0x90
	.type	fmin,@function
fmin:                                   # @fmin
	.cfi_startproc
# %bb.0:
	push	ebp
	.cfi_def_cfa_offset 8
	.cfi_offset ebp, -8
	mov	ebp, esp
	.cfi_def_cfa_register ebp
	and	esp, -8
	sub	esp, 40
	fld	qword ptr [ebp + 16]
	fld	qword ptr [ebp + 8]
	fstp	qword ptr [esp + 24]
	fstp	qword ptr [esp + 16]
	mov	eax, dword ptr [.L__profc_fmin]
	add	eax, 1
	adc	dword ptr [.L__profc_fmin+4], 0
	mov	dword ptr [.L__profc_fmin], eax
	fld	qword ptr [esp + 24]
	fucomp	st(0)
	fnstsw	ax
                                        # kill: def $ah killed $ah killed $ax
	sahf
	setp	al
	test	al, 1
	jne	.LBB34_1
	jmp	.LBB34_2
.LBB34_1:
	mov	eax, dword ptr [.L__profc_fmin+8]
	add	eax, 1
	adc	dword ptr [.L__profc_fmin+12], 0
	mov	dword ptr [.L__profc_fmin+8], eax
	fld	qword ptr [esp + 16]
	fstp	qword ptr [esp + 32]
	jmp	.LBB34_13
.LBB34_2:
	fld	qword ptr [esp + 16]
	fucomp	st(0)
	fnstsw	ax
                                        # kill: def $ah killed $ah killed $ax
	sahf
	setp	al
	test	al, 1
	jne	.LBB34_3
	jmp	.LBB34_4
.LBB34_3:
	mov	eax, dword ptr [.L__profc_fmin+16]
	add	eax, 1
	adc	dword ptr [.L__profc_fmin+20], 0
	mov	dword ptr [.L__profc_fmin+16], eax
	fld	qword ptr [esp + 24]
	fstp	qword ptr [esp + 32]
	jmp	.LBB34_13
.LBB34_4:
	mov	eax, dword ptr [esp + 28]
	shr	eax, 31
	mov	ecx, dword ptr [esp + 20]
	shr	ecx, 31
                                        # kill: def $cl killed $cl killed $ecx
	and	cl, 1
	movzx	ecx, cl
	cmp	eax, ecx
	je	.LBB34_9
# %bb.5:
	mov	eax, dword ptr [.L__profc_fmin+24]
	add	eax, 1
	adc	dword ptr [.L__profc_fmin+28], 0
	mov	dword ptr [.L__profc_fmin+24], eax
	mov	eax, dword ptr [esp + 28]
	test	eax, eax
	jns	.LBB34_7
	jmp	.LBB34_6
.LBB34_6:
	mov	eax, dword ptr [.L__profc_fmin+32]
	add	eax, 1
	adc	dword ptr [.L__profc_fmin+36], 0
	mov	dword ptr [.L__profc_fmin+32], eax
	fld	qword ptr [esp + 24]
	fstp	qword ptr [esp + 8]             # 8-byte Folded Spill
	jmp	.LBB34_8
.LBB34_7:
	fld	qword ptr [esp + 16]
	fstp	qword ptr [esp + 8]             # 8-byte Folded Spill
.LBB34_8:
	fld	qword ptr [esp + 8]             # 8-byte Folded Reload
	fstp	qword ptr [esp + 32]
	jmp	.LBB34_13
.LBB34_9:
	fld	qword ptr [esp + 24]
	fld	qword ptr [esp + 16]
	fucompp
	fnstsw	ax
                                        # kill: def $ah killed $ah killed $ax
	sahf
	jbe	.LBB34_11
	jmp	.LBB34_10
.LBB34_10:
	mov	eax, dword ptr [.L__profc_fmin+40]
	add	eax, 1
	adc	dword ptr [.L__profc_fmin+44], 0
	mov	dword ptr [.L__profc_fmin+40], eax
	fld	qword ptr [esp + 24]
	fstp	qword ptr [esp]                 # 8-byte Folded Spill
	jmp	.LBB34_12
.LBB34_11:
	fld	qword ptr [esp + 16]
	fstp	qword ptr [esp]                 # 8-byte Folded Spill
.LBB34_12:
	fld	qword ptr [esp]                 # 8-byte Folded Reload
	fstp	qword ptr [esp + 32]
.LBB34_13:
	fld	qword ptr [esp + 32]
	mov	esp, ebp
	pop	ebp
	.cfi_def_cfa esp, 4
	fldz
	fldz
	fldz
	fldz
	fldz
	fldz
	fldz
	fstp	st(0)
	fstp	st(0)
	fstp	st(0)
	fstp	st(0)
	fstp	st(0)
	fstp	st(0)
	fstp	st(0)
	xor	eax, eax
	xor	ecx, ecx
	xor	edx, edx
	jmp	__x86_return_thunk              # TAILCALL
.Lfunc_end34:
	.size	fmin, .Lfunc_end34-fmin
	.cfi_endproc
                                        # -- End function
	.globl	fminf                           # -- Begin function fminf
	.p2align	4, 0x90
	.type	fminf,@function
fminf:                                  # @fminf
	.cfi_startproc
# %bb.0:
	push	ebp
	.cfi_def_cfa_offset 8
	.cfi_offset ebp, -8
	mov	ebp, esp
	.cfi_def_cfa_register ebp
	sub	esp, 20
	fld	dword ptr [ebp + 12]
	fstp	st(0)
	fld	dword ptr [ebp + 8]
	fstp	st(0)
	mov	eax, dword ptr [.L__profc_fminf]
	add	eax, 1
	adc	dword ptr [.L__profc_fminf+4], 0
	mov	dword ptr [.L__profc_fminf], eax
	fld	dword ptr [ebp + 8]
	fucomp	st(0)
	fnstsw	ax
                                        # kill: def $ah killed $ah killed $ax
	sahf
	setp	al
	test	al, 1
	jne	.LBB35_1
	jmp	.LBB35_2
.LBB35_1:
	mov	eax, dword ptr [.L__profc_fminf+8]
	add	eax, 1
	adc	dword ptr [.L__profc_fminf+12], 0
	mov	dword ptr [.L__profc_fminf+8], eax
	fld	dword ptr [ebp + 12]
	fstp	dword ptr [ebp - 4]
	jmp	.LBB35_13
.LBB35_2:
	fld	dword ptr [ebp + 12]
	fucomp	st(0)
	fnstsw	ax
                                        # kill: def $ah killed $ah killed $ax
	sahf
	setp	al
	test	al, 1
	jne	.LBB35_3
	jmp	.LBB35_4
.LBB35_3:
	mov	eax, dword ptr [.L__profc_fminf+16]
	add	eax, 1
	adc	dword ptr [.L__profc_fminf+20], 0
	mov	dword ptr [.L__profc_fminf+16], eax
	fld	dword ptr [ebp + 8]
	fstp	dword ptr [ebp - 4]
	jmp	.LBB35_13
.LBB35_4:
	mov	eax, dword ptr [ebp + 8]
	shr	eax, 31
	fld	dword ptr [ebp + 12]
	fstp	dword ptr [ebp - 8]
	mov	ecx, dword ptr [ebp - 8]
	cmp	ecx, 0
	setl	cl
	and	cl, 1
	movzx	ecx, cl
	cmp	eax, ecx
	je	.LBB35_9
# %bb.5:
	mov	eax, dword ptr [.L__profc_fminf+24]
	add	eax, 1
	adc	dword ptr [.L__profc_fminf+28], 0
	mov	dword ptr [.L__profc_fminf+24], eax
	fld	dword ptr [ebp + 8]
	fstp	dword ptr [ebp - 12]
	mov	eax, dword ptr [ebp - 12]
	cmp	eax, 0
	jge	.LBB35_7
# %bb.6:
	mov	eax, dword ptr [.L__profc_fminf+32]
	add	eax, 1
	adc	dword ptr [.L__profc_fminf+36], 0
	mov	dword ptr [.L__profc_fminf+32], eax
	fld	dword ptr [ebp + 8]
	fstp	dword ptr [ebp - 16]            # 4-byte Folded Spill
	jmp	.LBB35_8
.LBB35_7:
	fld	dword ptr [ebp + 12]
	fstp	dword ptr [ebp - 16]            # 4-byte Folded Spill
.LBB35_8:
	fld	dword ptr [ebp - 16]            # 4-byte Folded Reload
	fstp	dword ptr [ebp - 4]
	jmp	.LBB35_13
.LBB35_9:
	fld	dword ptr [ebp + 8]
	fld	dword ptr [ebp + 12]
	fucompp
	fnstsw	ax
                                        # kill: def $ah killed $ah killed $ax
	sahf
	jbe	.LBB35_11
	jmp	.LBB35_10
.LBB35_10:
	mov	eax, dword ptr [.L__profc_fminf+40]
	add	eax, 1
	adc	dword ptr [.L__profc_fminf+44], 0
	mov	dword ptr [.L__profc_fminf+40], eax
	fld	dword ptr [ebp + 8]
	fstp	dword ptr [ebp - 20]            # 4-byte Folded Spill
	jmp	.LBB35_12
.LBB35_11:
	fld	dword ptr [ebp + 12]
	fstp	dword ptr [ebp - 20]            # 4-byte Folded Spill
.LBB35_12:
	fld	dword ptr [ebp - 20]            # 4-byte Folded Reload
	fstp	dword ptr [ebp - 4]
.LBB35_13:
	fld	dword ptr [ebp - 4]
	add	esp, 20
	pop	ebp
	.cfi_def_cfa esp, 4
	fldz
	fldz
	fldz
	fldz
	fldz
	fldz
	fldz
	fstp	st(0)
	fstp	st(0)
	fstp	st(0)
	fstp	st(0)
	fstp	st(0)
	fstp	st(0)
	fstp	st(0)
	xor	eax, eax
	xor	ecx, ecx
	xor	edx, edx
	jmp	__x86_return_thunk              # TAILCALL
.Lfunc_end35:
	.size	fminf, .Lfunc_end35-fminf
	.cfi_endproc
                                        # -- End function
	.globl	fminl                           # -- Begin function fminl
	.p2align	4, 0x90
	.type	fminl,@function
fminl:                                  # @fminl
	.cfi_startproc
# %bb.0:
	push	ebp
	.cfi_def_cfa_offset 8
	.cfi_offset ebp, -8
	mov	ebp, esp
	.cfi_def_cfa_register ebp
	sub	esp, 60
	fld	tbyte ptr [ebp + 20]
	fld	tbyte ptr [ebp + 8]
	fstp	tbyte ptr [ebp - 24]
	fstp	tbyte ptr [ebp - 36]
	mov	eax, dword ptr [.L__profc_fminl]
	add	eax, 1
	adc	dword ptr [.L__profc_fminl+4], 0
	mov	dword ptr [.L__profc_fminl], eax
	fld	tbyte ptr [ebp - 24]
	fucomp	st(0)
	fnstsw	ax
                                        # kill: def $ah killed $ah killed $ax
	sahf
	setp	al
	test	al, 1
	jne	.LBB36_1
	jmp	.LBB36_2
.LBB36_1:
	mov	eax, dword ptr [.L__profc_fminl+8]
	add	eax, 1
	adc	dword ptr [.L__profc_fminl+12], 0
	mov	dword ptr [.L__profc_fminl+8], eax
	fld	tbyte ptr [ebp - 36]
	fstp	tbyte ptr [ebp - 12]
	jmp	.LBB36_13
.LBB36_2:
	fld	tbyte ptr [ebp - 36]
	fucomp	st(0)
	fnstsw	ax
                                        # kill: def $ah killed $ah killed $ax
	sahf
	setp	al
	test	al, 1
	jne	.LBB36_3
	jmp	.LBB36_4
.LBB36_3:
	mov	eax, dword ptr [.L__profc_fminl+16]
	add	eax, 1
	adc	dword ptr [.L__profc_fminl+20], 0
	mov	dword ptr [.L__profc_fminl+16], eax
	fld	tbyte ptr [ebp - 24]
	fstp	tbyte ptr [ebp - 12]
	jmp	.LBB36_13
.LBB36_4:
	movzx	eax, word ptr [ebp - 16]
	shr	eax, 15
	movzx	ecx, word ptr [ebp - 28]
	shr	ecx, 15
                                        # kill: def $cl killed $cl killed $ecx
	and	cl, 1
	movzx	ecx, cl
	cmp	eax, ecx
	je	.LBB36_9
# %bb.5:
	mov	eax, dword ptr [.L__profc_fminl+24]
	add	eax, 1
	adc	dword ptr [.L__profc_fminl+28], 0
	mov	dword ptr [.L__profc_fminl+24], eax
	movzx	eax, word ptr [ebp - 16]
	test	eax, 32768
	je	.LBB36_7
	jmp	.LBB36_6
.LBB36_6:
	mov	eax, dword ptr [.L__profc_fminl+32]
	add	eax, 1
	adc	dword ptr [.L__profc_fminl+36], 0
	mov	dword ptr [.L__profc_fminl+32], eax
	fld	tbyte ptr [ebp - 24]
	fstp	tbyte ptr [ebp - 48]            # 10-byte Folded Spill
	jmp	.LBB36_8
.LBB36_7:
	fld	tbyte ptr [ebp - 36]
	fstp	tbyte ptr [ebp - 48]            # 10-byte Folded Spill
.LBB36_8:
	fld	tbyte ptr [ebp - 48]            # 10-byte Folded Reload
	fstp	tbyte ptr [ebp - 12]
	jmp	.LBB36_13
.LBB36_9:
	fld	tbyte ptr [ebp - 24]
	fld	tbyte ptr [ebp - 36]
	fucompp
	fnstsw	ax
                                        # kill: def $ah killed $ah killed $ax
	sahf
	jbe	.LBB36_11
	jmp	.LBB36_10
.LBB36_10:
	mov	eax, dword ptr [.L__profc_fminl+40]
	add	eax, 1
	adc	dword ptr [.L__profc_fminl+44], 0
	mov	dword ptr [.L__profc_fminl+40], eax
	fld	tbyte ptr [ebp - 24]
	fstp	tbyte ptr [ebp - 60]            # 10-byte Folded Spill
	jmp	.LBB36_12
.LBB36_11:
	fld	tbyte ptr [ebp - 36]
	fstp	tbyte ptr [ebp - 60]            # 10-byte Folded Spill
.LBB36_12:
	fld	tbyte ptr [ebp - 60]            # 10-byte Folded Reload
	fstp	tbyte ptr [ebp - 12]
.LBB36_13:
	fld	tbyte ptr [ebp - 12]
	add	esp, 60
	pop	ebp
	.cfi_def_cfa esp, 4
	fldz
	fldz
	fldz
	fldz
	fldz
	fldz
	fldz
	fstp	st(0)
	fstp	st(0)
	fstp	st(0)
	fstp	st(0)
	fstp	st(0)
	fstp	st(0)
	fstp	st(0)
	xor	eax, eax
	xor	ecx, ecx
	xor	edx, edx
	jmp	__x86_return_thunk              # TAILCALL
.Lfunc_end36:
	.size	fminl, .Lfunc_end36-fminl
	.cfi_endproc
                                        # -- End function
	.globl	l64a                            # -- Begin function l64a
	.p2align	4, 0x90
	.type	l64a,@function
l64a:                                   # @l64a
	.cfi_startproc
# %bb.0:
	push	ebp
	.cfi_def_cfa_offset 8
	.cfi_offset ebp, -8
	mov	ebp, esp
	.cfi_def_cfa_register ebp
	sub	esp, 8
	mov	eax, dword ptr [ebp + 8]
	mov	eax, dword ptr [.L__profc_l64a]
	add	eax, 1
	adc	dword ptr [.L__profc_l64a+4], 0
	mov	dword ptr [.L__profc_l64a], eax
	mov	eax, dword ptr [ebp + 8]
	mov	dword ptr [ebp - 8], eax
	lea	eax, [l64a.s]
	mov	dword ptr [ebp - 4], eax
.LBB37_1:                               # =>This Inner Loop Header: Depth=1
	cmp	dword ptr [ebp - 8], 0
	je	.LBB37_4
# %bb.2:                                #   in Loop: Header=BB37_1 Depth=1
	mov	eax, dword ptr [.L__profc_l64a+8]
	add	eax, 1
	adc	dword ptr [.L__profc_l64a+12], 0
	mov	dword ptr [.L__profc_l64a+8], eax
	mov	eax, dword ptr [ebp - 8]
	and	eax, 63
	mov	cl, byte ptr [1*eax + digits]
	mov	eax, dword ptr [ebp - 4]
	mov	byte ptr [eax], cl
# %bb.3:                                #   in Loop: Header=BB37_1 Depth=1
	mov	eax, dword ptr [ebp - 4]
	add	eax, 1
	mov	dword ptr [ebp - 4], eax
	mov	eax, dword ptr [ebp - 8]
	shr	eax, 6
	mov	dword ptr [ebp - 8], eax
	jmp	.LBB37_1
.LBB37_4:
	mov	eax, dword ptr [ebp - 4]
	mov	byte ptr [eax], 0
	lea	eax, [l64a.s]
	add	esp, 8
	pop	ebp
	.cfi_def_cfa esp, 4
	fldz
	fldz
	fldz
	fldz
	fldz
	fldz
	fldz
	fstp	st(0)
	fstp	st(0)
	fstp	st(0)
	fstp	st(0)
	fstp	st(0)
	fstp	st(0)
	fstp	st(0)
	xor	ecx, ecx
	xor	edx, edx
	jmp	__x86_return_thunk              # TAILCALL
.Lfunc_end37:
	.size	l64a, .Lfunc_end37-l64a
	.cfi_endproc
                                        # -- End function
	.globl	srand                           # -- Begin function srand
	.p2align	4, 0x90
	.type	srand,@function
srand:                                  # @srand
	.cfi_startproc
# %bb.0:
	push	ebp
	.cfi_def_cfa_offset 8
	.cfi_offset ebp, -8
	mov	ebp, esp
	.cfi_def_cfa_register ebp
	mov	eax, dword ptr [ebp + 8]
	mov	eax, dword ptr [.L__profc_srand]
	add	eax, 1
	adc	dword ptr [.L__profc_srand+4], 0
	mov	dword ptr [.L__profc_srand], eax
	mov	eax, dword ptr [ebp + 8]
	dec	eax
	mov	dword ptr [seed], eax
	mov	dword ptr [seed+4], 0
	pop	ebp
	.cfi_def_cfa esp, 4
	fldz
	fldz
	fldz
	fldz
	fldz
	fldz
	fldz
	fstp	st(0)
	fstp	st(0)
	fstp	st(0)
	fstp	st(0)
	fstp	st(0)
	fstp	st(0)
	fstp	st(0)
	xor	eax, eax
	xor	ecx, ecx
	xor	edx, edx
	jmp	__x86_return_thunk              # TAILCALL
.Lfunc_end38:
	.size	srand, .Lfunc_end38-srand
	.cfi_endproc
                                        # -- End function
	.globl	rand                            # -- Begin function rand
	.p2align	4, 0x90
	.type	rand,@function
rand:                                   # @rand
	.cfi_startproc
# %bb.0:
	push	ebp
	.cfi_def_cfa_offset 8
	.cfi_offset ebp, -8
	mov	ebp, esp
	.cfi_def_cfa_register ebp
	push	esi
	push	eax
	.cfi_offset esi, -12
	mov	eax, dword ptr [.L__profc_rand]
	add	eax, 1
	adc	dword ptr [.L__profc_rand+4], 0
	mov	dword ptr [.L__profc_rand], eax
	mov	eax, dword ptr [seed+4]
	mov	dword ptr [ebp - 8], eax        # 4-byte Spill
	mov	esi, dword ptr [seed]
	mov	ecx, 1284865837
	mov	eax, esi
	mul	ecx
	mov	ecx, eax
	mov	eax, edx
	mov	edx, dword ptr [ebp - 8]        # 4-byte Reload
	imul	esi, esi, 1481765933
	add	eax, esi
	imul	edx, edx, 1284865837
	add	ecx, 1
	adc	eax, edx
	mov	dword ptr [seed], ecx
	mov	dword ptr [seed+4], eax
	mov	eax, dword ptr [seed+4]
	shr	eax
	add	esp, 4
	pop	esi
	pop	ebp
	.cfi_def_cfa esp, 4
	fldz
	fldz
	fldz
	fldz
	fldz
	fldz
	fldz
	fstp	st(0)
	fstp	st(0)
	fstp	st(0)
	fstp	st(0)
	fstp	st(0)
	fstp	st(0)
	fstp	st(0)
	xor	ecx, ecx
	xor	edx, edx
	jmp	__x86_return_thunk              # TAILCALL
.Lfunc_end39:
	.size	rand, .Lfunc_end39-rand
	.cfi_endproc
                                        # -- End function
	.globl	insque                          # -- Begin function insque
	.p2align	4, 0x90
	.type	insque,@function
insque:                                 # @insque
	.cfi_startproc
# %bb.0:
	push	ebp
	.cfi_def_cfa_offset 8
	.cfi_offset ebp, -8
	mov	ebp, esp
	.cfi_def_cfa_register ebp
	sub	esp, 8
	mov	eax, dword ptr [ebp + 12]
	mov	eax, dword ptr [ebp + 8]
	mov	eax, dword ptr [.L__profc_insque]
	add	eax, 1
	adc	dword ptr [.L__profc_insque+4], 0
	mov	dword ptr [.L__profc_insque], eax
	mov	eax, dword ptr [ebp + 8]
	mov	dword ptr [ebp - 4], eax
	mov	eax, dword ptr [ebp + 12]
	mov	dword ptr [ebp - 8], eax
	cmp	dword ptr [ebp - 8], 0
	jne	.LBB40_2
# %bb.1:
	mov	eax, dword ptr [.L__profc_insque+8]
	add	eax, 1
	adc	dword ptr [.L__profc_insque+12], 0
	mov	dword ptr [.L__profc_insque+8], eax
	mov	eax, dword ptr [ebp - 4]
	mov	dword ptr [eax + 4], 0
	mov	eax, dword ptr [ebp - 4]
	mov	dword ptr [eax], 0
	jmp	.LBB40_4
.LBB40_2:
	mov	eax, dword ptr [ebp - 8]
	mov	ecx, dword ptr [eax]
	mov	eax, dword ptr [ebp - 4]
	mov	dword ptr [eax], ecx
	mov	ecx, dword ptr [ebp - 8]
	mov	eax, dword ptr [ebp - 4]
	mov	dword ptr [eax + 4], ecx
	mov	ecx, dword ptr [ebp - 4]
	mov	eax, dword ptr [ebp - 8]
	mov	dword ptr [eax], ecx
	mov	eax, dword ptr [ebp - 4]
	cmp	dword ptr [eax], 0
	je	.LBB40_4
# %bb.3:
	mov	eax, dword ptr [.L__profc_insque+16]
	add	eax, 1
	adc	dword ptr [.L__profc_insque+20], 0
	mov	dword ptr [.L__profc_insque+16], eax
	mov	ecx, dword ptr [ebp - 4]
	mov	eax, dword ptr [ebp - 4]
	mov	eax, dword ptr [eax]
	mov	dword ptr [eax + 4], ecx
.LBB40_4:
	add	esp, 8
	pop	ebp
	.cfi_def_cfa esp, 4
	fldz
	fldz
	fldz
	fldz
	fldz
	fldz
	fldz
	fstp	st(0)
	fstp	st(0)
	fstp	st(0)
	fstp	st(0)
	fstp	st(0)
	fstp	st(0)
	fstp	st(0)
	xor	eax, eax
	xor	ecx, ecx
	xor	edx, edx
	jmp	__x86_return_thunk              # TAILCALL
.Lfunc_end40:
	.size	insque, .Lfunc_end40-insque
	.cfi_endproc
                                        # -- End function
	.globl	remque                          # -- Begin function remque
	.p2align	4, 0x90
	.type	remque,@function
remque:                                 # @remque
	.cfi_startproc
# %bb.0:
	push	ebp
	.cfi_def_cfa_offset 8
	.cfi_offset ebp, -8
	mov	ebp, esp
	.cfi_def_cfa_register ebp
	push	eax
	mov	eax, dword ptr [ebp + 8]
	mov	eax, dword ptr [.L__profc_remque]
	add	eax, 1
	adc	dword ptr [.L__profc_remque+4], 0
	mov	dword ptr [.L__profc_remque], eax
	mov	eax, dword ptr [ebp + 8]
	mov	dword ptr [ebp - 4], eax
	mov	eax, dword ptr [ebp - 4]
	cmp	dword ptr [eax], 0
	je	.LBB41_2
# %bb.1:
	mov	eax, dword ptr [.L__profc_remque+8]
	add	eax, 1
	adc	dword ptr [.L__profc_remque+12], 0
	mov	dword ptr [.L__profc_remque+8], eax
	mov	eax, dword ptr [ebp - 4]
	mov	ecx, dword ptr [eax + 4]
	mov	eax, dword ptr [ebp - 4]
	mov	eax, dword ptr [eax]
	mov	dword ptr [eax + 4], ecx
.LBB41_2:
	mov	eax, dword ptr [ebp - 4]
	cmp	dword ptr [eax + 4], 0
	je	.LBB41_4
# %bb.3:
	mov	eax, dword ptr [.L__profc_remque+16]
	add	eax, 1
	adc	dword ptr [.L__profc_remque+20], 0
	mov	dword ptr [.L__profc_remque+16], eax
	mov	eax, dword ptr [ebp - 4]
	mov	ecx, dword ptr [eax]
	mov	eax, dword ptr [ebp - 4]
	mov	eax, dword ptr [eax + 4]
	mov	dword ptr [eax], ecx
.LBB41_4:
	add	esp, 4
	pop	ebp
	.cfi_def_cfa esp, 4
	fldz
	fldz
	fldz
	fldz
	fldz
	fldz
	fldz
	fstp	st(0)
	fstp	st(0)
	fstp	st(0)
	fstp	st(0)
	fstp	st(0)
	fstp	st(0)
	fstp	st(0)
	xor	eax, eax
	xor	ecx, ecx
	xor	edx, edx
	jmp	__x86_return_thunk              # TAILCALL
.Lfunc_end41:
	.size	remque, .Lfunc_end41-remque
	.cfi_endproc
                                        # -- End function
	.globl	lsearch                         # -- Begin function lsearch
	.p2align	4, 0x90
	.type	lsearch,@function
lsearch:                                # @lsearch
	.cfi_startproc
# %bb.0:
	push	ebp
	.cfi_def_cfa_offset 8
	.cfi_offset ebp, -8
	mov	ebp, esp
	.cfi_def_cfa_register ebp
	push	esi
	sub	esp, 36
	.cfi_offset esi, -12
	mov	eax, dword ptr [ebp + 24]
	mov	eax, dword ptr [ebp + 20]
	mov	eax, dword ptr [ebp + 16]
	mov	eax, dword ptr [ebp + 12]
	mov	eax, dword ptr [ebp + 8]
	mov	eax, dword ptr [.L__profc_lsearch]
	add	eax, 1
	adc	dword ptr [.L__profc_lsearch+4], 0
	mov	dword ptr [.L__profc_lsearch], eax
	mov	eax, dword ptr [ebp + 20]
	mov	dword ptr [ebp - 24], eax       # 4-byte Spill
	mov	eax, dword ptr [ebp + 12]
	mov	dword ptr [ebp - 12], eax
	mov	eax, dword ptr [ebp + 16]
	mov	eax, dword ptr [eax]
	mov	dword ptr [ebp - 16], eax
	mov	dword ptr [ebp - 20], 0
.LBB42_1:                               # =>This Inner Loop Header: Depth=1
	mov	eax, dword ptr [ebp - 20]
	cmp	eax, dword ptr [ebp - 16]
	jae	.LBB42_6
# %bb.2:                                #   in Loop: Header=BB42_1 Depth=1
	mov	esi, dword ptr [ebp - 24]       # 4-byte Reload
	mov	eax, dword ptr [.L__profc_lsearch+8]
	add	eax, 1
	adc	dword ptr [.L__profc_lsearch+12], 0
	mov	dword ptr [.L__profc_lsearch+8], eax
	mov	eax, dword ptr [ebp + 24]
	mov	edx, dword ptr [ebp + 8]
	mov	ecx, dword ptr [ebp - 12]
	imul	esi, dword ptr [ebp - 20]
	add	ecx, esi
	mov	dword ptr [esp], edx
	mov	dword ptr [esp + 4], ecx
	call	eax
	cmp	eax, 0
	jne	.LBB42_4
# %bb.3:
	mov	ecx, dword ptr [ebp - 24]       # 4-byte Reload
	mov	eax, dword ptr [.L__profc_lsearch+16]
	add	eax, 1
	adc	dword ptr [.L__profc_lsearch+20], 0
	mov	dword ptr [.L__profc_lsearch+16], eax
	mov	eax, dword ptr [ebp - 12]
	imul	ecx, dword ptr [ebp - 20]
	add	eax, ecx
	mov	dword ptr [ebp - 8], eax
	jmp	.LBB42_7
.LBB42_4:                               #   in Loop: Header=BB42_1 Depth=1
	jmp	.LBB42_5
.LBB42_5:                               #   in Loop: Header=BB42_1 Depth=1
	mov	eax, dword ptr [ebp - 20]
	add	eax, 1
	mov	dword ptr [ebp - 20], eax
	jmp	.LBB42_1
.LBB42_6:
	mov	eax, dword ptr [ebp - 24]       # 4-byte Reload
	mov	edx, dword ptr [ebp - 16]
	add	edx, 1
	mov	ecx, dword ptr [ebp + 16]
	mov	dword ptr [ecx], edx
	mov	edx, dword ptr [ebp - 12]
	imul	eax, dword ptr [ebp - 16]
	add	edx, eax
	mov	dword ptr [ebp - 28], edx       # 4-byte Spill
	mov	ecx, dword ptr [ebp + 8]
	mov	eax, dword ptr [ebp + 20]
	mov	dword ptr [esp], edx
	mov	dword ptr [esp + 4], ecx
	mov	dword ptr [esp + 8], eax
	call	memcpy
	mov	eax, dword ptr [ebp - 28]       # 4-byte Reload
	mov	dword ptr [ebp - 8], eax
.LBB42_7:
	mov	eax, dword ptr [ebp - 8]
	add	esp, 36
	pop	esi
	pop	ebp
	.cfi_def_cfa esp, 4
	fldz
	fldz
	fldz
	fldz
	fldz
	fldz
	fldz
	fstp	st(0)
	fstp	st(0)
	fstp	st(0)
	fstp	st(0)
	fstp	st(0)
	fstp	st(0)
	fstp	st(0)
	xor	ecx, ecx
	xor	edx, edx
	jmp	__x86_return_thunk              # TAILCALL
.Lfunc_end42:
	.size	lsearch, .Lfunc_end42-lsearch
	.cfi_endproc
                                        # -- End function
	.globl	lfind                           # -- Begin function lfind
	.p2align	4, 0x90
	.type	lfind,@function
lfind:                                  # @lfind
	.cfi_startproc
# %bb.0:
	push	ebp
	.cfi_def_cfa_offset 8
	.cfi_offset ebp, -8
	mov	ebp, esp
	.cfi_def_cfa_register ebp
	push	esi
	sub	esp, 28
	.cfi_offset esi, -12
	mov	eax, dword ptr [ebp + 24]
	mov	eax, dword ptr [ebp + 20]
	mov	eax, dword ptr [ebp + 16]
	mov	eax, dword ptr [ebp + 12]
	mov	eax, dword ptr [ebp + 8]
	mov	eax, dword ptr [.L__profc_lfind]
	add	eax, 1
	adc	dword ptr [.L__profc_lfind+4], 0
	mov	dword ptr [.L__profc_lfind], eax
	mov	eax, dword ptr [ebp + 20]
	mov	dword ptr [ebp - 24], eax       # 4-byte Spill
	mov	eax, dword ptr [ebp + 12]
	mov	dword ptr [ebp - 12], eax
	mov	eax, dword ptr [ebp + 16]
	mov	eax, dword ptr [eax]
	mov	dword ptr [ebp - 16], eax
	mov	dword ptr [ebp - 20], 0
.LBB43_1:                               # =>This Inner Loop Header: Depth=1
	mov	eax, dword ptr [ebp - 20]
	cmp	eax, dword ptr [ebp - 16]
	jae	.LBB43_6
# %bb.2:                                #   in Loop: Header=BB43_1 Depth=1
	mov	esi, dword ptr [ebp - 24]       # 4-byte Reload
	mov	eax, dword ptr [.L__profc_lfind+8]
	add	eax, 1
	adc	dword ptr [.L__profc_lfind+12], 0
	mov	dword ptr [.L__profc_lfind+8], eax
	mov	eax, dword ptr [ebp + 24]
	mov	edx, dword ptr [ebp + 8]
	mov	ecx, dword ptr [ebp - 12]
	imul	esi, dword ptr [ebp - 20]
	add	ecx, esi
	mov	dword ptr [esp], edx
	mov	dword ptr [esp + 4], ecx
	call	eax
	cmp	eax, 0
	jne	.LBB43_4
# %bb.3:
	mov	ecx, dword ptr [ebp - 24]       # 4-byte Reload
	mov	eax, dword ptr [.L__profc_lfind+16]
	add	eax, 1
	adc	dword ptr [.L__profc_lfind+20], 0
	mov	dword ptr [.L__profc_lfind+16], eax
	mov	eax, dword ptr [ebp - 12]
	imul	ecx, dword ptr [ebp - 20]
	add	eax, ecx
	mov	dword ptr [ebp - 8], eax
	jmp	.LBB43_7
.LBB43_4:                               #   in Loop: Header=BB43_1 Depth=1
	jmp	.LBB43_5
.LBB43_5:                               #   in Loop: Header=BB43_1 Depth=1
	mov	eax, dword ptr [ebp - 20]
	add	eax, 1
	mov	dword ptr [ebp - 20], eax
	jmp	.LBB43_1
.LBB43_6:
	mov	dword ptr [ebp - 8], 0
.LBB43_7:
	mov	eax, dword ptr [ebp - 8]
	add	esp, 28
	pop	esi
	pop	ebp
	.cfi_def_cfa esp, 4
	fldz
	fldz
	fldz
	fldz
	fldz
	fldz
	fldz
	fstp	st(0)
	fstp	st(0)
	fstp	st(0)
	fstp	st(0)
	fstp	st(0)
	fstp	st(0)
	fstp	st(0)
	xor	ecx, ecx
	xor	edx, edx
	jmp	__x86_return_thunk              # TAILCALL
.Lfunc_end43:
	.size	lfind, .Lfunc_end43-lfind
	.cfi_endproc
                                        # -- End function
	.globl	abs                             # -- Begin function abs
	.p2align	4, 0x90
	.type	abs,@function
abs:                                    # @abs
	.cfi_startproc
# %bb.0:
	push	ebp
	.cfi_def_cfa_offset 8
	.cfi_offset ebp, -8
	mov	ebp, esp
	.cfi_def_cfa_register ebp
	push	eax
	mov	eax, dword ptr [ebp + 8]
	mov	eax, dword ptr [.L__profc_abs]
	add	eax, 1
	adc	dword ptr [.L__profc_abs+4], 0
	mov	dword ptr [.L__profc_abs], eax
	cmp	dword ptr [ebp + 8], 0
	jle	.LBB44_2
# %bb.1:
	mov	eax, dword ptr [.L__profc_abs+8]
	add	eax, 1
	adc	dword ptr [.L__profc_abs+12], 0
	mov	dword ptr [.L__profc_abs+8], eax
	mov	eax, dword ptr [ebp + 8]
	mov	dword ptr [ebp - 4], eax        # 4-byte Spill
	jmp	.LBB44_3
.LBB44_2:
	xor	eax, eax
	sub	eax, dword ptr [ebp + 8]
	mov	dword ptr [ebp - 4], eax        # 4-byte Spill
.LBB44_3:
	mov	eax, dword ptr [ebp - 4]        # 4-byte Reload
	add	esp, 4
	pop	ebp
	.cfi_def_cfa esp, 4
	fldz
	fldz
	fldz
	fldz
	fldz
	fldz
	fldz
	fstp	st(0)
	fstp	st(0)
	fstp	st(0)
	fstp	st(0)
	fstp	st(0)
	fstp	st(0)
	fstp	st(0)
	xor	ecx, ecx
	xor	edx, edx
	jmp	__x86_return_thunk              # TAILCALL
.Lfunc_end44:
	.size	abs, .Lfunc_end44-abs
	.cfi_endproc
                                        # -- End function
	.globl	atoi                            # -- Begin function atoi
	.p2align	4, 0x90
	.type	atoi,@function
atoi:                                   # @atoi
	.cfi_startproc
# %bb.0:
	push	ebp
	.cfi_def_cfa_offset 8
	.cfi_offset ebp, -8
	mov	ebp, esp
	.cfi_def_cfa_register ebp
	sub	esp, 20
	mov	eax, dword ptr [ebp + 8]
	mov	eax, dword ptr [.L__profc_atoi]
	add	eax, 1
	adc	dword ptr [.L__profc_atoi+4], 0
	mov	dword ptr [.L__profc_atoi], eax
	mov	dword ptr [ebp - 4], 0
	mov	dword ptr [ebp - 8], 0
.LBB45_1:                               # =>This Inner Loop Header: Depth=1
	mov	eax, dword ptr [ebp + 8]
	movsx	eax, byte ptr [eax]
	mov	dword ptr [esp], eax
	call	isspace
	cmp	eax, 0
	je	.LBB45_3
# %bb.2:                                #   in Loop: Header=BB45_1 Depth=1
	mov	eax, dword ptr [.L__profc_atoi+8]
	add	eax, 1
	adc	dword ptr [.L__profc_atoi+12], 0
	mov	dword ptr [.L__profc_atoi+8], eax
	mov	eax, dword ptr [ebp + 8]
	add	eax, 1
	mov	dword ptr [ebp + 8], eax
	jmp	.LBB45_1
.LBB45_3:
	mov	eax, dword ptr [ebp + 8]
	movsx	eax, byte ptr [eax]
	mov	dword ptr [ebp - 12], eax       # 4-byte Spill
	sub	eax, 43
	je	.LBB45_5
	jmp	.LBB45_14
.LBB45_14:
	mov	eax, dword ptr [ebp - 12]       # 4-byte Reload
	sub	eax, 45
	jne	.LBB45_7
	jmp	.LBB45_4
.LBB45_4:
	mov	eax, dword ptr [.L__profc_atoi+24]
	add	eax, 1
	adc	dword ptr [.L__profc_atoi+28], 0
	mov	dword ptr [.L__profc_atoi+24], eax
	mov	dword ptr [ebp - 8], 1
	jmp	.LBB45_6
.LBB45_5:
	mov	eax, dword ptr [.L__profc_atoi+32]
	add	eax, 1
	adc	dword ptr [.L__profc_atoi+36], 0
	mov	dword ptr [.L__profc_atoi+32], eax
.LBB45_6:
	mov	eax, dword ptr [ebp + 8]
	add	eax, 1
	mov	dword ptr [ebp + 8], eax
.LBB45_7:
	mov	eax, dword ptr [.L__profc_atoi+16]
	add	eax, 1
	adc	dword ptr [.L__profc_atoi+20], 0
	mov	dword ptr [.L__profc_atoi+16], eax
.LBB45_8:                               # =>This Inner Loop Header: Depth=1
	mov	eax, dword ptr [ebp + 8]
	movsx	eax, byte ptr [eax]
	mov	dword ptr [esp], eax
	call	isdigit
	cmp	eax, 0
	je	.LBB45_10
# %bb.9:                                #   in Loop: Header=BB45_8 Depth=1
	mov	eax, dword ptr [.L__profc_atoi+40]
	add	eax, 1
	adc	dword ptr [.L__profc_atoi+44], 0
	mov	dword ptr [.L__profc_atoi+40], eax
	imul	eax, dword ptr [ebp - 4], 10
	mov	ecx, dword ptr [ebp + 8]
	mov	edx, ecx
	add	edx, 1
	mov	dword ptr [ebp + 8], edx
	movsx	ecx, byte ptr [ecx]
	sub	ecx, 48
	sub	eax, ecx
	mov	dword ptr [ebp - 4], eax
	jmp	.LBB45_8
.LBB45_10:
	cmp	dword ptr [ebp - 8], 0
	je	.LBB45_12
# %bb.11:
	mov	eax, dword ptr [.L__profc_atoi+48]
	add	eax, 1
	adc	dword ptr [.L__profc_atoi+52], 0
	mov	dword ptr [.L__profc_atoi+48], eax
	mov	eax, dword ptr [ebp - 4]
	mov	dword ptr [ebp - 16], eax       # 4-byte Spill
	jmp	.LBB45_13
.LBB45_12:
	xor	eax, eax
	sub	eax, dword ptr [ebp - 4]
	mov	dword ptr [ebp - 16], eax       # 4-byte Spill
.LBB45_13:
	mov	eax, dword ptr [ebp - 16]       # 4-byte Reload
	add	esp, 20
	pop	ebp
	.cfi_def_cfa esp, 4
	fldz
	fldz
	fldz
	fldz
	fldz
	fldz
	fldz
	fstp	st(0)
	fstp	st(0)
	fstp	st(0)
	fstp	st(0)
	fstp	st(0)
	fstp	st(0)
	fstp	st(0)
	xor	ecx, ecx
	xor	edx, edx
	jmp	__x86_return_thunk              # TAILCALL
.Lfunc_end45:
	.size	atoi, .Lfunc_end45-atoi
	.cfi_endproc
                                        # -- End function
	.globl	atol                            # -- Begin function atol
	.p2align	4, 0x90
	.type	atol,@function
atol:                                   # @atol
	.cfi_startproc
# %bb.0:
	push	ebp
	.cfi_def_cfa_offset 8
	.cfi_offset ebp, -8
	mov	ebp, esp
	.cfi_def_cfa_register ebp
	sub	esp, 20
	mov	eax, dword ptr [ebp + 8]
	mov	eax, dword ptr [.L__profc_atol]
	add	eax, 1
	adc	dword ptr [.L__profc_atol+4], 0
	mov	dword ptr [.L__profc_atol], eax
	mov	dword ptr [ebp - 4], 0
	mov	dword ptr [ebp - 8], 0
.LBB46_1:                               # =>This Inner Loop Header: Depth=1
	mov	eax, dword ptr [ebp + 8]
	movsx	eax, byte ptr [eax]
	mov	dword ptr [esp], eax
	call	isspace
	cmp	eax, 0
	je	.LBB46_3
# %bb.2:                                #   in Loop: Header=BB46_1 Depth=1
	mov	eax, dword ptr [.L__profc_atol+8]
	add	eax, 1
	adc	dword ptr [.L__profc_atol+12], 0
	mov	dword ptr [.L__profc_atol+8], eax
	mov	eax, dword ptr [ebp + 8]
	add	eax, 1
	mov	dword ptr [ebp + 8], eax
	jmp	.LBB46_1
.LBB46_3:
	mov	eax, dword ptr [ebp + 8]
	movsx	eax, byte ptr [eax]
	mov	dword ptr [ebp - 12], eax       # 4-byte Spill
	sub	eax, 43
	je	.LBB46_5
	jmp	.LBB46_14
.LBB46_14:
	mov	eax, dword ptr [ebp - 12]       # 4-byte Reload
	sub	eax, 45
	jne	.LBB46_7
	jmp	.LBB46_4
.LBB46_4:
	mov	eax, dword ptr [.L__profc_atol+24]
	add	eax, 1
	adc	dword ptr [.L__profc_atol+28], 0
	mov	dword ptr [.L__profc_atol+24], eax
	mov	dword ptr [ebp - 8], 1
	jmp	.LBB46_6
.LBB46_5:
	mov	eax, dword ptr [.L__profc_atol+32]
	add	eax, 1
	adc	dword ptr [.L__profc_atol+36], 0
	mov	dword ptr [.L__profc_atol+32], eax
.LBB46_6:
	mov	eax, dword ptr [ebp + 8]
	add	eax, 1
	mov	dword ptr [ebp + 8], eax
.LBB46_7:
	mov	eax, dword ptr [.L__profc_atol+16]
	add	eax, 1
	adc	dword ptr [.L__profc_atol+20], 0
	mov	dword ptr [.L__profc_atol+16], eax
.LBB46_8:                               # =>This Inner Loop Header: Depth=1
	mov	eax, dword ptr [ebp + 8]
	movsx	eax, byte ptr [eax]
	mov	dword ptr [esp], eax
	call	isdigit
	cmp	eax, 0
	je	.LBB46_10
# %bb.9:                                #   in Loop: Header=BB46_8 Depth=1
	mov	eax, dword ptr [.L__profc_atol+40]
	add	eax, 1
	adc	dword ptr [.L__profc_atol+44], 0
	mov	dword ptr [.L__profc_atol+40], eax
	imul	eax, dword ptr [ebp - 4], 10
	mov	ecx, dword ptr [ebp + 8]
	mov	edx, ecx
	add	edx, 1
	mov	dword ptr [ebp + 8], edx
	movsx	ecx, byte ptr [ecx]
	sub	ecx, 48
	sub	eax, ecx
	mov	dword ptr [ebp - 4], eax
	jmp	.LBB46_8
.LBB46_10:
	cmp	dword ptr [ebp - 8], 0
	je	.LBB46_12
# %bb.11:
	mov	eax, dword ptr [.L__profc_atol+48]
	add	eax, 1
	adc	dword ptr [.L__profc_atol+52], 0
	mov	dword ptr [.L__profc_atol+48], eax
	mov	eax, dword ptr [ebp - 4]
	mov	dword ptr [ebp - 16], eax       # 4-byte Spill
	jmp	.LBB46_13
.LBB46_12:
	xor	eax, eax
	sub	eax, dword ptr [ebp - 4]
	mov	dword ptr [ebp - 16], eax       # 4-byte Spill
.LBB46_13:
	mov	eax, dword ptr [ebp - 16]       # 4-byte Reload
	add	esp, 20
	pop	ebp
	.cfi_def_cfa esp, 4
	fldz
	fldz
	fldz
	fldz
	fldz
	fldz
	fldz
	fstp	st(0)
	fstp	st(0)
	fstp	st(0)
	fstp	st(0)
	fstp	st(0)
	fstp	st(0)
	fstp	st(0)
	xor	ecx, ecx
	xor	edx, edx
	jmp	__x86_return_thunk              # TAILCALL
.Lfunc_end46:
	.size	atol, .Lfunc_end46-atol
	.cfi_endproc
                                        # -- End function
	.globl	atoll                           # -- Begin function atoll
	.p2align	4, 0x90
	.type	atoll,@function
atoll:                                  # @atoll
	.cfi_startproc
# %bb.0:
	push	ebp
	.cfi_def_cfa_offset 8
	.cfi_offset ebp, -8
	mov	ebp, esp
	.cfi_def_cfa_register ebp
	push	esi
	and	esp, -8
	sub	esp, 40
	.cfi_offset esi, -12
	mov	eax, dword ptr [ebp + 8]
	mov	eax, dword ptr [.L__profc_atoll]
	add	eax, 1
	adc	dword ptr [.L__profc_atoll+4], 0
	mov	dword ptr [.L__profc_atoll], eax
	mov	dword ptr [esp + 28], 0
	mov	dword ptr [esp + 24], 0
	mov	dword ptr [esp + 20], 0
.LBB47_1:                               # =>This Inner Loop Header: Depth=1
	mov	eax, dword ptr [ebp + 8]
	movsx	eax, byte ptr [eax]
	mov	dword ptr [esp], eax
	call	isspace
	cmp	eax, 0
	je	.LBB47_3
# %bb.2:                                #   in Loop: Header=BB47_1 Depth=1
	mov	eax, dword ptr [.L__profc_atoll+8]
	add	eax, 1
	adc	dword ptr [.L__profc_atoll+12], 0
	mov	dword ptr [.L__profc_atoll+8], eax
	mov	eax, dword ptr [ebp + 8]
	add	eax, 1
	mov	dword ptr [ebp + 8], eax
	jmp	.LBB47_1
.LBB47_3:
	mov	eax, dword ptr [ebp + 8]
	movsx	eax, byte ptr [eax]
	mov	dword ptr [esp + 16], eax       # 4-byte Spill
	sub	eax, 43
	je	.LBB47_5
	jmp	.LBB47_14
.LBB47_14:
	mov	eax, dword ptr [esp + 16]       # 4-byte Reload
	sub	eax, 45
	jne	.LBB47_7
	jmp	.LBB47_4
.LBB47_4:
	mov	eax, dword ptr [.L__profc_atoll+24]
	add	eax, 1
	adc	dword ptr [.L__profc_atoll+28], 0
	mov	dword ptr [.L__profc_atoll+24], eax
	mov	dword ptr [esp + 20], 1
	jmp	.LBB47_6
.LBB47_5:
	mov	eax, dword ptr [.L__profc_atoll+32]
	add	eax, 1
	adc	dword ptr [.L__profc_atoll+36], 0
	mov	dword ptr [.L__profc_atoll+32], eax
.LBB47_6:
	mov	eax, dword ptr [ebp + 8]
	add	eax, 1
	mov	dword ptr [ebp + 8], eax
.LBB47_7:
	mov	eax, dword ptr [.L__profc_atoll+16]
	add	eax, 1
	adc	dword ptr [.L__profc_atoll+20], 0
	mov	dword ptr [.L__profc_atoll+16], eax
.LBB47_8:                               # =>This Inner Loop Header: Depth=1
	mov	eax, dword ptr [ebp + 8]
	movsx	eax, byte ptr [eax]
	mov	dword ptr [esp], eax
	call	isdigit
	cmp	eax, 0
	je	.LBB47_10
# %bb.9:                                #   in Loop: Header=BB47_8 Depth=1
	mov	eax, dword ptr [.L__profc_atoll+40]
	add	eax, 1
	adc	dword ptr [.L__profc_atoll+44], 0
	mov	dword ptr [.L__profc_atoll+40], eax
	mov	eax, dword ptr [esp + 24]
	mov	ecx, dword ptr [esp + 28]
	mov	dword ptr [esp + 12], ecx       # 4-byte Spill
	mov	ecx, 10
	mul	ecx
	mov	ecx, eax
	mov	eax, dword ptr [esp + 12]       # 4-byte Reload
	lea	eax, [eax + 4*eax]
	lea	eax, [edx + 2*eax]
	mov	edx, dword ptr [ebp + 8]
	mov	esi, edx
	inc	esi
	mov	dword ptr [ebp + 8], esi
	movsx	esi, byte ptr [edx]
	add	esi, -48
	mov	edx, esi
	sar	edx, 31
	sub	ecx, esi
	sbb	eax, edx
	mov	dword ptr [esp + 24], ecx
	mov	dword ptr [esp + 28], eax
	jmp	.LBB47_8
.LBB47_10:
	cmp	dword ptr [esp + 20], 0
	je	.LBB47_12
# %bb.11:
	mov	eax, dword ptr [.L__profc_atoll+48]
	add	eax, 1
	adc	dword ptr [.L__profc_atoll+52], 0
	mov	dword ptr [.L__profc_atoll+48], eax
	mov	ecx, dword ptr [esp + 24]
	mov	eax, dword ptr [esp + 28]
	mov	dword ptr [esp + 4], ecx        # 4-byte Spill
	mov	dword ptr [esp + 8], eax        # 4-byte Spill
	jmp	.LBB47_13
.LBB47_12:
	mov	ecx, dword ptr [esp + 24]
	mov	edx, dword ptr [esp + 28]
	xor	eax, eax
	neg	ecx
	sbb	eax, edx
	mov	dword ptr [esp + 4], ecx        # 4-byte Spill
	mov	dword ptr [esp + 8], eax        # 4-byte Spill
	jmp	.LBB47_13
.LBB47_13:
	mov	eax, dword ptr [esp + 4]        # 4-byte Reload
	mov	edx, dword ptr [esp + 8]        # 4-byte Reload
	lea	esp, [ebp - 4]
	pop	esi
	pop	ebp
	.cfi_def_cfa esp, 4
	fldz
	fldz
	fldz
	fldz
	fldz
	fldz
	fldz
	fstp	st(0)
	fstp	st(0)
	fstp	st(0)
	fstp	st(0)
	fstp	st(0)
	fstp	st(0)
	fstp	st(0)
	xor	ecx, ecx
	jmp	__x86_return_thunk              # TAILCALL
.Lfunc_end47:
	.size	atoll, .Lfunc_end47-atoll
	.cfi_endproc
                                        # -- End function
	.globl	bsearch                         # -- Begin function bsearch
	.p2align	4, 0x90
	.type	bsearch,@function
bsearch:                                # @bsearch
	.cfi_startproc
# %bb.0:
	push	ebp
	.cfi_def_cfa_offset 8
	.cfi_offset ebp, -8
	mov	ebp, esp
	.cfi_def_cfa_register ebp
	sub	esp, 20
	mov	eax, dword ptr [ebp + 24]
	mov	eax, dword ptr [ebp + 20]
	mov	eax, dword ptr [ebp + 16]
	mov	eax, dword ptr [ebp + 12]
	mov	eax, dword ptr [ebp + 8]
	mov	eax, dword ptr [.L__profc_bsearch]
	add	eax, 1
	adc	dword ptr [.L__profc_bsearch+4], 0
	mov	dword ptr [.L__profc_bsearch], eax
.LBB48_1:                               # =>This Inner Loop Header: Depth=1
	cmp	dword ptr [ebp + 16], 0
	jbe	.LBB48_9
# %bb.2:                                #   in Loop: Header=BB48_1 Depth=1
	mov	eax, dword ptr [.L__profc_bsearch+8]
	add	eax, 1
	adc	dword ptr [.L__profc_bsearch+12], 0
	mov	dword ptr [.L__profc_bsearch+8], eax
	mov	eax, dword ptr [ebp + 12]
	mov	ecx, dword ptr [ebp + 20]
	mov	edx, dword ptr [ebp + 16]
	shr	edx
	imul	ecx, edx
	add	eax, ecx
	mov	dword ptr [ebp - 8], eax
	mov	eax, dword ptr [ebp + 24]
	mov	edx, dword ptr [ebp + 8]
	mov	ecx, dword ptr [ebp - 8]
	mov	dword ptr [esp], edx
	mov	dword ptr [esp + 4], ecx
	call	eax
	mov	dword ptr [ebp - 12], eax
	cmp	dword ptr [ebp - 12], 0
	jge	.LBB48_4
# %bb.3:                                #   in Loop: Header=BB48_1 Depth=1
	mov	eax, dword ptr [.L__profc_bsearch+16]
	add	eax, 1
	adc	dword ptr [.L__profc_bsearch+20], 0
	mov	dword ptr [.L__profc_bsearch+16], eax
	mov	eax, dword ptr [ebp + 16]
	shr	eax
	mov	dword ptr [ebp + 16], eax
	jmp	.LBB48_8
.LBB48_4:                               #   in Loop: Header=BB48_1 Depth=1
	cmp	dword ptr [ebp - 12], 0
	jle	.LBB48_6
# %bb.5:                                #   in Loop: Header=BB48_1 Depth=1
	mov	eax, dword ptr [.L__profc_bsearch+24]
	add	eax, 1
	adc	dword ptr [.L__profc_bsearch+28], 0
	mov	dword ptr [.L__profc_bsearch+24], eax
	mov	eax, dword ptr [ebp - 8]
	add	eax, dword ptr [ebp + 20]
	mov	dword ptr [ebp + 12], eax
	mov	ecx, dword ptr [ebp + 16]
	shr	ecx
	add	ecx, 1
	mov	eax, dword ptr [ebp + 16]
	sub	eax, ecx
	mov	dword ptr [ebp + 16], eax
	jmp	.LBB48_7
.LBB48_6:
	mov	eax, dword ptr [ebp - 8]
	mov	dword ptr [ebp - 4], eax
	jmp	.LBB48_10
.LBB48_7:                               #   in Loop: Header=BB48_1 Depth=1
	jmp	.LBB48_8
.LBB48_8:                               #   in Loop: Header=BB48_1 Depth=1
	jmp	.LBB48_1
.LBB48_9:
	mov	dword ptr [ebp - 4], 0
.LBB48_10:
	mov	eax, dword ptr [ebp - 4]
	add	esp, 20
	pop	ebp
	.cfi_def_cfa esp, 4
	fldz
	fldz
	fldz
	fldz
	fldz
	fldz
	fldz
	fstp	st(0)
	fstp	st(0)
	fstp	st(0)
	fstp	st(0)
	fstp	st(0)
	fstp	st(0)
	fstp	st(0)
	xor	ecx, ecx
	xor	edx, edx
	jmp	__x86_return_thunk              # TAILCALL
.Lfunc_end48:
	.size	bsearch, .Lfunc_end48-bsearch
	.cfi_endproc
                                        # -- End function
	.globl	bsearch_r                       # -- Begin function bsearch_r
	.p2align	4, 0x90
	.type	bsearch_r,@function
bsearch_r:                              # @bsearch_r
	.cfi_startproc
# %bb.0:
	push	ebp
	.cfi_def_cfa_offset 8
	.cfi_offset ebp, -8
	mov	ebp, esp
	.cfi_def_cfa_register ebp
	push	esi
	sub	esp, 32
	.cfi_offset esi, -12
	mov	eax, dword ptr [ebp + 28]
	mov	eax, dword ptr [ebp + 24]
	mov	eax, dword ptr [ebp + 20]
	mov	eax, dword ptr [ebp + 16]
	mov	eax, dword ptr [ebp + 12]
	mov	eax, dword ptr [ebp + 8]
	mov	eax, dword ptr [.L__profc_bsearch_r]
	add	eax, 1
	adc	dword ptr [.L__profc_bsearch_r+4], 0
	mov	dword ptr [.L__profc_bsearch_r], eax
	mov	eax, dword ptr [ebp + 12]
	mov	dword ptr [ebp - 12], eax
	mov	eax, dword ptr [ebp + 16]
	mov	dword ptr [ebp - 16], eax
.LBB49_1:                               # =>This Inner Loop Header: Depth=1
	cmp	dword ptr [ebp - 16], 0
	je	.LBB49_8
# %bb.2:                                #   in Loop: Header=BB49_1 Depth=1
	mov	eax, dword ptr [.L__profc_bsearch_r+8]
	add	eax, 1
	adc	dword ptr [.L__profc_bsearch_r+12], 0
	mov	dword ptr [.L__profc_bsearch_r+8], eax
	mov	eax, dword ptr [ebp - 12]
	mov	ecx, dword ptr [ebp - 16]
	sar	ecx
	imul	ecx, dword ptr [ebp + 20]
	add	eax, ecx
	mov	dword ptr [ebp - 24], eax
	mov	eax, dword ptr [ebp + 24]
	mov	esi, dword ptr [ebp + 8]
	mov	edx, dword ptr [ebp - 24]
	mov	ecx, dword ptr [ebp + 28]
	mov	dword ptr [esp], esi
	mov	dword ptr [esp + 4], edx
	mov	dword ptr [esp + 8], ecx
	call	eax
	mov	dword ptr [ebp - 20], eax
	cmp	dword ptr [ebp - 20], 0
	jne	.LBB49_4
# %bb.3:
	mov	eax, dword ptr [.L__profc_bsearch_r+16]
	add	eax, 1
	adc	dword ptr [.L__profc_bsearch_r+20], 0
	mov	dword ptr [.L__profc_bsearch_r+16], eax
	mov	eax, dword ptr [ebp - 24]
	mov	dword ptr [ebp - 8], eax
	jmp	.LBB49_9
.LBB49_4:                               #   in Loop: Header=BB49_1 Depth=1
	cmp	dword ptr [ebp - 20], 0
	jle	.LBB49_6
# %bb.5:                                #   in Loop: Header=BB49_1 Depth=1
	mov	eax, dword ptr [.L__profc_bsearch_r+24]
	add	eax, 1
	adc	dword ptr [.L__profc_bsearch_r+28], 0
	mov	dword ptr [.L__profc_bsearch_r+24], eax
	mov	eax, dword ptr [ebp - 24]
	add	eax, dword ptr [ebp + 20]
	mov	dword ptr [ebp - 12], eax
	mov	eax, dword ptr [ebp - 16]
	add	eax, -1
	mov	dword ptr [ebp - 16], eax
.LBB49_6:                               #   in Loop: Header=BB49_1 Depth=1
	jmp	.LBB49_7
.LBB49_7:                               #   in Loop: Header=BB49_1 Depth=1
	mov	eax, dword ptr [ebp - 16]
	sar	eax
	mov	dword ptr [ebp - 16], eax
	jmp	.LBB49_1
.LBB49_8:
	mov	dword ptr [ebp - 8], 0
.LBB49_9:
	mov	eax, dword ptr [ebp - 8]
	add	esp, 32
	pop	esi
	pop	ebp
	.cfi_def_cfa esp, 4
	fldz
	fldz
	fldz
	fldz
	fldz
	fldz
	fldz
	fstp	st(0)
	fstp	st(0)
	fstp	st(0)
	fstp	st(0)
	fstp	st(0)
	fstp	st(0)
	fstp	st(0)
	xor	ecx, ecx
	xor	edx, edx
	jmp	__x86_return_thunk              # TAILCALL
.Lfunc_end49:
	.size	bsearch_r, .Lfunc_end49-bsearch_r
	.cfi_endproc
                                        # -- End function
	.globl	div                             # -- Begin function div
	.p2align	4, 0x90
	.type	div,@function
div:                                    # @div
	.cfi_startproc
# %bb.0:
	push	ebp
	.cfi_def_cfa_offset 8
	.cfi_offset ebp, -8
	mov	ebp, esp
	.cfi_def_cfa_register ebp
	push	eax
	mov	ecx, dword ptr [ebp + 8]
	mov	eax, ecx
	mov	dword ptr [ebp - 4], eax        # 4-byte Spill
	mov	eax, dword ptr [ebp + 16]
	mov	eax, dword ptr [ebp + 12]
	mov	eax, dword ptr [.L__profc_div]
	add	eax, 1
	adc	dword ptr [.L__profc_div+4], 0
	mov	dword ptr [.L__profc_div], eax
	mov	eax, dword ptr [ebp + 12]
	cdq
	idiv	dword ptr [ebp + 16]
	mov	dword ptr [ecx], eax
	mov	eax, dword ptr [ebp + 12]
	cdq
	idiv	dword ptr [ebp + 16]
	mov	eax, dword ptr [ebp - 4]        # 4-byte Reload
	mov	dword ptr [ecx + 4], edx
	add	esp, 4
	pop	ebp
	.cfi_def_cfa esp, 4
	fldz
	fldz
	fldz
	fldz
	fldz
	fldz
	fldz
	fstp	st(0)
	fstp	st(0)
	fstp	st(0)
	fstp	st(0)
	fstp	st(0)
	fstp	st(0)
	fstp	st(0)
	xor	ecx, ecx
	xor	edx, edx
	ret	4
	int3
.Lfunc_end50:
	.size	div, .Lfunc_end50-div
	.cfi_endproc
                                        # -- End function
	.globl	imaxabs                         # -- Begin function imaxabs
	.p2align	4, 0x90
	.type	imaxabs,@function
imaxabs:                                # @imaxabs
	.cfi_startproc
# %bb.0:
	push	ebp
	.cfi_def_cfa_offset 8
	.cfi_offset ebp, -8
	mov	ebp, esp
	.cfi_def_cfa_register ebp
	and	esp, -8
	sub	esp, 16
	mov	ecx, dword ptr [ebp + 8]
	mov	eax, dword ptr [ebp + 12]
	mov	dword ptr [esp + 8], ecx
	mov	dword ptr [esp + 12], eax
	mov	eax, dword ptr [.L__profc_imaxabs]
	add	eax, 1
	adc	dword ptr [.L__profc_imaxabs+4], 0
	mov	dword ptr [.L__profc_imaxabs], eax
	mov	ecx, dword ptr [esp + 8]
	mov	eax, dword ptr [esp + 12]
	sub	ecx, 1
	sbb	eax, 0
	jl	.LBB51_2
	jmp	.LBB51_1
.LBB51_1:
	mov	eax, dword ptr [.L__profc_imaxabs+8]
	add	eax, 1
	adc	dword ptr [.L__profc_imaxabs+12], 0
	mov	dword ptr [.L__profc_imaxabs+8], eax
	mov	ecx, dword ptr [esp + 8]
	mov	eax, dword ptr [esp + 12]
	mov	dword ptr [esp], ecx            # 4-byte Spill
	mov	dword ptr [esp + 4], eax        # 4-byte Spill
	jmp	.LBB51_3
.LBB51_2:
	mov	ecx, dword ptr [esp + 8]
	mov	edx, dword ptr [esp + 12]
	xor	eax, eax
	neg	ecx
	sbb	eax, edx
	mov	dword ptr [esp], ecx            # 4-byte Spill
	mov	dword ptr [esp + 4], eax        # 4-byte Spill
	jmp	.LBB51_3
.LBB51_3:
	mov	eax, dword ptr [esp]            # 4-byte Reload
	mov	edx, dword ptr [esp + 4]        # 4-byte Reload
	mov	esp, ebp
	pop	ebp
	.cfi_def_cfa esp, 4
	fldz
	fldz
	fldz
	fldz
	fldz
	fldz
	fldz
	fstp	st(0)
	fstp	st(0)
	fstp	st(0)
	fstp	st(0)
	fstp	st(0)
	fstp	st(0)
	fstp	st(0)
	xor	ecx, ecx
	jmp	__x86_return_thunk              # TAILCALL
.Lfunc_end51:
	.size	imaxabs, .Lfunc_end51-imaxabs
	.cfi_endproc
                                        # -- End function
	.globl	imaxdiv                         # -- Begin function imaxdiv
	.p2align	4, 0x90
	.type	imaxdiv,@function
imaxdiv:                                # @imaxdiv
	.cfi_startproc
# %bb.0:
	push	ebp
	.cfi_def_cfa_offset 8
	.cfi_offset ebp, -8
	mov	ebp, esp
	.cfi_def_cfa_register ebp
	push	edi
	push	esi
	and	esp, -8
	sub	esp, 48
	.cfi_offset esi, -16
	.cfi_offset edi, -12
	mov	eax, dword ptr [ebp + 8]
	mov	dword ptr [esp + 20], eax       # 4-byte Spill
	mov	dword ptr [esp + 24], eax       # 4-byte Spill
	mov	eax, dword ptr [ebp + 20]
	mov	ecx, dword ptr [ebp + 24]
	mov	esi, dword ptr [ebp + 12]
	mov	edx, dword ptr [ebp + 16]
	mov	dword ptr [esp + 40], esi
	mov	dword ptr [esp + 44], edx
	mov	dword ptr [esp + 36], ecx
	mov	dword ptr [esp + 32], eax
	mov	eax, dword ptr [.L__profc_imaxdiv]
	add	eax, 1
	adc	dword ptr [.L__profc_imaxdiv+4], 0
	mov	dword ptr [.L__profc_imaxdiv], eax
	mov	ecx, dword ptr [esp + 40]
	mov	edx, dword ptr [esp + 44]
	mov	esi, dword ptr [esp + 32]
	mov	edi, dword ptr [esp + 36]
	mov	eax, esp
	mov	dword ptr [eax + 12], edi
	mov	dword ptr [eax + 8], esi
	mov	dword ptr [eax + 4], edx
	mov	dword ptr [eax], ecx
	call	__divdi3
	mov	ecx, eax
	mov	eax, dword ptr [esp + 20]       # 4-byte Reload
	mov	dword ptr [eax + 4], edx
	mov	dword ptr [eax], ecx
	mov	ecx, dword ptr [esp + 40]
	mov	edx, dword ptr [esp + 44]
	mov	esi, dword ptr [esp + 32]
	mov	edi, dword ptr [esp + 36]
	mov	eax, esp
	mov	dword ptr [eax + 12], edi
	mov	dword ptr [eax + 8], esi
	mov	dword ptr [eax + 4], edx
	mov	dword ptr [eax], ecx
	call	__moddi3
	mov	ecx, dword ptr [esp + 20]       # 4-byte Reload
	mov	esi, eax
	mov	eax, dword ptr [esp + 24]       # 4-byte Reload
	mov	dword ptr [esp + 28], esi       # 4-byte Spill
	mov	esi, edx
	mov	edx, dword ptr [esp + 28]       # 4-byte Reload
	mov	dword ptr [ecx + 12], esi
	mov	dword ptr [ecx + 8], edx
	lea	esp, [ebp - 8]
	pop	esi
	pop	edi
	pop	ebp
	.cfi_def_cfa esp, 4
	fldz
	fldz
	fldz
	fldz
	fldz
	fldz
	fldz
	fstp	st(0)
	fstp	st(0)
	fstp	st(0)
	fstp	st(0)
	fstp	st(0)
	fstp	st(0)
	fstp	st(0)
	xor	ecx, ecx
	xor	edx, edx
	ret	4
	int3
.Lfunc_end52:
	.size	imaxdiv, .Lfunc_end52-imaxdiv
	.cfi_endproc
                                        # -- End function
	.globl	labs                            # -- Begin function labs
	.p2align	4, 0x90
	.type	labs,@function
labs:                                   # @labs
	.cfi_startproc
# %bb.0:
	push	ebp
	.cfi_def_cfa_offset 8
	.cfi_offset ebp, -8
	mov	ebp, esp
	.cfi_def_cfa_register ebp
	push	eax
	mov	eax, dword ptr [ebp + 8]
	mov	eax, dword ptr [.L__profc_labs]
	add	eax, 1
	adc	dword ptr [.L__profc_labs+4], 0
	mov	dword ptr [.L__profc_labs], eax
	cmp	dword ptr [ebp + 8], 0
	jle	.LBB53_2
# %bb.1:
	mov	eax, dword ptr [.L__profc_labs+8]
	add	eax, 1
	adc	dword ptr [.L__profc_labs+12], 0
	mov	dword ptr [.L__profc_labs+8], eax
	mov	eax, dword ptr [ebp + 8]
	mov	dword ptr [ebp - 4], eax        # 4-byte Spill
	jmp	.LBB53_3
.LBB53_2:
	xor	eax, eax
	sub	eax, dword ptr [ebp + 8]
	mov	dword ptr [ebp - 4], eax        # 4-byte Spill
.LBB53_3:
	mov	eax, dword ptr [ebp - 4]        # 4-byte Reload
	add	esp, 4
	pop	ebp
	.cfi_def_cfa esp, 4
	fldz
	fldz
	fldz
	fldz
	fldz
	fldz
	fldz
	fstp	st(0)
	fstp	st(0)
	fstp	st(0)
	fstp	st(0)
	fstp	st(0)
	fstp	st(0)
	fstp	st(0)
	xor	ecx, ecx
	xor	edx, edx
	jmp	__x86_return_thunk              # TAILCALL
.Lfunc_end53:
	.size	labs, .Lfunc_end53-labs
	.cfi_endproc
                                        # -- End function
	.globl	ldiv                            # -- Begin function ldiv
	.p2align	4, 0x90
	.type	ldiv,@function
ldiv:                                   # @ldiv
	.cfi_startproc
# %bb.0:
	push	ebp
	.cfi_def_cfa_offset 8
	.cfi_offset ebp, -8
	mov	ebp, esp
	.cfi_def_cfa_register ebp
	push	eax
	mov	ecx, dword ptr [ebp + 8]
	mov	eax, ecx
	mov	dword ptr [ebp - 4], eax        # 4-byte Spill
	mov	eax, dword ptr [ebp + 16]
	mov	eax, dword ptr [ebp + 12]
	mov	eax, dword ptr [.L__profc_ldiv]
	add	eax, 1
	adc	dword ptr [.L__profc_ldiv+4], 0
	mov	dword ptr [.L__profc_ldiv], eax
	mov	eax, dword ptr [ebp + 12]
	cdq
	idiv	dword ptr [ebp + 16]
	mov	dword ptr [ecx], eax
	mov	eax, dword ptr [ebp + 12]
	cdq
	idiv	dword ptr [ebp + 16]
	mov	eax, dword ptr [ebp - 4]        # 4-byte Reload
	mov	dword ptr [ecx + 4], edx
	add	esp, 4
	pop	ebp
	.cfi_def_cfa esp, 4
	fldz
	fldz
	fldz
	fldz
	fldz
	fldz
	fldz
	fstp	st(0)
	fstp	st(0)
	fstp	st(0)
	fstp	st(0)
	fstp	st(0)
	fstp	st(0)
	fstp	st(0)
	xor	ecx, ecx
	xor	edx, edx
	ret	4
	int3
.Lfunc_end54:
	.size	ldiv, .Lfunc_end54-ldiv
	.cfi_endproc
                                        # -- End function
	.globl	llabs                           # -- Begin function llabs
	.p2align	4, 0x90
	.type	llabs,@function
llabs:                                  # @llabs
	.cfi_startproc
# %bb.0:
	push	ebp
	.cfi_def_cfa_offset 8
	.cfi_offset ebp, -8
	mov	ebp, esp
	.cfi_def_cfa_register ebp
	and	esp, -8
	sub	esp, 16
	mov	ecx, dword ptr [ebp + 8]
	mov	eax, dword ptr [ebp + 12]
	mov	dword ptr [esp + 8], ecx
	mov	dword ptr [esp + 12], eax
	mov	eax, dword ptr [.L__profc_llabs]
	add	eax, 1
	adc	dword ptr [.L__profc_llabs+4], 0
	mov	dword ptr [.L__profc_llabs], eax
	mov	ecx, dword ptr [esp + 8]
	mov	eax, dword ptr [esp + 12]
	sub	ecx, 1
	sbb	eax, 0
	jl	.LBB55_2
	jmp	.LBB55_1
.LBB55_1:
	mov	eax, dword ptr [.L__profc_llabs+8]
	add	eax, 1
	adc	dword ptr [.L__profc_llabs+12], 0
	mov	dword ptr [.L__profc_llabs+8], eax
	mov	ecx, dword ptr [esp + 8]
	mov	eax, dword ptr [esp + 12]
	mov	dword ptr [esp], ecx            # 4-byte Spill
	mov	dword ptr [esp + 4], eax        # 4-byte Spill
	jmp	.LBB55_3
.LBB55_2:
	mov	ecx, dword ptr [esp + 8]
	mov	edx, dword ptr [esp + 12]
	xor	eax, eax
	neg	ecx
	sbb	eax, edx
	mov	dword ptr [esp], ecx            # 4-byte Spill
	mov	dword ptr [esp + 4], eax        # 4-byte Spill
	jmp	.LBB55_3
.LBB55_3:
	mov	eax, dword ptr [esp]            # 4-byte Reload
	mov	edx, dword ptr [esp + 4]        # 4-byte Reload
	mov	esp, ebp
	pop	ebp
	.cfi_def_cfa esp, 4
	fldz
	fldz
	fldz
	fldz
	fldz
	fldz
	fldz
	fstp	st(0)
	fstp	st(0)
	fstp	st(0)
	fstp	st(0)
	fstp	st(0)
	fstp	st(0)
	fstp	st(0)
	xor	ecx, ecx
	jmp	__x86_return_thunk              # TAILCALL
.Lfunc_end55:
	.size	llabs, .Lfunc_end55-llabs
	.cfi_endproc
                                        # -- End function
	.globl	lldiv                           # -- Begin function lldiv
	.p2align	4, 0x90
	.type	lldiv,@function
lldiv:                                  # @lldiv
	.cfi_startproc
# %bb.0:
	push	ebp
	.cfi_def_cfa_offset 8
	.cfi_offset ebp, -8
	mov	ebp, esp
	.cfi_def_cfa_register ebp
	push	edi
	push	esi
	and	esp, -8
	sub	esp, 48
	.cfi_offset esi, -16
	.cfi_offset edi, -12
	mov	eax, dword ptr [ebp + 8]
	mov	dword ptr [esp + 20], eax       # 4-byte Spill
	mov	dword ptr [esp + 24], eax       # 4-byte Spill
	mov	eax, dword ptr [ebp + 20]
	mov	ecx, dword ptr [ebp + 24]
	mov	esi, dword ptr [ebp + 12]
	mov	edx, dword ptr [ebp + 16]
	mov	dword ptr [esp + 40], esi
	mov	dword ptr [esp + 44], edx
	mov	dword ptr [esp + 36], ecx
	mov	dword ptr [esp + 32], eax
	mov	eax, dword ptr [.L__profc_lldiv]
	add	eax, 1
	adc	dword ptr [.L__profc_lldiv+4], 0
	mov	dword ptr [.L__profc_lldiv], eax
	mov	ecx, dword ptr [esp + 40]
	mov	edx, dword ptr [esp + 44]
	mov	esi, dword ptr [esp + 32]
	mov	edi, dword ptr [esp + 36]
	mov	eax, esp
	mov	dword ptr [eax + 12], edi
	mov	dword ptr [eax + 8], esi
	mov	dword ptr [eax + 4], edx
	mov	dword ptr [eax], ecx
	call	__divdi3
	mov	ecx, eax
	mov	eax, dword ptr [esp + 20]       # 4-byte Reload
	mov	dword ptr [eax + 4], edx
	mov	dword ptr [eax], ecx
	mov	ecx, dword ptr [esp + 40]
	mov	edx, dword ptr [esp + 44]
	mov	esi, dword ptr [esp + 32]
	mov	edi, dword ptr [esp + 36]
	mov	eax, esp
	mov	dword ptr [eax + 12], edi
	mov	dword ptr [eax + 8], esi
	mov	dword ptr [eax + 4], edx
	mov	dword ptr [eax], ecx
	call	__moddi3
	mov	ecx, dword ptr [esp + 20]       # 4-byte Reload
	mov	esi, eax
	mov	eax, dword ptr [esp + 24]       # 4-byte Reload
	mov	dword ptr [esp + 28], esi       # 4-byte Spill
	mov	esi, edx
	mov	edx, dword ptr [esp + 28]       # 4-byte Reload
	mov	dword ptr [ecx + 12], esi
	mov	dword ptr [ecx + 8], edx
	lea	esp, [ebp - 8]
	pop	esi
	pop	edi
	pop	ebp
	.cfi_def_cfa esp, 4
	fldz
	fldz
	fldz
	fldz
	fldz
	fldz
	fldz
	fstp	st(0)
	fstp	st(0)
	fstp	st(0)
	fstp	st(0)
	fstp	st(0)
	fstp	st(0)
	fstp	st(0)
	xor	ecx, ecx
	xor	edx, edx
	ret	4
	int3
.Lfunc_end56:
	.size	lldiv, .Lfunc_end56-lldiv
	.cfi_endproc
                                        # -- End function
	.globl	wcschr                          # -- Begin function wcschr
	.p2align	4, 0x90
	.type	wcschr,@function
wcschr:                                 # @wcschr
	.cfi_startproc
# %bb.0:
	push	ebp
	.cfi_def_cfa_offset 8
	.cfi_offset ebp, -8
	mov	ebp, esp
	.cfi_def_cfa_register ebp
	sub	esp, 8
	mov	eax, dword ptr [ebp + 12]
	mov	eax, dword ptr [ebp + 8]
	mov	eax, dword ptr [.L__profc_wcschr]
	add	eax, 1
	adc	dword ptr [.L__profc_wcschr+4], 0
	mov	dword ptr [.L__profc_wcschr], eax
.LBB57_1:                               # =>This Inner Loop Header: Depth=1
	mov	ecx, dword ptr [ebp + 8]
	xor	eax, eax
                                        # kill: def $al killed $al killed $eax
	cmp	dword ptr [ecx], 0
	mov	byte ptr [ebp - 1], al          # 1-byte Spill
	je	.LBB57_4
# %bb.2:                                #   in Loop: Header=BB57_1 Depth=1
	mov	eax, dword ptr [.L__profc_wcschr+16]
	add	eax, 1
	adc	dword ptr [.L__profc_wcschr+20], 0
	mov	dword ptr [.L__profc_wcschr+16], eax
	mov	eax, dword ptr [ebp + 8]
	mov	eax, dword ptr [eax]
	cmp	eax, dword ptr [ebp + 12]
	setne	al
	mov	byte ptr [ebp - 2], al          # 1-byte Spill
	test	al, 1
	mov	byte ptr [ebp - 1], al          # 1-byte Spill
	jne	.LBB57_3
	jmp	.LBB57_4
.LBB57_3:                               #   in Loop: Header=BB57_1 Depth=1
	mov	al, byte ptr [ebp - 2]          # 1-byte Reload
	mov	ecx, dword ptr [.L__profc_wcschr+24]
	add	ecx, 1
	adc	dword ptr [.L__profc_wcschr+28], 0
	mov	dword ptr [.L__profc_wcschr+24], ecx
	mov	byte ptr [ebp - 1], al          # 1-byte Spill
.LBB57_4:                               #   in Loop: Header=BB57_1 Depth=1
	mov	al, byte ptr [ebp - 1]          # 1-byte Reload
	test	al, 1
	jne	.LBB57_5
	jmp	.LBB57_7
.LBB57_5:                               #   in Loop: Header=BB57_1 Depth=1
	mov	eax, dword ptr [.L__profc_wcschr+8]
	add	eax, 1
	adc	dword ptr [.L__profc_wcschr+12], 0
	mov	dword ptr [.L__profc_wcschr+8], eax
# %bb.6:                                #   in Loop: Header=BB57_1 Depth=1
	mov	eax, dword ptr [ebp + 8]
	add	eax, 4
	mov	dword ptr [ebp + 8], eax
	jmp	.LBB57_1
.LBB57_7:
	mov	eax, dword ptr [ebp + 8]
	cmp	dword ptr [eax], 0
	je	.LBB57_9
# %bb.8:
	mov	eax, dword ptr [.L__profc_wcschr+32]
	add	eax, 1
	adc	dword ptr [.L__profc_wcschr+36], 0
	mov	dword ptr [.L__profc_wcschr+32], eax
	mov	eax, dword ptr [ebp + 8]
	mov	dword ptr [ebp - 8], eax        # 4-byte Spill
	jmp	.LBB57_10
.LBB57_9:
	xor	eax, eax
	mov	dword ptr [ebp - 8], eax        # 4-byte Spill
	jmp	.LBB57_10
.LBB57_10:
	mov	eax, dword ptr [ebp - 8]        # 4-byte Reload
	add	esp, 8
	pop	ebp
	.cfi_def_cfa esp, 4
	fldz
	fldz
	fldz
	fldz
	fldz
	fldz
	fldz
	fstp	st(0)
	fstp	st(0)
	fstp	st(0)
	fstp	st(0)
	fstp	st(0)
	fstp	st(0)
	fstp	st(0)
	xor	ecx, ecx
	xor	edx, edx
	jmp	__x86_return_thunk              # TAILCALL
.Lfunc_end57:
	.size	wcschr, .Lfunc_end57-wcschr
	.cfi_endproc
                                        # -- End function
	.globl	wcscmp                          # -- Begin function wcscmp
	.p2align	4, 0x90
	.type	wcscmp,@function
wcscmp:                                 # @wcscmp
	.cfi_startproc
# %bb.0:
	push	ebp
	.cfi_def_cfa_offset 8
	.cfi_offset ebp, -8
	mov	ebp, esp
	.cfi_def_cfa_register ebp
	sub	esp, 8
	mov	eax, dword ptr [ebp + 12]
	mov	eax, dword ptr [ebp + 8]
	mov	eax, dword ptr [.L__profc_wcscmp]
	add	eax, 1
	adc	dword ptr [.L__profc_wcscmp+4], 0
	mov	dword ptr [.L__profc_wcscmp], eax
.LBB58_1:                               # =>This Inner Loop Header: Depth=1
	mov	eax, dword ptr [ebp + 8]
	mov	ecx, dword ptr [eax]
	mov	edx, dword ptr [ebp + 12]
	xor	eax, eax
                                        # kill: def $al killed $al killed $eax
	cmp	ecx, dword ptr [edx]
	mov	byte ptr [ebp - 1], al          # 1-byte Spill
	jne	.LBB58_6
# %bb.2:                                #   in Loop: Header=BB58_1 Depth=1
	mov	eax, dword ptr [.L__profc_wcscmp+32]
	add	eax, 1
	adc	dword ptr [.L__profc_wcscmp+36], 0
	mov	dword ptr [.L__profc_wcscmp+32], eax
	mov	ecx, dword ptr [ebp + 8]
	xor	eax, eax
                                        # kill: def $al killed $al killed $eax
	cmp	dword ptr [ecx], 0
	mov	byte ptr [ebp - 1], al          # 1-byte Spill
	je	.LBB58_6
# %bb.3:                                #   in Loop: Header=BB58_1 Depth=1
	mov	eax, dword ptr [.L__profc_wcscmp+40]
	add	eax, 1
	adc	dword ptr [.L__profc_wcscmp+44], 0
	mov	dword ptr [.L__profc_wcscmp+40], eax
# %bb.4:                                #   in Loop: Header=BB58_1 Depth=1
	mov	eax, dword ptr [.L__profc_wcscmp+16]
	add	eax, 1
	adc	dword ptr [.L__profc_wcscmp+20], 0
	mov	dword ptr [.L__profc_wcscmp+16], eax
	mov	eax, dword ptr [ebp + 12]
	cmp	dword ptr [eax], 0
	setne	al
	mov	byte ptr [ebp - 2], al          # 1-byte Spill
	test	al, 1
	mov	byte ptr [ebp - 1], al          # 1-byte Spill
	jne	.LBB58_5
	jmp	.LBB58_6
.LBB58_5:                               #   in Loop: Header=BB58_1 Depth=1
	mov	al, byte ptr [ebp - 2]          # 1-byte Reload
	mov	ecx, dword ptr [.L__profc_wcscmp+24]
	add	ecx, 1
	adc	dword ptr [.L__profc_wcscmp+28], 0
	mov	dword ptr [.L__profc_wcscmp+24], ecx
	mov	byte ptr [ebp - 1], al          # 1-byte Spill
.LBB58_6:                               #   in Loop: Header=BB58_1 Depth=1
	mov	al, byte ptr [ebp - 1]          # 1-byte Reload
	test	al, 1
	jne	.LBB58_7
	jmp	.LBB58_9
.LBB58_7:                               #   in Loop: Header=BB58_1 Depth=1
	mov	eax, dword ptr [.L__profc_wcscmp+8]
	add	eax, 1
	adc	dword ptr [.L__profc_wcscmp+12], 0
	mov	dword ptr [.L__profc_wcscmp+8], eax
# %bb.8:                                #   in Loop: Header=BB58_1 Depth=1
	mov	eax, dword ptr [ebp + 8]
	add	eax, 4
	mov	dword ptr [ebp + 8], eax
	mov	eax, dword ptr [ebp + 12]
	add	eax, 4
	mov	dword ptr [ebp + 12], eax
	jmp	.LBB58_1
.LBB58_9:
	mov	eax, dword ptr [ebp + 8]
	mov	eax, dword ptr [eax]
	mov	ecx, dword ptr [ebp + 12]
	cmp	eax, dword ptr [ecx]
	jge	.LBB58_11
# %bb.10:
	mov	eax, dword ptr [.L__profc_wcscmp+48]
	add	eax, 1
	adc	dword ptr [.L__profc_wcscmp+52], 0
	mov	dword ptr [.L__profc_wcscmp+48], eax
	mov	eax, 4294967295
	mov	dword ptr [ebp - 8], eax        # 4-byte Spill
	jmp	.LBB58_12
.LBB58_11:
	mov	eax, dword ptr [ebp + 8]
	mov	eax, dword ptr [eax]
	mov	ecx, dword ptr [ebp + 12]
	cmp	eax, dword ptr [ecx]
	setg	al
	and	al, 1
	movzx	eax, al
	mov	dword ptr [ebp - 8], eax        # 4-byte Spill
.LBB58_12:
	mov	eax, dword ptr [ebp - 8]        # 4-byte Reload
	add	esp, 8
	pop	ebp
	.cfi_def_cfa esp, 4
	fldz
	fldz
	fldz
	fldz
	fldz
	fldz
	fldz
	fstp	st(0)
	fstp	st(0)
	fstp	st(0)
	fstp	st(0)
	fstp	st(0)
	fstp	st(0)
	fstp	st(0)
	xor	ecx, ecx
	xor	edx, edx
	jmp	__x86_return_thunk              # TAILCALL
.Lfunc_end58:
	.size	wcscmp, .Lfunc_end58-wcscmp
	.cfi_endproc
                                        # -- End function
	.globl	wcscpy                          # -- Begin function wcscpy
	.p2align	4, 0x90
	.type	wcscpy,@function
wcscpy:                                 # @wcscpy
	.cfi_startproc
# %bb.0:
	push	ebp
	.cfi_def_cfa_offset 8
	.cfi_offset ebp, -8
	mov	ebp, esp
	.cfi_def_cfa_register ebp
	push	eax
	mov	eax, dword ptr [ebp + 12]
	mov	eax, dword ptr [ebp + 8]
	mov	eax, dword ptr [.L__profc_wcscpy]
	add	eax, 1
	adc	dword ptr [.L__profc_wcscpy+4], 0
	mov	dword ptr [.L__profc_wcscpy], eax
	mov	eax, dword ptr [ebp + 8]
	mov	dword ptr [ebp - 4], eax
.LBB59_1:                               # =>This Inner Loop Header: Depth=1
	mov	eax, dword ptr [ebp + 12]
	mov	ecx, eax
	add	ecx, 4
	mov	dword ptr [ebp + 12], ecx
	mov	eax, dword ptr [eax]
	mov	ecx, dword ptr [ebp + 8]
	mov	edx, ecx
	add	edx, 4
	mov	dword ptr [ebp + 8], edx
	mov	dword ptr [ecx], eax
	cmp	eax, 0
	je	.LBB59_3
# %bb.2:                                #   in Loop: Header=BB59_1 Depth=1
	mov	eax, dword ptr [.L__profc_wcscpy+8]
	add	eax, 1
	adc	dword ptr [.L__profc_wcscpy+12], 0
	mov	dword ptr [.L__profc_wcscpy+8], eax
	jmp	.LBB59_1
.LBB59_3:
	mov	eax, dword ptr [ebp - 4]
	add	esp, 4
	pop	ebp
	.cfi_def_cfa esp, 4
	fldz
	fldz
	fldz
	fldz
	fldz
	fldz
	fldz
	fstp	st(0)
	fstp	st(0)
	fstp	st(0)
	fstp	st(0)
	fstp	st(0)
	fstp	st(0)
	fstp	st(0)
	xor	ecx, ecx
	xor	edx, edx
	jmp	__x86_return_thunk              # TAILCALL
.Lfunc_end59:
	.size	wcscpy, .Lfunc_end59-wcscpy
	.cfi_endproc
                                        # -- End function
	.globl	wcslen                          # -- Begin function wcslen
	.p2align	4, 0x90
	.type	wcslen,@function
wcslen:                                 # @wcslen
	.cfi_startproc
# %bb.0:
	push	ebp
	.cfi_def_cfa_offset 8
	.cfi_offset ebp, -8
	mov	ebp, esp
	.cfi_def_cfa_register ebp
	push	eax
	mov	eax, dword ptr [ebp + 8]
	mov	eax, dword ptr [.L__profc_wcslen]
	add	eax, 1
	adc	dword ptr [.L__profc_wcslen+4], 0
	mov	dword ptr [.L__profc_wcslen], eax
	mov	eax, dword ptr [ebp + 8]
	mov	dword ptr [ebp - 4], eax
.LBB60_1:                               # =>This Inner Loop Header: Depth=1
	mov	eax, dword ptr [ebp + 8]
	cmp	dword ptr [eax], 0
	je	.LBB60_4
# %bb.2:                                #   in Loop: Header=BB60_1 Depth=1
	mov	eax, dword ptr [.L__profc_wcslen+8]
	add	eax, 1
	adc	dword ptr [.L__profc_wcslen+12], 0
	mov	dword ptr [.L__profc_wcslen+8], eax
# %bb.3:                                #   in Loop: Header=BB60_1 Depth=1
	mov	eax, dword ptr [ebp + 8]
	add	eax, 4
	mov	dword ptr [ebp + 8], eax
	jmp	.LBB60_1
.LBB60_4:
	mov	eax, dword ptr [ebp + 8]
	mov	ecx, dword ptr [ebp - 4]
	sub	eax, ecx
	sar	eax, 2
	add	esp, 4
	pop	ebp
	.cfi_def_cfa esp, 4
	fldz
	fldz
	fldz
	fldz
	fldz
	fldz
	fldz
	fstp	st(0)
	fstp	st(0)
	fstp	st(0)
	fstp	st(0)
	fstp	st(0)
	fstp	st(0)
	fstp	st(0)
	xor	ecx, ecx
	xor	edx, edx
	jmp	__x86_return_thunk              # TAILCALL
.Lfunc_end60:
	.size	wcslen, .Lfunc_end60-wcslen
	.cfi_endproc
                                        # -- End function
	.globl	wcsncmp                         # -- Begin function wcsncmp
	.p2align	4, 0x90
	.type	wcsncmp,@function
wcsncmp:                                # @wcsncmp
	.cfi_startproc
# %bb.0:
	push	ebp
	.cfi_def_cfa_offset 8
	.cfi_offset ebp, -8
	mov	ebp, esp
	.cfi_def_cfa_register ebp
	sub	esp, 12
	mov	eax, dword ptr [ebp + 16]
	mov	eax, dword ptr [ebp + 12]
	mov	eax, dword ptr [ebp + 8]
	mov	eax, dword ptr [.L__profc_wcsncmp]
	add	eax, 1
	adc	dword ptr [.L__profc_wcsncmp+4], 0
	mov	dword ptr [.L__profc_wcsncmp], eax
.LBB61_1:                               # =>This Inner Loop Header: Depth=1
	xor	eax, eax
                                        # kill: def $al killed $al killed $eax
	cmp	dword ptr [ebp + 16], 0
	mov	byte ptr [ebp - 1], al          # 1-byte Spill
	je	.LBB61_8
# %bb.2:                                #   in Loop: Header=BB61_1 Depth=1
	mov	eax, dword ptr [.L__profc_wcsncmp+48]
	add	eax, 1
	adc	dword ptr [.L__profc_wcsncmp+52], 0
	mov	dword ptr [.L__profc_wcsncmp+48], eax
	mov	eax, dword ptr [ebp + 8]
	mov	ecx, dword ptr [eax]
	mov	edx, dword ptr [ebp + 12]
	xor	eax, eax
                                        # kill: def $al killed $al killed $eax
	cmp	ecx, dword ptr [edx]
	mov	byte ptr [ebp - 1], al          # 1-byte Spill
	jne	.LBB61_8
# %bb.3:                                #   in Loop: Header=BB61_1 Depth=1
	mov	eax, dword ptr [.L__profc_wcsncmp+56]
	add	eax, 1
	adc	dword ptr [.L__profc_wcsncmp+60], 0
	mov	dword ptr [.L__profc_wcsncmp+56], eax
# %bb.4:                                #   in Loop: Header=BB61_1 Depth=1
	mov	eax, dword ptr [.L__profc_wcsncmp+32]
	add	eax, 1
	adc	dword ptr [.L__profc_wcsncmp+36], 0
	mov	dword ptr [.L__profc_wcsncmp+32], eax
	mov	ecx, dword ptr [ebp + 8]
	xor	eax, eax
                                        # kill: def $al killed $al killed $eax
	cmp	dword ptr [ecx], 0
	mov	byte ptr [ebp - 1], al          # 1-byte Spill
	je	.LBB61_8
# %bb.5:                                #   in Loop: Header=BB61_1 Depth=1
	mov	eax, dword ptr [.L__profc_wcsncmp+40]
	add	eax, 1
	adc	dword ptr [.L__profc_wcsncmp+44], 0
	mov	dword ptr [.L__profc_wcsncmp+40], eax
# %bb.6:                                #   in Loop: Header=BB61_1 Depth=1
	mov	eax, dword ptr [.L__profc_wcsncmp+16]
	add	eax, 1
	adc	dword ptr [.L__profc_wcsncmp+20], 0
	mov	dword ptr [.L__profc_wcsncmp+16], eax
	mov	eax, dword ptr [ebp + 12]
	cmp	dword ptr [eax], 0
	setne	al
	mov	byte ptr [ebp - 2], al          # 1-byte Spill
	test	al, 1
	mov	byte ptr [ebp - 1], al          # 1-byte Spill
	jne	.LBB61_7
	jmp	.LBB61_8
.LBB61_7:                               #   in Loop: Header=BB61_1 Depth=1
	mov	al, byte ptr [ebp - 2]          # 1-byte Reload
	mov	ecx, dword ptr [.L__profc_wcsncmp+24]
	add	ecx, 1
	adc	dword ptr [.L__profc_wcsncmp+28], 0
	mov	dword ptr [.L__profc_wcsncmp+24], ecx
	mov	byte ptr [ebp - 1], al          # 1-byte Spill
.LBB61_8:                               #   in Loop: Header=BB61_1 Depth=1
	mov	al, byte ptr [ebp - 1]          # 1-byte Reload
	test	al, 1
	jne	.LBB61_9
	jmp	.LBB61_11
.LBB61_9:                               #   in Loop: Header=BB61_1 Depth=1
	mov	eax, dword ptr [.L__profc_wcsncmp+8]
	add	eax, 1
	adc	dword ptr [.L__profc_wcsncmp+12], 0
	mov	dword ptr [.L__profc_wcsncmp+8], eax
# %bb.10:                               #   in Loop: Header=BB61_1 Depth=1
	mov	eax, dword ptr [ebp + 16]
	add	eax, -1
	mov	dword ptr [ebp + 16], eax
	mov	eax, dword ptr [ebp + 8]
	add	eax, 4
	mov	dword ptr [ebp + 8], eax
	mov	eax, dword ptr [ebp + 12]
	add	eax, 4
	mov	dword ptr [ebp + 12], eax
	jmp	.LBB61_1
.LBB61_11:
	cmp	dword ptr [ebp + 16], 0
	je	.LBB61_16
# %bb.12:
	mov	eax, dword ptr [.L__profc_wcsncmp+64]
	add	eax, 1
	adc	dword ptr [.L__profc_wcsncmp+68], 0
	mov	dword ptr [.L__profc_wcsncmp+64], eax
	mov	eax, dword ptr [ebp + 8]
	mov	eax, dword ptr [eax]
	mov	ecx, dword ptr [ebp + 12]
	cmp	eax, dword ptr [ecx]
	jge	.LBB61_14
# %bb.13:
	mov	eax, dword ptr [.L__profc_wcsncmp+72]
	add	eax, 1
	adc	dword ptr [.L__profc_wcsncmp+76], 0
	mov	dword ptr [.L__profc_wcsncmp+72], eax
	mov	eax, 4294967295
	mov	dword ptr [ebp - 8], eax        # 4-byte Spill
	jmp	.LBB61_15
.LBB61_14:
	mov	eax, dword ptr [ebp + 8]
	mov	eax, dword ptr [eax]
	mov	ecx, dword ptr [ebp + 12]
	cmp	eax, dword ptr [ecx]
	setg	al
	and	al, 1
	movzx	eax, al
	mov	dword ptr [ebp - 8], eax        # 4-byte Spill
.LBB61_15:
	mov	eax, dword ptr [ebp - 8]        # 4-byte Reload
	mov	dword ptr [ebp - 12], eax       # 4-byte Spill
	jmp	.LBB61_17
.LBB61_16:
	xor	eax, eax
	mov	dword ptr [ebp - 12], eax       # 4-byte Spill
	jmp	.LBB61_17
.LBB61_17:
	mov	eax, dword ptr [ebp - 12]       # 4-byte Reload
	add	esp, 12
	pop	ebp
	.cfi_def_cfa esp, 4
	fldz
	fldz
	fldz
	fldz
	fldz
	fldz
	fldz
	fstp	st(0)
	fstp	st(0)
	fstp	st(0)
	fstp	st(0)
	fstp	st(0)
	fstp	st(0)
	fstp	st(0)
	xor	ecx, ecx
	xor	edx, edx
	jmp	__x86_return_thunk              # TAILCALL
.Lfunc_end61:
	.size	wcsncmp, .Lfunc_end61-wcsncmp
	.cfi_endproc
                                        # -- End function
	.globl	wmemchr                         # -- Begin function wmemchr
	.p2align	4, 0x90
	.type	wmemchr,@function
wmemchr:                                # @wmemchr
	.cfi_startproc
# %bb.0:
	push	ebp
	.cfi_def_cfa_offset 8
	.cfi_offset ebp, -8
	mov	ebp, esp
	.cfi_def_cfa_register ebp
	sub	esp, 8
	mov	eax, dword ptr [ebp + 16]
	mov	eax, dword ptr [ebp + 12]
	mov	eax, dword ptr [ebp + 8]
	mov	eax, dword ptr [.L__profc_wmemchr]
	add	eax, 1
	adc	dword ptr [.L__profc_wmemchr+4], 0
	mov	dword ptr [.L__profc_wmemchr], eax
.LBB62_1:                               # =>This Inner Loop Header: Depth=1
	xor	eax, eax
                                        # kill: def $al killed $al killed $eax
	cmp	dword ptr [ebp + 16], 0
	mov	byte ptr [ebp - 1], al          # 1-byte Spill
	je	.LBB62_4
# %bb.2:                                #   in Loop: Header=BB62_1 Depth=1
	mov	eax, dword ptr [.L__profc_wmemchr+16]
	add	eax, 1
	adc	dword ptr [.L__profc_wmemchr+20], 0
	mov	dword ptr [.L__profc_wmemchr+16], eax
	mov	eax, dword ptr [ebp + 8]
	mov	eax, dword ptr [eax]
	cmp	eax, dword ptr [ebp + 12]
	setne	al
	mov	byte ptr [ebp - 2], al          # 1-byte Spill
	test	al, 1
	mov	byte ptr [ebp - 1], al          # 1-byte Spill
	jne	.LBB62_3
	jmp	.LBB62_4
.LBB62_3:                               #   in Loop: Header=BB62_1 Depth=1
	mov	al, byte ptr [ebp - 2]          # 1-byte Reload
	mov	ecx, dword ptr [.L__profc_wmemchr+24]
	add	ecx, 1
	adc	dword ptr [.L__profc_wmemchr+28], 0
	mov	dword ptr [.L__profc_wmemchr+24], ecx
	mov	byte ptr [ebp - 1], al          # 1-byte Spill
.LBB62_4:                               #   in Loop: Header=BB62_1 Depth=1
	mov	al, byte ptr [ebp - 1]          # 1-byte Reload
	test	al, 1
	jne	.LBB62_5
	jmp	.LBB62_7
.LBB62_5:                               #   in Loop: Header=BB62_1 Depth=1
	mov	eax, dword ptr [.L__profc_wmemchr+8]
	add	eax, 1
	adc	dword ptr [.L__profc_wmemchr+12], 0
	mov	dword ptr [.L__profc_wmemchr+8], eax
# %bb.6:                                #   in Loop: Header=BB62_1 Depth=1
	mov	eax, dword ptr [ebp + 16]
	add	eax, -1
	mov	dword ptr [ebp + 16], eax
	mov	eax, dword ptr [ebp + 8]
	add	eax, 4
	mov	dword ptr [ebp + 8], eax
	jmp	.LBB62_1
.LBB62_7:
	cmp	dword ptr [ebp + 16], 0
	je	.LBB62_9
# %bb.8:
	mov	eax, dword ptr [.L__profc_wmemchr+32]
	add	eax, 1
	adc	dword ptr [.L__profc_wmemchr+36], 0
	mov	dword ptr [.L__profc_wmemchr+32], eax
	mov	eax, dword ptr [ebp + 8]
	mov	dword ptr [ebp - 8], eax        # 4-byte Spill
	jmp	.LBB62_10
.LBB62_9:
	xor	eax, eax
	mov	dword ptr [ebp - 8], eax        # 4-byte Spill
	jmp	.LBB62_10
.LBB62_10:
	mov	eax, dword ptr [ebp - 8]        # 4-byte Reload
	add	esp, 8
	pop	ebp
	.cfi_def_cfa esp, 4
	fldz
	fldz
	fldz
	fldz
	fldz
	fldz
	fldz
	fstp	st(0)
	fstp	st(0)
	fstp	st(0)
	fstp	st(0)
	fstp	st(0)
	fstp	st(0)
	fstp	st(0)
	xor	ecx, ecx
	xor	edx, edx
	jmp	__x86_return_thunk              # TAILCALL
.Lfunc_end62:
	.size	wmemchr, .Lfunc_end62-wmemchr
	.cfi_endproc
                                        # -- End function
	.globl	wmemcmp                         # -- Begin function wmemcmp
	.p2align	4, 0x90
	.type	wmemcmp,@function
wmemcmp:                                # @wmemcmp
	.cfi_startproc
# %bb.0:
	push	ebp
	.cfi_def_cfa_offset 8
	.cfi_offset ebp, -8
	mov	ebp, esp
	.cfi_def_cfa_register ebp
	sub	esp, 12
	mov	eax, dword ptr [ebp + 16]
	mov	eax, dword ptr [ebp + 12]
	mov	eax, dword ptr [ebp + 8]
	mov	eax, dword ptr [.L__profc_wmemcmp]
	add	eax, 1
	adc	dword ptr [.L__profc_wmemcmp+4], 0
	mov	dword ptr [.L__profc_wmemcmp], eax
.LBB63_1:                               # =>This Inner Loop Header: Depth=1
	xor	eax, eax
                                        # kill: def $al killed $al killed $eax
	cmp	dword ptr [ebp + 16], 0
	mov	byte ptr [ebp - 1], al          # 1-byte Spill
	je	.LBB63_4
# %bb.2:                                #   in Loop: Header=BB63_1 Depth=1
	mov	eax, dword ptr [.L__profc_wmemcmp+16]
	add	eax, 1
	adc	dword ptr [.L__profc_wmemcmp+20], 0
	mov	dword ptr [.L__profc_wmemcmp+16], eax
	mov	eax, dword ptr [ebp + 8]
	mov	eax, dword ptr [eax]
	mov	ecx, dword ptr [ebp + 12]
	cmp	eax, dword ptr [ecx]
	sete	al
	mov	byte ptr [ebp - 2], al          # 1-byte Spill
	test	al, 1
	mov	byte ptr [ebp - 1], al          # 1-byte Spill
	jne	.LBB63_3
	jmp	.LBB63_4
.LBB63_3:                               #   in Loop: Header=BB63_1 Depth=1
	mov	al, byte ptr [ebp - 2]          # 1-byte Reload
	mov	ecx, dword ptr [.L__profc_wmemcmp+24]
	add	ecx, 1
	adc	dword ptr [.L__profc_wmemcmp+28], 0
	mov	dword ptr [.L__profc_wmemcmp+24], ecx
	mov	byte ptr [ebp - 1], al          # 1-byte Spill
.LBB63_4:                               #   in Loop: Header=BB63_1 Depth=1
	mov	al, byte ptr [ebp - 1]          # 1-byte Reload
	test	al, 1
	jne	.LBB63_5
	jmp	.LBB63_7
.LBB63_5:                               #   in Loop: Header=BB63_1 Depth=1
	mov	eax, dword ptr [.L__profc_wmemcmp+8]
	add	eax, 1
	adc	dword ptr [.L__profc_wmemcmp+12], 0
	mov	dword ptr [.L__profc_wmemcmp+8], eax
# %bb.6:                                #   in Loop: Header=BB63_1 Depth=1
	mov	eax, dword ptr [ebp + 16]
	add	eax, -1
	mov	dword ptr [ebp + 16], eax
	mov	eax, dword ptr [ebp + 8]
	add	eax, 4
	mov	dword ptr [ebp + 8], eax
	mov	eax, dword ptr [ebp + 12]
	add	eax, 4
	mov	dword ptr [ebp + 12], eax
	jmp	.LBB63_1
.LBB63_7:
	cmp	dword ptr [ebp + 16], 0
	je	.LBB63_12
# %bb.8:
	mov	eax, dword ptr [.L__profc_wmemcmp+32]
	add	eax, 1
	adc	dword ptr [.L__profc_wmemcmp+36], 0
	mov	dword ptr [.L__profc_wmemcmp+32], eax
	mov	eax, dword ptr [ebp + 8]
	mov	eax, dword ptr [eax]
	mov	ecx, dword ptr [ebp + 12]
	cmp	eax, dword ptr [ecx]
	jge	.LBB63_10
# %bb.9:
	mov	eax, dword ptr [.L__profc_wmemcmp+40]
	add	eax, 1
	adc	dword ptr [.L__profc_wmemcmp+44], 0
	mov	dword ptr [.L__profc_wmemcmp+40], eax
	mov	eax, 4294967295
	mov	dword ptr [ebp - 8], eax        # 4-byte Spill
	jmp	.LBB63_11
.LBB63_10:
	mov	eax, dword ptr [ebp + 8]
	mov	eax, dword ptr [eax]
	mov	ecx, dword ptr [ebp + 12]
	cmp	eax, dword ptr [ecx]
	setg	al
	and	al, 1
	movzx	eax, al
	mov	dword ptr [ebp - 8], eax        # 4-byte Spill
.LBB63_11:
	mov	eax, dword ptr [ebp - 8]        # 4-byte Reload
	mov	dword ptr [ebp - 12], eax       # 4-byte Spill
	jmp	.LBB63_13
.LBB63_12:
	xor	eax, eax
	mov	dword ptr [ebp - 12], eax       # 4-byte Spill
	jmp	.LBB63_13
.LBB63_13:
	mov	eax, dword ptr [ebp - 12]       # 4-byte Reload
	add	esp, 12
	pop	ebp
	.cfi_def_cfa esp, 4
	fldz
	fldz
	fldz
	fldz
	fldz
	fldz
	fldz
	fstp	st(0)
	fstp	st(0)
	fstp	st(0)
	fstp	st(0)
	fstp	st(0)
	fstp	st(0)
	fstp	st(0)
	xor	ecx, ecx
	xor	edx, edx
	jmp	__x86_return_thunk              # TAILCALL
.Lfunc_end63:
	.size	wmemcmp, .Lfunc_end63-wmemcmp
	.cfi_endproc
                                        # -- End function
	.globl	wmemcpy                         # -- Begin function wmemcpy
	.p2align	4, 0x90
	.type	wmemcpy,@function
wmemcpy:                                # @wmemcpy
	.cfi_startproc
# %bb.0:
	push	ebp
	.cfi_def_cfa_offset 8
	.cfi_offset ebp, -8
	mov	ebp, esp
	.cfi_def_cfa_register ebp
	push	eax
	mov	eax, dword ptr [ebp + 16]
	mov	eax, dword ptr [ebp + 12]
	mov	eax, dword ptr [ebp + 8]
	mov	eax, dword ptr [.L__profc_wmemcpy]
	add	eax, 1
	adc	dword ptr [.L__profc_wmemcpy+4], 0
	mov	dword ptr [.L__profc_wmemcpy], eax
	mov	eax, dword ptr [ebp + 8]
	mov	dword ptr [ebp - 4], eax
.LBB64_1:                               # =>This Inner Loop Header: Depth=1
	mov	eax, dword ptr [ebp + 16]
	mov	ecx, eax
	add	ecx, -1
	mov	dword ptr [ebp + 16], ecx
	cmp	eax, 0
	je	.LBB64_3
# %bb.2:                                #   in Loop: Header=BB64_1 Depth=1
	mov	eax, dword ptr [.L__profc_wmemcpy+8]
	add	eax, 1
	adc	dword ptr [.L__profc_wmemcpy+12], 0
	mov	dword ptr [.L__profc_wmemcpy+8], eax
	mov	eax, dword ptr [ebp + 12]
	mov	ecx, eax
	add	ecx, 4
	mov	dword ptr [ebp + 12], ecx
	mov	ecx, dword ptr [eax]
	mov	eax, dword ptr [ebp + 8]
	mov	edx, eax
	add	edx, 4
	mov	dword ptr [ebp + 8], edx
	mov	dword ptr [eax], ecx
	jmp	.LBB64_1
.LBB64_3:
	mov	eax, dword ptr [ebp - 4]
	add	esp, 4
	pop	ebp
	.cfi_def_cfa esp, 4
	fldz
	fldz
	fldz
	fldz
	fldz
	fldz
	fldz
	fstp	st(0)
	fstp	st(0)
	fstp	st(0)
	fstp	st(0)
	fstp	st(0)
	fstp	st(0)
	fstp	st(0)
	xor	ecx, ecx
	xor	edx, edx
	jmp	__x86_return_thunk              # TAILCALL
.Lfunc_end64:
	.size	wmemcpy, .Lfunc_end64-wmemcpy
	.cfi_endproc
                                        # -- End function
	.globl	wmemmove                        # -- Begin function wmemmove
	.p2align	4, 0x90
	.type	wmemmove,@function
wmemmove:                               # @wmemmove
	.cfi_startproc
# %bb.0:
	push	ebp
	.cfi_def_cfa_offset 8
	.cfi_offset ebp, -8
	mov	ebp, esp
	.cfi_def_cfa_register ebp
	sub	esp, 8
	mov	eax, dword ptr [ebp + 16]
	mov	eax, dword ptr [ebp + 12]
	mov	eax, dword ptr [ebp + 8]
	mov	eax, dword ptr [.L__profc_wmemmove]
	add	eax, 1
	adc	dword ptr [.L__profc_wmemmove+4], 0
	mov	dword ptr [.L__profc_wmemmove], eax
	mov	eax, dword ptr [ebp + 8]
	mov	dword ptr [ebp - 8], eax
	mov	eax, dword ptr [ebp + 8]
	cmp	eax, dword ptr [ebp + 12]
	jne	.LBB65_2
# %bb.1:
	mov	eax, dword ptr [.L__profc_wmemmove+8]
	add	eax, 1
	adc	dword ptr [.L__profc_wmemmove+12], 0
	mov	dword ptr [.L__profc_wmemmove+8], eax
	mov	eax, dword ptr [ebp + 8]
	mov	dword ptr [ebp - 4], eax
	jmp	.LBB65_12
.LBB65_2:
	mov	eax, dword ptr [ebp + 8]
	mov	ecx, dword ptr [ebp + 12]
	sub	eax, ecx
	mov	ecx, dword ptr [ebp + 16]
	shl	ecx, 2
	cmp	eax, ecx
	jae	.LBB65_7
# %bb.3:
	mov	eax, dword ptr [.L__profc_wmemmove+16]
	add	eax, 1
	adc	dword ptr [.L__profc_wmemmove+20], 0
	mov	dword ptr [.L__profc_wmemmove+16], eax
.LBB65_4:                               # =>This Inner Loop Header: Depth=1
	mov	eax, dword ptr [ebp + 16]
	mov	ecx, eax
	add	ecx, -1
	mov	dword ptr [ebp + 16], ecx
	cmp	eax, 0
	je	.LBB65_6
# %bb.5:                                #   in Loop: Header=BB65_4 Depth=1
	mov	eax, dword ptr [.L__profc_wmemmove+24]
	add	eax, 1
	adc	dword ptr [.L__profc_wmemmove+28], 0
	mov	dword ptr [.L__profc_wmemmove+24], eax
	mov	eax, dword ptr [ebp + 12]
	mov	ecx, dword ptr [ebp + 16]
	mov	edx, dword ptr [eax + 4*ecx]
	mov	eax, dword ptr [ebp + 8]
	mov	ecx, dword ptr [ebp + 16]
	mov	dword ptr [eax + 4*ecx], edx
	jmp	.LBB65_4
.LBB65_6:
	jmp	.LBB65_11
.LBB65_7:
	jmp	.LBB65_8
.LBB65_8:                               # =>This Inner Loop Header: Depth=1
	mov	eax, dword ptr [ebp + 16]
	mov	ecx, eax
	add	ecx, -1
	mov	dword ptr [ebp + 16], ecx
	cmp	eax, 0
	je	.LBB65_10
# %bb.9:                                #   in Loop: Header=BB65_8 Depth=1
	mov	eax, dword ptr [.L__profc_wmemmove+32]
	add	eax, 1
	adc	dword ptr [.L__profc_wmemmove+36], 0
	mov	dword ptr [.L__profc_wmemmove+32], eax
	mov	eax, dword ptr [ebp + 12]
	mov	ecx, eax
	add	ecx, 4
	mov	dword ptr [ebp + 12], ecx
	mov	ecx, dword ptr [eax]
	mov	eax, dword ptr [ebp + 8]
	mov	edx, eax
	add	edx, 4
	mov	dword ptr [ebp + 8], edx
	mov	dword ptr [eax], ecx
	jmp	.LBB65_8
.LBB65_10:
	jmp	.LBB65_11
.LBB65_11:
	mov	eax, dword ptr [ebp - 8]
	mov	dword ptr [ebp - 4], eax
.LBB65_12:
	mov	eax, dword ptr [ebp - 4]
	add	esp, 8
	pop	ebp
	.cfi_def_cfa esp, 4
	fldz
	fldz
	fldz
	fldz
	fldz
	fldz
	fldz
	fstp	st(0)
	fstp	st(0)
	fstp	st(0)
	fstp	st(0)
	fstp	st(0)
	fstp	st(0)
	fstp	st(0)
	xor	ecx, ecx
	xor	edx, edx
	jmp	__x86_return_thunk              # TAILCALL
.Lfunc_end65:
	.size	wmemmove, .Lfunc_end65-wmemmove
	.cfi_endproc
                                        # -- End function
	.globl	wmemset                         # -- Begin function wmemset
	.p2align	4, 0x90
	.type	wmemset,@function
wmemset:                                # @wmemset
	.cfi_startproc
# %bb.0:
	push	ebp
	.cfi_def_cfa_offset 8
	.cfi_offset ebp, -8
	mov	ebp, esp
	.cfi_def_cfa_register ebp
	push	eax
	mov	eax, dword ptr [ebp + 16]
	mov	eax, dword ptr [ebp + 12]
	mov	eax, dword ptr [ebp + 8]
	mov	eax, dword ptr [.L__profc_wmemset]
	add	eax, 1
	adc	dword ptr [.L__profc_wmemset+4], 0
	mov	dword ptr [.L__profc_wmemset], eax
	mov	eax, dword ptr [ebp + 8]
	mov	dword ptr [ebp - 4], eax
.LBB66_1:                               # =>This Inner Loop Header: Depth=1
	mov	eax, dword ptr [ebp + 16]
	mov	ecx, eax
	add	ecx, -1
	mov	dword ptr [ebp + 16], ecx
	cmp	eax, 0
	je	.LBB66_3
# %bb.2:                                #   in Loop: Header=BB66_1 Depth=1
	mov	eax, dword ptr [.L__profc_wmemset+8]
	add	eax, 1
	adc	dword ptr [.L__profc_wmemset+12], 0
	mov	dword ptr [.L__profc_wmemset+8], eax
	mov	ecx, dword ptr [ebp + 12]
	mov	eax, dword ptr [ebp + 8]
	mov	edx, eax
	add	edx, 4
	mov	dword ptr [ebp + 8], edx
	mov	dword ptr [eax], ecx
	jmp	.LBB66_1
.LBB66_3:
	mov	eax, dword ptr [ebp - 4]
	add	esp, 4
	pop	ebp
	.cfi_def_cfa esp, 4
	fldz
	fldz
	fldz
	fldz
	fldz
	fldz
	fldz
	fstp	st(0)
	fstp	st(0)
	fstp	st(0)
	fstp	st(0)
	fstp	st(0)
	fstp	st(0)
	fstp	st(0)
	xor	ecx, ecx
	xor	edx, edx
	jmp	__x86_return_thunk              # TAILCALL
.Lfunc_end66:
	.size	wmemset, .Lfunc_end66-wmemset
	.cfi_endproc
                                        # -- End function
	.globl	bcopy                           # -- Begin function bcopy
	.p2align	4, 0x90
	.type	bcopy,@function
bcopy:                                  # @bcopy
	.cfi_startproc
# %bb.0:
	push	ebp
	.cfi_def_cfa_offset 8
	.cfi_offset ebp, -8
	mov	ebp, esp
	.cfi_def_cfa_register ebp
	sub	esp, 8
	mov	eax, dword ptr [ebp + 16]
	mov	eax, dword ptr [ebp + 12]
	mov	eax, dword ptr [ebp + 8]
	mov	eax, dword ptr [.L__profc_bcopy]
	add	eax, 1
	adc	dword ptr [.L__profc_bcopy+4], 0
	mov	dword ptr [.L__profc_bcopy], eax
	mov	eax, dword ptr [ebp + 8]
	mov	dword ptr [ebp - 4], eax
	mov	eax, dword ptr [ebp + 12]
	mov	dword ptr [ebp - 8], eax
	mov	eax, dword ptr [ebp - 4]
	cmp	eax, dword ptr [ebp - 8]
	jae	.LBB67_6
# %bb.1:
	mov	eax, dword ptr [.L__profc_bcopy+8]
	add	eax, 1
	adc	dword ptr [.L__profc_bcopy+12], 0
	mov	dword ptr [.L__profc_bcopy+8], eax
	mov	eax, dword ptr [ebp + 16]
	add	eax, dword ptr [ebp - 4]
	mov	dword ptr [ebp - 4], eax
	mov	eax, dword ptr [ebp + 16]
	add	eax, dword ptr [ebp - 8]
	mov	dword ptr [ebp - 8], eax
.LBB67_2:                               # =>This Inner Loop Header: Depth=1
	cmp	dword ptr [ebp + 16], 0
	je	.LBB67_5
# %bb.3:                                #   in Loop: Header=BB67_2 Depth=1
	mov	eax, dword ptr [.L__profc_bcopy+16]
	add	eax, 1
	adc	dword ptr [.L__profc_bcopy+20], 0
	mov	dword ptr [.L__profc_bcopy+16], eax
	mov	eax, dword ptr [ebp - 4]
	mov	ecx, eax
	add	ecx, -1
	mov	dword ptr [ebp - 4], ecx
	mov	cl, byte ptr [eax - 1]
	mov	eax, dword ptr [ebp - 8]
	mov	edx, eax
	add	edx, -1
	mov	dword ptr [ebp - 8], edx
	mov	byte ptr [eax - 1], cl
# %bb.4:                                #   in Loop: Header=BB67_2 Depth=1
	mov	eax, dword ptr [ebp + 16]
	add	eax, -1
	mov	dword ptr [ebp + 16], eax
	jmp	.LBB67_2
.LBB67_5:
	jmp	.LBB67_13
.LBB67_6:
	mov	eax, dword ptr [ebp - 4]
	cmp	eax, dword ptr [ebp - 8]
	je	.LBB67_12
# %bb.7:
	mov	eax, dword ptr [.L__profc_bcopy+24]
	add	eax, 1
	adc	dword ptr [.L__profc_bcopy+28], 0
	mov	dword ptr [.L__profc_bcopy+24], eax
.LBB67_8:                               # =>This Inner Loop Header: Depth=1
	cmp	dword ptr [ebp + 16], 0
	je	.LBB67_11
# %bb.9:                                #   in Loop: Header=BB67_8 Depth=1
	mov	eax, dword ptr [.L__profc_bcopy+32]
	add	eax, 1
	adc	dword ptr [.L__profc_bcopy+36], 0
	mov	dword ptr [.L__profc_bcopy+32], eax
	mov	eax, dword ptr [ebp - 4]
	mov	ecx, eax
	add	ecx, 1
	mov	dword ptr [ebp - 4], ecx
	mov	cl, byte ptr [eax]
	mov	eax, dword ptr [ebp - 8]
	mov	edx, eax
	add	edx, 1
	mov	dword ptr [ebp - 8], edx
	mov	byte ptr [eax], cl
# %bb.10:                               #   in Loop: Header=BB67_8 Depth=1
	mov	eax, dword ptr [ebp + 16]
	add	eax, -1
	mov	dword ptr [ebp + 16], eax
	jmp	.LBB67_8
.LBB67_11:
	jmp	.LBB67_12
.LBB67_12:
	jmp	.LBB67_13
.LBB67_13:
	add	esp, 8
	pop	ebp
	.cfi_def_cfa esp, 4
	fldz
	fldz
	fldz
	fldz
	fldz
	fldz
	fldz
	fstp	st(0)
	fstp	st(0)
	fstp	st(0)
	fstp	st(0)
	fstp	st(0)
	fstp	st(0)
	fstp	st(0)
	xor	eax, eax
	xor	ecx, ecx
	xor	edx, edx
	jmp	__x86_return_thunk              # TAILCALL
.Lfunc_end67:
	.size	bcopy, .Lfunc_end67-bcopy
	.cfi_endproc
                                        # -- End function
	.globl	rotl64                          # -- Begin function rotl64
	.p2align	4, 0x90
	.type	rotl64,@function
rotl64:                                 # @rotl64
	.cfi_startproc
# %bb.0:
	push	ebp
	.cfi_def_cfa_offset 8
	.cfi_offset ebp, -8
	mov	ebp, esp
	.cfi_def_cfa_register ebp
	push	ebx
	push	edi
	push	esi
	and	esp, -8
	sub	esp, 72
	.cfi_offset esi, -20
	.cfi_offset edi, -16
	.cfi_offset ebx, -12
	mov	ecx, dword ptr [ebp + 8]
	mov	eax, dword ptr [ebp + 12]
	mov	edx, dword ptr [ebp + 16]
	mov	dword ptr [esp + 56], ecx
	mov	dword ptr [esp + 60], eax
	mov	eax, dword ptr [.L__profc_rotl64]
	add	eax, 1
	adc	dword ptr [.L__profc_rotl64+4], 0
	mov	dword ptr [.L__profc_rotl64], eax
	mov	esi, dword ptr [esp + 56]
	mov	dword ptr [esp + 24], esi       # 4-byte Spill
	mov	eax, dword ptr [esp + 60]
	mov	dword ptr [esp + 28], eax       # 4-byte Spill
	mov	dl, byte ptr [ebp + 16]
	mov	byte ptr [esp + 35], dl         # 1-byte Spill
	mov	cl, dl
	mov	edi, esi
	shl	edi, cl
	mov	dword ptr [esp + 36], edi       # 4-byte Spill
	mov	cl, dl
	shld	eax, esi, cl
	mov	ecx, dword ptr [esp + 36]       # 4-byte Reload
	mov	dword ptr [esp + 40], eax       # 4-byte Spill
	xor	eax, eax
	mov	dword ptr [esp + 44], eax       # 4-byte Spill
	test	dl, 32
	mov	dword ptr [esp + 48], ecx       # 4-byte Spill
	mov	dword ptr [esp + 52], eax       # 4-byte Spill
	jne	.LBB68_2
# %bb.1:
	mov	eax, dword ptr [esp + 36]       # 4-byte Reload
	mov	ecx, dword ptr [esp + 40]       # 4-byte Reload
	mov	dword ptr [esp + 48], ecx       # 4-byte Spill
	mov	dword ptr [esp + 52], eax       # 4-byte Spill
.LBB68_2:
	mov	eax, dword ptr [esp + 44]       # 4-byte Reload
	mov	edi, dword ptr [esp + 28]       # 4-byte Reload
	mov	esi, dword ptr [esp + 24]       # 4-byte Reload
	mov	cl, byte ptr [esp + 35]         # 1-byte Reload
	mov	edx, dword ptr [esp + 48]       # 4-byte Reload
	mov	ebx, dword ptr [esp + 52]       # 4-byte Reload
	mov	dword ptr [esp], ebx            # 4-byte Spill
	mov	dword ptr [esp + 4], edx        # 4-byte Spill
	mov	dl, 64
	sub	dl, cl
	mov	cl, dl
	mov	ebx, edi
	shr	ebx, cl
	mov	dword ptr [esp + 8], ebx        # 4-byte Spill
	mov	cl, dl
	shrd	esi, edi, cl
	mov	ecx, dword ptr [esp + 8]        # 4-byte Reload
	mov	dword ptr [esp + 12], esi       # 4-byte Spill
	test	dl, 32
	mov	dword ptr [esp + 16], ecx       # 4-byte Spill
	mov	dword ptr [esp + 20], eax       # 4-byte Spill
	jne	.LBB68_4
# %bb.3:
	mov	eax, dword ptr [esp + 8]        # 4-byte Reload
	mov	ecx, dword ptr [esp + 12]       # 4-byte Reload
	mov	dword ptr [esp + 16], ecx       # 4-byte Spill
	mov	dword ptr [esp + 20], eax       # 4-byte Spill
.LBB68_4:
	mov	edx, dword ptr [esp + 4]        # 4-byte Reload
	mov	eax, dword ptr [esp]            # 4-byte Reload
	mov	esi, dword ptr [esp + 16]       # 4-byte Reload
	mov	ecx, dword ptr [esp + 20]       # 4-byte Reload
	or	eax, esi
	or	edx, ecx
	lea	esp, [ebp - 12]
	pop	esi
	pop	edi
	pop	ebx
	pop	ebp
	.cfi_def_cfa esp, 4
	fldz
	fldz
	fldz
	fldz
	fldz
	fldz
	fldz
	fstp	st(0)
	fstp	st(0)
	fstp	st(0)
	fstp	st(0)
	fstp	st(0)
	fstp	st(0)
	fstp	st(0)
	xor	ecx, ecx
	jmp	__x86_return_thunk              # TAILCALL
.Lfunc_end68:
	.size	rotl64, .Lfunc_end68-rotl64
	.cfi_endproc
                                        # -- End function
	.globl	rotr64                          # -- Begin function rotr64
	.p2align	4, 0x90
	.type	rotr64,@function
rotr64:                                 # @rotr64
	.cfi_startproc
# %bb.0:
	push	ebp
	.cfi_def_cfa_offset 8
	.cfi_offset ebp, -8
	mov	ebp, esp
	.cfi_def_cfa_register ebp
	push	ebx
	push	edi
	push	esi
	and	esp, -8
	sub	esp, 72
	.cfi_offset esi, -20
	.cfi_offset edi, -16
	.cfi_offset ebx, -12
	mov	ecx, dword ptr [ebp + 8]
	mov	eax, dword ptr [ebp + 12]
	mov	edx, dword ptr [ebp + 16]
	mov	dword ptr [esp + 56], ecx
	mov	dword ptr [esp + 60], eax
	mov	eax, dword ptr [.L__profc_rotr64]
	add	eax, 1
	adc	dword ptr [.L__profc_rotr64+4], 0
	mov	dword ptr [.L__profc_rotr64], eax
	mov	eax, dword ptr [esp + 56]
	mov	dword ptr [esp + 24], eax       # 4-byte Spill
	mov	esi, dword ptr [esp + 60]
	mov	dword ptr [esp + 28], esi       # 4-byte Spill
	mov	dl, byte ptr [ebp + 16]
	mov	byte ptr [esp + 35], dl         # 1-byte Spill
	mov	cl, dl
	mov	edi, esi
	shr	edi, cl
	mov	dword ptr [esp + 36], edi       # 4-byte Spill
	mov	cl, dl
	shrd	eax, esi, cl
	mov	ecx, dword ptr [esp + 36]       # 4-byte Reload
	mov	dword ptr [esp + 40], eax       # 4-byte Spill
	xor	eax, eax
	mov	dword ptr [esp + 44], eax       # 4-byte Spill
	test	dl, 32
	mov	dword ptr [esp + 48], ecx       # 4-byte Spill
	mov	dword ptr [esp + 52], eax       # 4-byte Spill
	jne	.LBB69_2
# %bb.1:
	mov	eax, dword ptr [esp + 36]       # 4-byte Reload
	mov	ecx, dword ptr [esp + 40]       # 4-byte Reload
	mov	dword ptr [esp + 48], ecx       # 4-byte Spill
	mov	dword ptr [esp + 52], eax       # 4-byte Spill
.LBB69_2:
	mov	eax, dword ptr [esp + 44]       # 4-byte Reload
	mov	edi, dword ptr [esp + 24]       # 4-byte Reload
	mov	esi, dword ptr [esp + 28]       # 4-byte Reload
	mov	cl, byte ptr [esp + 35]         # 1-byte Reload
	mov	edx, dword ptr [esp + 48]       # 4-byte Reload
	mov	ebx, dword ptr [esp + 52]       # 4-byte Reload
	mov	dword ptr [esp], ebx            # 4-byte Spill
	mov	dword ptr [esp + 4], edx        # 4-byte Spill
	mov	dl, 64
	sub	dl, cl
	mov	cl, dl
	mov	ebx, edi
	shl	ebx, cl
	mov	dword ptr [esp + 8], ebx        # 4-byte Spill
	mov	cl, dl
	shld	esi, edi, cl
	mov	ecx, dword ptr [esp + 8]        # 4-byte Reload
	mov	dword ptr [esp + 12], esi       # 4-byte Spill
	test	dl, 32
	mov	dword ptr [esp + 16], ecx       # 4-byte Spill
	mov	dword ptr [esp + 20], eax       # 4-byte Spill
	jne	.LBB69_4
# %bb.3:
	mov	eax, dword ptr [esp + 8]        # 4-byte Reload
	mov	ecx, dword ptr [esp + 12]       # 4-byte Reload
	mov	dword ptr [esp + 16], ecx       # 4-byte Spill
	mov	dword ptr [esp + 20], eax       # 4-byte Spill
.LBB69_4:
	mov	edx, dword ptr [esp]            # 4-byte Reload
	mov	eax, dword ptr [esp + 4]        # 4-byte Reload
	mov	ecx, dword ptr [esp + 16]       # 4-byte Reload
	mov	esi, dword ptr [esp + 20]       # 4-byte Reload
	or	eax, esi
	or	edx, ecx
	lea	esp, [ebp - 12]
	pop	esi
	pop	edi
	pop	ebx
	pop	ebp
	.cfi_def_cfa esp, 4
	fldz
	fldz
	fldz
	fldz
	fldz
	fldz
	fldz
	fstp	st(0)
	fstp	st(0)
	fstp	st(0)
	fstp	st(0)
	fstp	st(0)
	fstp	st(0)
	fstp	st(0)
	xor	ecx, ecx
	jmp	__x86_return_thunk              # TAILCALL
.Lfunc_end69:
	.size	rotr64, .Lfunc_end69-rotr64
	.cfi_endproc
                                        # -- End function
	.globl	rotl32                          # -- Begin function rotl32
	.p2align	4, 0x90
	.type	rotl32,@function
rotl32:                                 # @rotl32
	.cfi_startproc
# %bb.0:
	push	ebp
	.cfi_def_cfa_offset 8
	.cfi_offset ebp, -8
	mov	ebp, esp
	.cfi_def_cfa_register ebp
	mov	eax, dword ptr [ebp + 12]
	mov	eax, dword ptr [ebp + 8]
	mov	eax, dword ptr [.L__profc_rotl32]
	add	eax, 1
	adc	dword ptr [.L__profc_rotl32+4], 0
	mov	dword ptr [.L__profc_rotl32], eax
	mov	eax, dword ptr [ebp + 8]
	mov	ecx, dword ptr [ebp + 12]
                                        # kill: def $cl killed $ecx
	shl	eax, cl
	mov	edx, dword ptr [ebp + 8]
	mov	ecx, 32
	sub	ecx, dword ptr [ebp + 12]
                                        # kill: def $cl killed $ecx
	shr	edx, cl
	mov	ecx, edx
	or	eax, ecx
	and	eax, -1
	pop	ebp
	.cfi_def_cfa esp, 4
	fldz
	fldz
	fldz
	fldz
	fldz
	fldz
	fldz
	fstp	st(0)
	fstp	st(0)
	fstp	st(0)
	fstp	st(0)
	fstp	st(0)
	fstp	st(0)
	fstp	st(0)
	xor	ecx, ecx
	xor	edx, edx
	jmp	__x86_return_thunk              # TAILCALL
.Lfunc_end70:
	.size	rotl32, .Lfunc_end70-rotl32
	.cfi_endproc
                                        # -- End function
	.globl	rotr32                          # -- Begin function rotr32
	.p2align	4, 0x90
	.type	rotr32,@function
rotr32:                                 # @rotr32
	.cfi_startproc
# %bb.0:
	push	ebp
	.cfi_def_cfa_offset 8
	.cfi_offset ebp, -8
	mov	ebp, esp
	.cfi_def_cfa_register ebp
	mov	eax, dword ptr [ebp + 12]
	mov	eax, dword ptr [ebp + 8]
	mov	eax, dword ptr [.L__profc_rotr32]
	add	eax, 1
	adc	dword ptr [.L__profc_rotr32+4], 0
	mov	dword ptr [.L__profc_rotr32], eax
	mov	eax, dword ptr [ebp + 8]
	mov	ecx, dword ptr [ebp + 12]
                                        # kill: def $cl killed $ecx
	shr	eax, cl
	mov	edx, dword ptr [ebp + 8]
	mov	ecx, 32
	sub	ecx, dword ptr [ebp + 12]
                                        # kill: def $cl killed $ecx
	shl	edx, cl
	mov	ecx, edx
	or	eax, ecx
	and	eax, -1
	pop	ebp
	.cfi_def_cfa esp, 4
	fldz
	fldz
	fldz
	fldz
	fldz
	fldz
	fldz
	fstp	st(0)
	fstp	st(0)
	fstp	st(0)
	fstp	st(0)
	fstp	st(0)
	fstp	st(0)
	fstp	st(0)
	xor	ecx, ecx
	xor	edx, edx
	jmp	__x86_return_thunk              # TAILCALL
.Lfunc_end71:
	.size	rotr32, .Lfunc_end71-rotr32
	.cfi_endproc
                                        # -- End function
	.globl	rotl_sz                         # -- Begin function rotl_sz
	.p2align	4, 0x90
	.type	rotl_sz,@function
rotl_sz:                                # @rotl_sz
	.cfi_startproc
# %bb.0:
	push	ebp
	.cfi_def_cfa_offset 8
	.cfi_offset ebp, -8
	mov	ebp, esp
	.cfi_def_cfa_register ebp
	mov	eax, dword ptr [ebp + 12]
	mov	eax, dword ptr [ebp + 8]
	mov	eax, dword ptr [.L__profc_rotl_sz]
	add	eax, 1
	adc	dword ptr [.L__profc_rotl_sz+4], 0
	mov	dword ptr [.L__profc_rotl_sz], eax
	mov	eax, dword ptr [ebp + 8]
	mov	ecx, dword ptr [ebp + 12]
                                        # kill: def $cl killed $ecx
	shl	eax, cl
	mov	edx, dword ptr [ebp + 8]
	mov	ecx, 32
	sub	ecx, dword ptr [ebp + 12]
                                        # kill: def $cl killed $ecx
	shr	edx, cl
	mov	ecx, edx
	or	eax, ecx
	and	eax, -1
	pop	ebp
	.cfi_def_cfa esp, 4
	fldz
	fldz
	fldz
	fldz
	fldz
	fldz
	fldz
	fstp	st(0)
	fstp	st(0)
	fstp	st(0)
	fstp	st(0)
	fstp	st(0)
	fstp	st(0)
	fstp	st(0)
	xor	ecx, ecx
	xor	edx, edx
	jmp	__x86_return_thunk              # TAILCALL
.Lfunc_end72:
	.size	rotl_sz, .Lfunc_end72-rotl_sz
	.cfi_endproc
                                        # -- End function
	.globl	rotr_sz                         # -- Begin function rotr_sz
	.p2align	4, 0x90
	.type	rotr_sz,@function
rotr_sz:                                # @rotr_sz
	.cfi_startproc
# %bb.0:
	push	ebp
	.cfi_def_cfa_offset 8
	.cfi_offset ebp, -8
	mov	ebp, esp
	.cfi_def_cfa_register ebp
	mov	eax, dword ptr [ebp + 12]
	mov	eax, dword ptr [ebp + 8]
	mov	eax, dword ptr [.L__profc_rotr_sz]
	add	eax, 1
	adc	dword ptr [.L__profc_rotr_sz+4], 0
	mov	dword ptr [.L__profc_rotr_sz], eax
	mov	eax, dword ptr [ebp + 8]
	mov	ecx, dword ptr [ebp + 12]
                                        # kill: def $cl killed $ecx
	shr	eax, cl
	mov	edx, dword ptr [ebp + 8]
	mov	ecx, 32
	sub	ecx, dword ptr [ebp + 12]
                                        # kill: def $cl killed $ecx
	shl	edx, cl
	mov	ecx, edx
	or	eax, ecx
	and	eax, -1
	pop	ebp
	.cfi_def_cfa esp, 4
	fldz
	fldz
	fldz
	fldz
	fldz
	fldz
	fldz
	fstp	st(0)
	fstp	st(0)
	fstp	st(0)
	fstp	st(0)
	fstp	st(0)
	fstp	st(0)
	fstp	st(0)
	xor	ecx, ecx
	xor	edx, edx
	jmp	__x86_return_thunk              # TAILCALL
.Lfunc_end73:
	.size	rotr_sz, .Lfunc_end73-rotr_sz
	.cfi_endproc
                                        # -- End function
	.globl	rotl16                          # -- Begin function rotl16
	.p2align	4, 0x90
	.type	rotl16,@function
rotl16:                                 # @rotl16
	.cfi_startproc
# %bb.0:
	push	ebp
	.cfi_def_cfa_offset 8
	.cfi_offset ebp, -8
	mov	ebp, esp
	.cfi_def_cfa_register ebp
	mov	eax, dword ptr [ebp + 12]
	mov	ax, word ptr [ebp + 8]
	mov	eax, dword ptr [.L__profc_rotl16]
	add	eax, 1
	adc	dword ptr [.L__profc_rotl16+4], 0
	mov	dword ptr [.L__profc_rotl16], eax
	movzx	eax, word ptr [ebp + 8]
	mov	ecx, dword ptr [ebp + 12]
                                        # kill: def $cl killed $ecx
	shl	eax, cl
	movzx	edx, word ptr [ebp + 8]
	mov	ecx, 16
	sub	ecx, dword ptr [ebp + 12]
                                        # kill: def $cl killed $ecx
	shr	edx, cl
	mov	ecx, edx
	or	eax, ecx
	and	eax, 65535
                                        # kill: def $ax killed $ax killed $eax
	pop	ebp
	.cfi_def_cfa esp, 4
	fldz
	fldz
	fldz
	fldz
	fldz
	fldz
	fldz
	fstp	st(0)
	fstp	st(0)
	fstp	st(0)
	fstp	st(0)
	fstp	st(0)
	fstp	st(0)
	fstp	st(0)
	xor	ecx, ecx
	xor	edx, edx
	jmp	__x86_return_thunk              # TAILCALL
.Lfunc_end74:
	.size	rotl16, .Lfunc_end74-rotl16
	.cfi_endproc
                                        # -- End function
	.globl	rotr16                          # -- Begin function rotr16
	.p2align	4, 0x90
	.type	rotr16,@function
rotr16:                                 # @rotr16
	.cfi_startproc
# %bb.0:
	push	ebp
	.cfi_def_cfa_offset 8
	.cfi_offset ebp, -8
	mov	ebp, esp
	.cfi_def_cfa_register ebp
	mov	eax, dword ptr [ebp + 12]
	mov	ax, word ptr [ebp + 8]
	mov	eax, dword ptr [.L__profc_rotr16]
	add	eax, 1
	adc	dword ptr [.L__profc_rotr16+4], 0
	mov	dword ptr [.L__profc_rotr16], eax
	movzx	eax, word ptr [ebp + 8]
	mov	ecx, dword ptr [ebp + 12]
                                        # kill: def $cl killed $ecx
	shr	eax, cl
	movzx	edx, word ptr [ebp + 8]
	mov	ecx, 16
	sub	ecx, dword ptr [ebp + 12]
                                        # kill: def $cl killed $ecx
	shl	edx, cl
	mov	ecx, edx
	or	eax, ecx
	and	eax, 65535
                                        # kill: def $ax killed $ax killed $eax
	pop	ebp
	.cfi_def_cfa esp, 4
	fldz
	fldz
	fldz
	fldz
	fldz
	fldz
	fldz
	fstp	st(0)
	fstp	st(0)
	fstp	st(0)
	fstp	st(0)
	fstp	st(0)
	fstp	st(0)
	fstp	st(0)
	xor	ecx, ecx
	xor	edx, edx
	jmp	__x86_return_thunk              # TAILCALL
.Lfunc_end75:
	.size	rotr16, .Lfunc_end75-rotr16
	.cfi_endproc
                                        # -- End function
	.globl	rotl8                           # -- Begin function rotl8
	.p2align	4, 0x90
	.type	rotl8,@function
rotl8:                                  # @rotl8
	.cfi_startproc
# %bb.0:
	push	ebp
	.cfi_def_cfa_offset 8
	.cfi_offset ebp, -8
	mov	ebp, esp
	.cfi_def_cfa_register ebp
	mov	eax, dword ptr [ebp + 12]
	mov	al, byte ptr [ebp + 8]
	mov	eax, dword ptr [.L__profc_rotl8]
	add	eax, 1
	adc	dword ptr [.L__profc_rotl8+4], 0
	mov	dword ptr [.L__profc_rotl8], eax
	movzx	eax, byte ptr [ebp + 8]
	mov	ecx, dword ptr [ebp + 12]
                                        # kill: def $cl killed $ecx
	shl	eax, cl
	movzx	edx, byte ptr [ebp + 8]
	mov	ecx, 8
	sub	ecx, dword ptr [ebp + 12]
                                        # kill: def $cl killed $ecx
	shr	edx, cl
	mov	ecx, edx
	or	eax, ecx
	and	eax, 255
                                        # kill: def $al killed $al killed $eax
	pop	ebp
	.cfi_def_cfa esp, 4
	fldz
	fldz
	fldz
	fldz
	fldz
	fldz
	fldz
	fstp	st(0)
	fstp	st(0)
	fstp	st(0)
	fstp	st(0)
	fstp	st(0)
	fstp	st(0)
	fstp	st(0)
	xor	ecx, ecx
	xor	edx, edx
	jmp	__x86_return_thunk              # TAILCALL
.Lfunc_end76:
	.size	rotl8, .Lfunc_end76-rotl8
	.cfi_endproc
                                        # -- End function
	.globl	rotr8                           # -- Begin function rotr8
	.p2align	4, 0x90
	.type	rotr8,@function
rotr8:                                  # @rotr8
	.cfi_startproc
# %bb.0:
	push	ebp
	.cfi_def_cfa_offset 8
	.cfi_offset ebp, -8
	mov	ebp, esp
	.cfi_def_cfa_register ebp
	mov	eax, dword ptr [ebp + 12]
	mov	al, byte ptr [ebp + 8]
	mov	eax, dword ptr [.L__profc_rotr8]
	add	eax, 1
	adc	dword ptr [.L__profc_rotr8+4], 0
	mov	dword ptr [.L__profc_rotr8], eax
	movzx	eax, byte ptr [ebp + 8]
	mov	ecx, dword ptr [ebp + 12]
                                        # kill: def $cl killed $ecx
	shr	eax, cl
	movzx	edx, byte ptr [ebp + 8]
	mov	ecx, 8
	sub	ecx, dword ptr [ebp + 12]
                                        # kill: def $cl killed $ecx
	shl	edx, cl
	mov	ecx, edx
	or	eax, ecx
	and	eax, 255
                                        # kill: def $al killed $al killed $eax
	pop	ebp
	.cfi_def_cfa esp, 4
	fldz
	fldz
	fldz
	fldz
	fldz
	fldz
	fldz
	fstp	st(0)
	fstp	st(0)
	fstp	st(0)
	fstp	st(0)
	fstp	st(0)
	fstp	st(0)
	fstp	st(0)
	xor	ecx, ecx
	xor	edx, edx
	jmp	__x86_return_thunk              # TAILCALL
.Lfunc_end77:
	.size	rotr8, .Lfunc_end77-rotr8
	.cfi_endproc
                                        # -- End function
	.globl	bswap_16                        # -- Begin function bswap_16
	.p2align	4, 0x90
	.type	bswap_16,@function
bswap_16:                               # @bswap_16
	.cfi_startproc
# %bb.0:
	push	ebp
	.cfi_def_cfa_offset 8
	.cfi_offset ebp, -8
	mov	ebp, esp
	.cfi_def_cfa_register ebp
	push	eax
	mov	ax, word ptr [ebp + 8]
	mov	eax, dword ptr [.L__profc_bswap_16]
	add	eax, 1
	adc	dword ptr [.L__profc_bswap_16+4], 0
	mov	dword ptr [.L__profc_bswap_16], eax
	mov	word ptr [ebp - 2], 255
	movzx	eax, word ptr [ebp + 8]
	movzx	ecx, word ptr [ebp - 2]
	shl	ecx, 8
	and	eax, ecx
	sar	eax, 8
	movzx	ecx, word ptr [ebp + 8]
	movzx	edx, word ptr [ebp - 2]
	shl	edx, 0
	and	ecx, edx
	shl	ecx, 8
	or	eax, ecx
                                        # kill: def $ax killed $ax killed $eax
	add	esp, 4
	pop	ebp
	.cfi_def_cfa esp, 4
	fldz
	fldz
	fldz
	fldz
	fldz
	fldz
	fldz
	fstp	st(0)
	fstp	st(0)
	fstp	st(0)
	fstp	st(0)
	fstp	st(0)
	fstp	st(0)
	fstp	st(0)
	xor	ecx, ecx
	xor	edx, edx
	jmp	__x86_return_thunk              # TAILCALL
.Lfunc_end78:
	.size	bswap_16, .Lfunc_end78-bswap_16
	.cfi_endproc
                                        # -- End function
	.globl	bswap_32                        # -- Begin function bswap_32
	.p2align	4, 0x90
	.type	bswap_32,@function
bswap_32:                               # @bswap_32
	.cfi_startproc
# %bb.0:
	push	ebp
	.cfi_def_cfa_offset 8
	.cfi_offset ebp, -8
	mov	ebp, esp
	.cfi_def_cfa_register ebp
	push	eax
	mov	eax, dword ptr [ebp + 8]
	mov	eax, dword ptr [.L__profc_bswap_32]
	add	eax, 1
	adc	dword ptr [.L__profc_bswap_32+4], 0
	mov	dword ptr [.L__profc_bswap_32], eax
	mov	dword ptr [ebp - 4], 255
	mov	eax, dword ptr [ebp + 8]
	mov	ecx, dword ptr [ebp - 4]
	shl	ecx, 24
	and	eax, ecx
	shr	eax, 24
	mov	ecx, dword ptr [ebp + 8]
	mov	edx, dword ptr [ebp - 4]
	shl	edx, 16
	and	ecx, edx
	shr	ecx, 8
	or	eax, ecx
	mov	ecx, dword ptr [ebp + 8]
	mov	edx, dword ptr [ebp - 4]
	shl	edx, 8
	and	ecx, edx
	shl	ecx, 8
	or	eax, ecx
	mov	ecx, dword ptr [ebp + 8]
	mov	edx, dword ptr [ebp - 4]
	shl	edx, 0
	and	ecx, edx
	shl	ecx, 24
	or	eax, ecx
	add	esp, 4
	pop	ebp
	.cfi_def_cfa esp, 4
	fldz
	fldz
	fldz
	fldz
	fldz
	fldz
	fldz
	fstp	st(0)
	fstp	st(0)
	fstp	st(0)
	fstp	st(0)
	fstp	st(0)
	fstp	st(0)
	fstp	st(0)
	xor	ecx, ecx
	xor	edx, edx
	jmp	__x86_return_thunk              # TAILCALL
.Lfunc_end79:
	.size	bswap_32, .Lfunc_end79-bswap_32
	.cfi_endproc
                                        # -- End function
	.globl	bswap_64                        # -- Begin function bswap_64
	.p2align	4, 0x90
	.type	bswap_64,@function
bswap_64:                               # @bswap_64
	.cfi_startproc
# %bb.0:
	push	ebp
	.cfi_def_cfa_offset 8
	.cfi_offset ebp, -8
	mov	ebp, esp
	.cfi_def_cfa_register ebp
	push	ebx
	push	edi
	push	esi
	and	esp, -8
	sub	esp, 48
	.cfi_offset esi, -20
	.cfi_offset edi, -16
	.cfi_offset ebx, -12
	mov	ecx, dword ptr [ebp + 8]
	mov	eax, dword ptr [ebp + 12]
	mov	dword ptr [esp + 32], ecx
	mov	dword ptr [esp + 36], eax
	mov	eax, dword ptr [.L__profc_bswap_64]
	add	eax, 1
	adc	dword ptr [.L__profc_bswap_64+4], 0
	mov	dword ptr [.L__profc_bswap_64], eax
	mov	dword ptr [esp + 28], 0
	mov	dword ptr [esp + 24], 255
	mov	eax, dword ptr [esp + 32]
	mov	dword ptr [esp + 12], eax       # 4-byte Spill
	mov	eax, dword ptr [esp + 36]
	mov	dword ptr [esp + 16], eax       # 4-byte Spill
	mov	esi, dword ptr [esp + 24]
	mov	edx, esi
	shl	edx, 24
	mov	ecx, eax
	and	ecx, edx
	shr	ecx, 24
	mov	edi, esi
	shl	edi, 16
	mov	edx, eax
	and	edx, edi
	shr	edx, 8
	or	ecx, edx
	mov	ebx, esi
	shl	ebx, 8
	and	eax, ebx
	mov	edx, eax
	shr	edx, 24
	shl	eax, 8
	or	ecx, eax
	mov	eax, dword ptr [esp + 16]       # 4-byte Reload
	and	eax, esi
	mov	dword ptr [esp + 4], eax        # 4-byte Spill
	shr	eax, 8
	mov	dword ptr [esp + 8], eax        # 4-byte Spill
	mov	eax, dword ptr [esp + 4]        # 4-byte Reload
	shl	eax, 24
	or	ecx, eax
	mov	eax, dword ptr [esp + 8]        # 4-byte Reload
	mov	dword ptr [esp + 20], ecx       # 4-byte Spill
	mov	ecx, dword ptr [esp + 16]       # 4-byte Reload
	or	edx, eax
	mov	eax, dword ptr [esp + 12]       # 4-byte Reload
	shld	ecx, eax, 8
	mov	eax, esi
	and	eax, ecx
	mov	ecx, dword ptr [esp + 12]       # 4-byte Reload
	or	edx, eax
	mov	eax, dword ptr [esp + 16]       # 4-byte Reload
	shld	eax, ecx, 24
	and	ebx, eax
	mov	eax, dword ptr [esp + 20]       # 4-byte Reload
	or	edx, ebx
	mov	ebx, ecx
	shl	ebx, 8
	and	edi, ebx
	or	edx, edi
	and	ecx, esi
	shl	ecx, 24
	or	edx, ecx
	lea	esp, [ebp - 12]
	pop	esi
	pop	edi
	pop	ebx
	pop	ebp
	.cfi_def_cfa esp, 4
	fldz
	fldz
	fldz
	fldz
	fldz
	fldz
	fldz
	fstp	st(0)
	fstp	st(0)
	fstp	st(0)
	fstp	st(0)
	fstp	st(0)
	fstp	st(0)
	fstp	st(0)
	xor	ecx, ecx
	jmp	__x86_return_thunk              # TAILCALL
.Lfunc_end80:
	.size	bswap_64, .Lfunc_end80-bswap_64
	.cfi_endproc
                                        # -- End function
	.globl	ffs                             # -- Begin function ffs
	.p2align	4, 0x90
	.type	ffs,@function
ffs:                                    # @ffs
	.cfi_startproc
# %bb.0:
	push	ebp
	.cfi_def_cfa_offset 8
	.cfi_offset ebp, -8
	mov	ebp, esp
	.cfi_def_cfa_register ebp
	sub	esp, 8
	mov	eax, dword ptr [ebp + 8]
	mov	eax, dword ptr [.L__profc_ffs]
	add	eax, 1
	adc	dword ptr [.L__profc_ffs+4], 0
	mov	dword ptr [.L__profc_ffs], eax
	mov	dword ptr [ebp - 8], 0
.LBB81_1:                               # =>This Inner Loop Header: Depth=1
	cmp	dword ptr [ebp - 8], 32
	jae	.LBB81_6
# %bb.2:                                #   in Loop: Header=BB81_1 Depth=1
	mov	eax, dword ptr [.L__profc_ffs+8]
	add	eax, 1
	adc	dword ptr [.L__profc_ffs+12], 0
	mov	dword ptr [.L__profc_ffs+8], eax
	mov	eax, dword ptr [ebp + 8]
	mov	ecx, dword ptr [ebp - 8]
	mov	edx, 1
                                        # kill: def $cl killed $ecx
	shl	edx, cl
	mov	ecx, edx
	and	eax, ecx
	cmp	eax, 0
	je	.LBB81_4
# %bb.3:
	mov	eax, dword ptr [.L__profc_ffs+16]
	add	eax, 1
	adc	dword ptr [.L__profc_ffs+20], 0
	mov	dword ptr [.L__profc_ffs+16], eax
	mov	eax, dword ptr [ebp - 8]
	add	eax, 1
	mov	dword ptr [ebp - 4], eax
	jmp	.LBB81_7
.LBB81_4:                               #   in Loop: Header=BB81_1 Depth=1
	jmp	.LBB81_5
.LBB81_5:                               #   in Loop: Header=BB81_1 Depth=1
	mov	eax, dword ptr [ebp - 8]
	add	eax, 1
	mov	dword ptr [ebp - 8], eax
	jmp	.LBB81_1
.LBB81_6:
	mov	dword ptr [ebp - 4], 0
.LBB81_7:
	mov	eax, dword ptr [ebp - 4]
	add	esp, 8
	pop	ebp
	.cfi_def_cfa esp, 4
	fldz
	fldz
	fldz
	fldz
	fldz
	fldz
	fldz
	fstp	st(0)
	fstp	st(0)
	fstp	st(0)
	fstp	st(0)
	fstp	st(0)
	fstp	st(0)
	fstp	st(0)
	xor	ecx, ecx
	xor	edx, edx
	jmp	__x86_return_thunk              # TAILCALL
.Lfunc_end81:
	.size	ffs, .Lfunc_end81-ffs
	.cfi_endproc
                                        # -- End function
	.globl	libiberty_ffs                   # -- Begin function libiberty_ffs
	.p2align	4, 0x90
	.type	libiberty_ffs,@function
libiberty_ffs:                          # @libiberty_ffs
	.cfi_startproc
# %bb.0:
	push	ebp
	.cfi_def_cfa_offset 8
	.cfi_offset ebp, -8
	mov	ebp, esp
	.cfi_def_cfa_register ebp
	sub	esp, 8
	mov	eax, dword ptr [ebp + 8]
	mov	eax, dword ptr [.L__profc_libiberty_ffs]
	add	eax, 1
	adc	dword ptr [.L__profc_libiberty_ffs+4], 0
	mov	dword ptr [.L__profc_libiberty_ffs], eax
	cmp	dword ptr [ebp + 8], 0
	jne	.LBB82_2
# %bb.1:
	mov	eax, dword ptr [.L__profc_libiberty_ffs+8]
	add	eax, 1
	adc	dword ptr [.L__profc_libiberty_ffs+12], 0
	mov	dword ptr [.L__profc_libiberty_ffs+8], eax
	mov	dword ptr [ebp - 4], 0
	jmp	.LBB82_7
.LBB82_2:
	mov	dword ptr [ebp - 8], 1
.LBB82_3:                               # =>This Inner Loop Header: Depth=1
	mov	eax, dword ptr [ebp + 8]
	and	eax, 1
	cmp	eax, 0
	setne	al
	xor	al, -1
	test	al, 1
	jne	.LBB82_4
	jmp	.LBB82_6
.LBB82_4:                               #   in Loop: Header=BB82_3 Depth=1
	mov	eax, dword ptr [.L__profc_libiberty_ffs+16]
	add	eax, 1
	adc	dword ptr [.L__profc_libiberty_ffs+20], 0
	mov	dword ptr [.L__profc_libiberty_ffs+16], eax
	mov	eax, dword ptr [ebp + 8]
	sar	eax
	mov	dword ptr [ebp + 8], eax
# %bb.5:                                #   in Loop: Header=BB82_3 Depth=1
	mov	eax, dword ptr [ebp - 8]
	add	eax, 1
	mov	dword ptr [ebp - 8], eax
	jmp	.LBB82_3
.LBB82_6:
	mov	eax, dword ptr [ebp - 8]
	mov	dword ptr [ebp - 4], eax
.LBB82_7:
	mov	eax, dword ptr [ebp - 4]
	add	esp, 8
	pop	ebp
	.cfi_def_cfa esp, 4
	fldz
	fldz
	fldz
	fldz
	fldz
	fldz
	fldz
	fstp	st(0)
	fstp	st(0)
	fstp	st(0)
	fstp	st(0)
	fstp	st(0)
	fstp	st(0)
	fstp	st(0)
	xor	ecx, ecx
	xor	edx, edx
	jmp	__x86_return_thunk              # TAILCALL
.Lfunc_end82:
	.size	libiberty_ffs, .Lfunc_end82-libiberty_ffs
	.cfi_endproc
                                        # -- End function
	.section	.rodata.cst4,"aM",@progbits,4
	.p2align	2, 0x0                          # -- Begin function gl_isinff
.LCPI83_0:
	.long	0xff7fffff                      # float -3.40282347E+38
.LCPI83_1:
	.long	0x7f7fffff                      # float 3.40282347E+38
	.text
	.globl	gl_isinff
	.p2align	4, 0x90
	.type	gl_isinff,@function
gl_isinff:                              # @gl_isinff
	.cfi_startproc
# %bb.0:
	push	ebp
	.cfi_def_cfa_offset 8
	.cfi_offset ebp, -8
	mov	ebp, esp
	.cfi_def_cfa_register ebp
	push	eax
	fld	dword ptr [ebp + 8]
	fstp	st(0)
	mov	eax, dword ptr [.L__profc_gl_isinff]
	add	eax, 1
	adc	dword ptr [.L__profc_gl_isinff+4], 0
	mov	dword ptr [.L__profc_gl_isinff], eax
	fld	dword ptr [ebp + 8]
	fld	dword ptr [.LCPI83_0]
	fucompp
	fnstsw	ax
                                        # kill: def $ah killed $ah killed $ax
	mov	al, 1
	sahf
	mov	byte ptr [ebp - 1], al          # 1-byte Spill
	ja	.LBB83_3
	jmp	.LBB83_1
.LBB83_1:
	mov	eax, dword ptr [.L__profc_gl_isinff+8]
	add	eax, 1
	adc	dword ptr [.L__profc_gl_isinff+12], 0
	mov	dword ptr [.L__profc_gl_isinff+8], eax
	fld	dword ptr [ebp + 8]
	fld	dword ptr [.LCPI83_1]
	fxch	st(1)
	fucompp
	fnstsw	ax
                                        # kill: def $ah killed $ah killed $ax
	sahf
	seta	al
	mov	byte ptr [ebp - 2], al          # 1-byte Spill
	test	al, 1
	mov	byte ptr [ebp - 1], al          # 1-byte Spill
	jne	.LBB83_3
# %bb.2:
	mov	al, byte ptr [ebp - 2]          # 1-byte Reload
	mov	ecx, dword ptr [.L__profc_gl_isinff+16]
	add	ecx, 1
	adc	dword ptr [.L__profc_gl_isinff+20], 0
	mov	dword ptr [.L__profc_gl_isinff+16], ecx
	mov	byte ptr [ebp - 1], al          # 1-byte Spill
.LBB83_3:
	mov	al, byte ptr [ebp - 1]          # 1-byte Reload
	and	al, 1
	movzx	eax, al
	add	esp, 4
	pop	ebp
	.cfi_def_cfa esp, 4
	fldz
	fldz
	fldz
	fldz
	fldz
	fldz
	fldz
	fstp	st(0)
	fstp	st(0)
	fstp	st(0)
	fstp	st(0)
	fstp	st(0)
	fstp	st(0)
	fstp	st(0)
	xor	ecx, ecx
	xor	edx, edx
	jmp	__x86_return_thunk              # TAILCALL
.Lfunc_end83:
	.size	gl_isinff, .Lfunc_end83-gl_isinff
	.cfi_endproc
                                        # -- End function
	.section	.rodata.cst8,"aM",@progbits,8
	.p2align	3, 0x0                          # -- Begin function gl_isinfd
.LCPI84_0:
	.quad	0xffefffffffffffff              # double -1.7976931348623157E+308
.LCPI84_1:
	.quad	0x7fefffffffffffff              # double 1.7976931348623157E+308
	.text
	.globl	gl_isinfd
	.p2align	4, 0x90
	.type	gl_isinfd,@function
gl_isinfd:                              # @gl_isinfd
	.cfi_startproc
# %bb.0:
	push	ebp
	.cfi_def_cfa_offset 8
	.cfi_offset ebp, -8
	mov	ebp, esp
	.cfi_def_cfa_register ebp
	and	esp, -8
	sub	esp, 16
	fld	qword ptr [ebp + 8]
	fstp	qword ptr [esp + 8]
	mov	eax, dword ptr [.L__profc_gl_isinfd]
	add	eax, 1
	adc	dword ptr [.L__profc_gl_isinfd+4], 0
	mov	dword ptr [.L__profc_gl_isinfd], eax
	fld	qword ptr [esp + 8]
	fld	qword ptr [.LCPI84_0]
	fucompp
	fnstsw	ax
                                        # kill: def $ah killed $ah killed $ax
	mov	al, 1
	sahf
	mov	byte ptr [esp + 7], al          # 1-byte Spill
	ja	.LBB84_3
	jmp	.LBB84_1
.LBB84_1:
	mov	eax, dword ptr [.L__profc_gl_isinfd+8]
	add	eax, 1
	adc	dword ptr [.L__profc_gl_isinfd+12], 0
	mov	dword ptr [.L__profc_gl_isinfd+8], eax
	fld	qword ptr [esp + 8]
	fld	qword ptr [.LCPI84_1]
	fxch	st(1)
	fucompp
	fnstsw	ax
                                        # kill: def $ah killed $ah killed $ax
	sahf
	seta	al
	mov	byte ptr [esp + 6], al          # 1-byte Spill
	test	al, 1
	mov	byte ptr [esp + 7], al          # 1-byte Spill
	jne	.LBB84_3
# %bb.2:
	mov	al, byte ptr [esp + 6]          # 1-byte Reload
	mov	ecx, dword ptr [.L__profc_gl_isinfd+16]
	add	ecx, 1
	adc	dword ptr [.L__profc_gl_isinfd+20], 0
	mov	dword ptr [.L__profc_gl_isinfd+16], ecx
	mov	byte ptr [esp + 7], al          # 1-byte Spill
.LBB84_3:
	mov	al, byte ptr [esp + 7]          # 1-byte Reload
	and	al, 1
	movzx	eax, al
	mov	esp, ebp
	pop	ebp
	.cfi_def_cfa esp, 4
	fldz
	fldz
	fldz
	fldz
	fldz
	fldz
	fldz
	fstp	st(0)
	fstp	st(0)
	fstp	st(0)
	fstp	st(0)
	fstp	st(0)
	fstp	st(0)
	fstp	st(0)
	xor	ecx, ecx
	xor	edx, edx
	jmp	__x86_return_thunk              # TAILCALL
.Lfunc_end84:
	.size	gl_isinfd, .Lfunc_end84-gl_isinfd
	.cfi_endproc
                                        # -- End function
	.section	.rodata,"a",@progbits
	.p2align	2, 0x0                          # -- Begin function gl_isinfl
.LCPI85_0:
	.quad	0xffffffffffffffff              # x86_fp80 -1.18973149535723176502E+4932
	.short	0xfffe
	.zero	2
.LCPI85_1:
	.quad	0xffffffffffffffff              # x86_fp80 1.18973149535723176502E+4932
	.short	0x7ffe
	.zero	2
	.text
	.globl	gl_isinfl
	.p2align	4, 0x90
	.type	gl_isinfl,@function
gl_isinfl:                              # @gl_isinfl
	.cfi_startproc
# %bb.0:
	push	ebp
	.cfi_def_cfa_offset 8
	.cfi_offset ebp, -8
	mov	ebp, esp
	.cfi_def_cfa_register ebp
	sub	esp, 16
	fld	tbyte ptr [ebp + 8]
	fstp	tbyte ptr [ebp - 12]
	mov	eax, dword ptr [.L__profc_gl_isinfl]
	add	eax, 1
	adc	dword ptr [.L__profc_gl_isinfl+4], 0
	mov	dword ptr [.L__profc_gl_isinfl], eax
	fld	tbyte ptr [ebp - 12]
	fld	tbyte ptr [.LCPI85_0]
	fucompp
	fnstsw	ax
                                        # kill: def $ah killed $ah killed $ax
	mov	al, 1
	sahf
	mov	byte ptr [ebp - 13], al         # 1-byte Spill
	ja	.LBB85_3
	jmp	.LBB85_1
.LBB85_1:
	mov	eax, dword ptr [.L__profc_gl_isinfl+8]
	add	eax, 1
	adc	dword ptr [.L__profc_gl_isinfl+12], 0
	mov	dword ptr [.L__profc_gl_isinfl+8], eax
	fld	tbyte ptr [ebp - 12]
	fld	tbyte ptr [.LCPI85_1]
	fxch	st(1)
	fucompp
	fnstsw	ax
                                        # kill: def $ah killed $ah killed $ax
	sahf
	seta	al
	mov	byte ptr [ebp - 14], al         # 1-byte Spill
	test	al, 1
	mov	byte ptr [ebp - 13], al         # 1-byte Spill
	jne	.LBB85_3
# %bb.2:
	mov	al, byte ptr [ebp - 14]         # 1-byte Reload
	mov	ecx, dword ptr [.L__profc_gl_isinfl+16]
	add	ecx, 1
	adc	dword ptr [.L__profc_gl_isinfl+20], 0
	mov	dword ptr [.L__profc_gl_isinfl+16], ecx
	mov	byte ptr [ebp - 13], al         # 1-byte Spill
.LBB85_3:
	mov	al, byte ptr [ebp - 13]         # 1-byte Reload
	and	al, 1
	movzx	eax, al
	add	esp, 16
	pop	ebp
	.cfi_def_cfa esp, 4
	fldz
	fldz
	fldz
	fldz
	fldz
	fldz
	fldz
	fstp	st(0)
	fstp	st(0)
	fstp	st(0)
	fstp	st(0)
	fstp	st(0)
	fstp	st(0)
	fstp	st(0)
	xor	ecx, ecx
	xor	edx, edx
	jmp	__x86_return_thunk              # TAILCALL
.Lfunc_end85:
	.size	gl_isinfl, .Lfunc_end85-gl_isinfl
	.cfi_endproc
                                        # -- End function
	.globl	_Qp_itoq                        # -- Begin function _Qp_itoq
	.p2align	4, 0x90
	.type	_Qp_itoq,@function
_Qp_itoq:                               # @_Qp_itoq
	.cfi_startproc
# %bb.0:
	push	ebp
	.cfi_def_cfa_offset 8
	.cfi_offset ebp, -8
	mov	ebp, esp
	.cfi_def_cfa_register ebp
	push	eax
	mov	eax, dword ptr [ebp + 12]
	mov	eax, dword ptr [ebp + 8]
	mov	eax, dword ptr [.L__profc__Qp_itoq]
	add	eax, 1
	adc	dword ptr [.L__profc__Qp_itoq+4], 0
	mov	dword ptr [.L__profc__Qp_itoq], eax
	mov	eax, dword ptr [ebp + 12]
	mov	dword ptr [ebp - 4], eax
	fild	dword ptr [ebp - 4]
	mov	eax, dword ptr [ebp + 8]
	fstp	tbyte ptr [eax]
	add	esp, 4
	pop	ebp
	.cfi_def_cfa esp, 4
	fldz
	fldz
	fldz
	fldz
	fldz
	fldz
	fldz
	fstp	st(0)
	fstp	st(0)
	fstp	st(0)
	fstp	st(0)
	fstp	st(0)
	fstp	st(0)
	fstp	st(0)
	xor	eax, eax
	xor	ecx, ecx
	xor	edx, edx
	jmp	__x86_return_thunk              # TAILCALL
.Lfunc_end86:
	.size	_Qp_itoq, .Lfunc_end86-_Qp_itoq
	.cfi_endproc
                                        # -- End function
	.section	.rodata.cst8,"aM",@progbits,8
	.p2align	2, 0x0                          # -- Begin function ldexpf
.LCPI87_0:
	.long	0x40000000                      # float 2
	.long	0x3f000000                      # float 0.5
	.text
	.globl	ldexpf
	.p2align	4, 0x90
	.type	ldexpf,@function
ldexpf:                                 # @ldexpf
	.cfi_startproc
# %bb.0:
	push	ebp
	.cfi_def_cfa_offset 8
	.cfi_offset ebp, -8
	mov	ebp, esp
	.cfi_def_cfa_register ebp
	push	eax
	mov	eax, dword ptr [ebp + 12]
	fld	dword ptr [ebp + 8]
	fstp	st(0)
	mov	eax, dword ptr [.L__profc_ldexpf]
	add	eax, 1
	adc	dword ptr [.L__profc_ldexpf+4], 0
	mov	dword ptr [.L__profc_ldexpf], eax
	fld	dword ptr [ebp + 8]
	fucomp	st(0)
	fnstsw	ax
                                        # kill: def $ah killed $ah killed $ax
	sahf
	setp	al
	test	al, 1
	jne	.LBB87_10
# %bb.1:
	mov	eax, dword ptr [.L__profc_ldexpf+16]
	add	eax, 1
	adc	dword ptr [.L__profc_ldexpf+20], 0
	mov	dword ptr [.L__profc_ldexpf+16], eax
	fld	dword ptr [ebp + 8]
	fld	st(0)
	fadd	st, st(1)
	fucompp
	fnstsw	ax
                                        # kill: def $ah killed $ah killed $ax
	sahf
	jne	.LBB87_2
	jp	.LBB87_2
	jmp	.LBB87_10
.LBB87_2:
	mov	eax, dword ptr [.L__profc_ldexpf+24]
	add	eax, 1
	adc	dword ptr [.L__profc_ldexpf+28], 0
	mov	dword ptr [.L__profc_ldexpf+24], eax
# %bb.3:
	mov	eax, dword ptr [.L__profc_ldexpf+8]
	add	eax, 1
	adc	dword ptr [.L__profc_ldexpf+12], 0
	mov	dword ptr [.L__profc_ldexpf+8], eax
	mov	eax, dword ptr [ebp + 12]
	shr	eax, 31
	mov	ecx, dword ptr [.L__profc_ldexpf+36]
	mov	edx, dword ptr [.L__profc_ldexpf+32]
	add	edx, eax
	adc	ecx, 0
	mov	dword ptr [.L__profc_ldexpf+32], edx
	mov	dword ptr [.L__profc_ldexpf+36], ecx
	fld	dword ptr [4*eax + .LCPI87_0]
	fstp	dword ptr [ebp - 4]
.LBB87_4:                               # =>This Inner Loop Header: Depth=1
	mov	eax, dword ptr [.L__profc_ldexpf+40]
	add	eax, 1
	adc	dword ptr [.L__profc_ldexpf+44], 0
	mov	dword ptr [.L__profc_ldexpf+40], eax
	mov	eax, dword ptr [ebp + 12]
	mov	ecx, 2
	cdq
	idiv	ecx
	cmp	edx, 0
	je	.LBB87_6
# %bb.5:                                #   in Loop: Header=BB87_4 Depth=1
	mov	eax, dword ptr [.L__profc_ldexpf+48]
	add	eax, 1
	adc	dword ptr [.L__profc_ldexpf+52], 0
	mov	dword ptr [.L__profc_ldexpf+48], eax
	fld	dword ptr [ebp - 4]
	fld	dword ptr [ebp + 8]
	fmulp	st(1), st
	fstp	dword ptr [ebp + 8]
.LBB87_6:                               #   in Loop: Header=BB87_4 Depth=1
	mov	eax, dword ptr [ebp + 12]
	mov	ecx, 2
	cdq
	idiv	ecx
	mov	dword ptr [ebp + 12], eax
	cmp	dword ptr [ebp + 12], 0
	jne	.LBB87_8
# %bb.7:
	mov	eax, dword ptr [.L__profc_ldexpf+56]
	add	eax, 1
	adc	dword ptr [.L__profc_ldexpf+60], 0
	mov	dword ptr [.L__profc_ldexpf+56], eax
	jmp	.LBB87_9
.LBB87_8:                               #   in Loop: Header=BB87_4 Depth=1
	fld	dword ptr [ebp - 4]
	fmul	st(0), st
	fstp	dword ptr [ebp - 4]
	jmp	.LBB87_4
.LBB87_9:
	jmp	.LBB87_10
.LBB87_10:
	fld	dword ptr [ebp + 8]
	add	esp, 4
	pop	ebp
	.cfi_def_cfa esp, 4
	fldz
	fldz
	fldz
	fldz
	fldz
	fldz
	fldz
	fstp	st(0)
	fstp	st(0)
	fstp	st(0)
	fstp	st(0)
	fstp	st(0)
	fstp	st(0)
	fstp	st(0)
	xor	eax, eax
	xor	ecx, ecx
	xor	edx, edx
	jmp	__x86_return_thunk              # TAILCALL
.Lfunc_end87:
	.size	ldexpf, .Lfunc_end87-ldexpf
	.cfi_endproc
                                        # -- End function
	.section	.rodata.cst16,"aM",@progbits,16
	.p2align	3, 0x0                          # -- Begin function ldexp
.LCPI88_0:
	.quad	0x4000000000000000              # double 2
	.quad	0x3fe0000000000000              # double 0.5
	.text
	.globl	ldexp
	.p2align	4, 0x90
	.type	ldexp,@function
ldexp:                                  # @ldexp
	.cfi_startproc
# %bb.0:
	push	ebp
	.cfi_def_cfa_offset 8
	.cfi_offset ebp, -8
	mov	ebp, esp
	.cfi_def_cfa_register ebp
	and	esp, -8
	sub	esp, 16
	mov	eax, dword ptr [ebp + 16]
	fld	qword ptr [ebp + 8]
	fstp	qword ptr [esp + 8]
	mov	eax, dword ptr [.L__profc_ldexp]
	add	eax, 1
	adc	dword ptr [.L__profc_ldexp+4], 0
	mov	dword ptr [.L__profc_ldexp], eax
	fld	qword ptr [esp + 8]
	fucomp	st(0)
	fnstsw	ax
                                        # kill: def $ah killed $ah killed $ax
	sahf
	setp	al
	test	al, 1
	jne	.LBB88_10
# %bb.1:
	mov	eax, dword ptr [.L__profc_ldexp+16]
	add	eax, 1
	adc	dword ptr [.L__profc_ldexp+20], 0
	mov	dword ptr [.L__profc_ldexp+16], eax
	fld	qword ptr [esp + 8]
	fld	st(0)
	fadd	st, st(1)
	fucompp
	fnstsw	ax
                                        # kill: def $ah killed $ah killed $ax
	sahf
	jne	.LBB88_2
	jp	.LBB88_2
	jmp	.LBB88_10
.LBB88_2:
	mov	eax, dword ptr [.L__profc_ldexp+24]
	add	eax, 1
	adc	dword ptr [.L__profc_ldexp+28], 0
	mov	dword ptr [.L__profc_ldexp+24], eax
# %bb.3:
	mov	eax, dword ptr [.L__profc_ldexp+8]
	add	eax, 1
	adc	dword ptr [.L__profc_ldexp+12], 0
	mov	dword ptr [.L__profc_ldexp+8], eax
	mov	eax, dword ptr [ebp + 16]
	shr	eax, 31
	mov	ecx, dword ptr [.L__profc_ldexp+36]
	mov	edx, dword ptr [.L__profc_ldexp+32]
	add	edx, eax
	adc	ecx, 0
	mov	dword ptr [.L__profc_ldexp+32], edx
	mov	dword ptr [.L__profc_ldexp+36], ecx
	fld	qword ptr [8*eax + .LCPI88_0]
	fstp	qword ptr [esp]
.LBB88_4:                               # =>This Inner Loop Header: Depth=1
	mov	eax, dword ptr [.L__profc_ldexp+40]
	add	eax, 1
	adc	dword ptr [.L__profc_ldexp+44], 0
	mov	dword ptr [.L__profc_ldexp+40], eax
	mov	eax, dword ptr [ebp + 16]
	mov	ecx, 2
	cdq
	idiv	ecx
	cmp	edx, 0
	je	.LBB88_6
# %bb.5:                                #   in Loop: Header=BB88_4 Depth=1
	mov	eax, dword ptr [.L__profc_ldexp+48]
	add	eax, 1
	adc	dword ptr [.L__profc_ldexp+52], 0
	mov	dword ptr [.L__profc_ldexp+48], eax
	fld	qword ptr [esp]
	fld	qword ptr [esp + 8]
	fmulp	st(1), st
	fstp	qword ptr [esp + 8]
.LBB88_6:                               #   in Loop: Header=BB88_4 Depth=1
	mov	eax, dword ptr [ebp + 16]
	mov	ecx, 2
	cdq
	idiv	ecx
	mov	dword ptr [ebp + 16], eax
	cmp	dword ptr [ebp + 16], 0
	jne	.LBB88_8
# %bb.7:
	mov	eax, dword ptr [.L__profc_ldexp+56]
	add	eax, 1
	adc	dword ptr [.L__profc_ldexp+60], 0
	mov	dword ptr [.L__profc_ldexp+56], eax
	jmp	.LBB88_9
.LBB88_8:                               #   in Loop: Header=BB88_4 Depth=1
	fld	qword ptr [esp]
	fmul	st(0), st
	fstp	qword ptr [esp]
	jmp	.LBB88_4
.LBB88_9:
	jmp	.LBB88_10
.LBB88_10:
	fld	qword ptr [esp + 8]
	mov	esp, ebp
	pop	ebp
	.cfi_def_cfa esp, 4
	fldz
	fldz
	fldz
	fldz
	fldz
	fldz
	fldz
	fstp	st(0)
	fstp	st(0)
	fstp	st(0)
	fstp	st(0)
	fstp	st(0)
	fstp	st(0)
	fstp	st(0)
	xor	eax, eax
	xor	ecx, ecx
	xor	edx, edx
	jmp	__x86_return_thunk              # TAILCALL
.Lfunc_end88:
	.size	ldexp, .Lfunc_end88-ldexp
	.cfi_endproc
                                        # -- End function
	.section	.rodata,"a",@progbits
	.p2align	2, 0x0                          # -- Begin function ldexpl
.LCPI89_0:
	.quad	0x8000000000000000              # x86_fp80 2
	.short	0x4000
	.zero	2
	.quad	0x8000000000000000              # x86_fp80 0.5
	.short	0x3ffe
	.zero	2
	.text
	.globl	ldexpl
	.p2align	4, 0x90
	.type	ldexpl,@function
ldexpl:                                 # @ldexpl
	.cfi_startproc
# %bb.0:
	push	ebp
	.cfi_def_cfa_offset 8
	.cfi_offset ebp, -8
	mov	ebp, esp
	.cfi_def_cfa_register ebp
	push	esi
	sub	esp, 24
	.cfi_offset esi, -12
	mov	eax, dword ptr [ebp + 20]
	fld	tbyte ptr [ebp + 8]
	fstp	tbyte ptr [ebp - 16]
	mov	eax, dword ptr [.L__profc_ldexpl]
	add	eax, 1
	adc	dword ptr [.L__profc_ldexpl+4], 0
	mov	dword ptr [.L__profc_ldexpl], eax
	fld	tbyte ptr [ebp - 16]
	fucomp	st(0)
	fnstsw	ax
                                        # kill: def $ah killed $ah killed $ax
	sahf
	setp	al
	test	al, 1
	jne	.LBB89_10
# %bb.1:
	mov	eax, dword ptr [.L__profc_ldexpl+16]
	add	eax, 1
	adc	dword ptr [.L__profc_ldexpl+20], 0
	mov	dword ptr [.L__profc_ldexpl+16], eax
	fld	tbyte ptr [ebp - 16]
	fld	st(0)
	fadd	st, st(1)
	fucompp
	fnstsw	ax
                                        # kill: def $ah killed $ah killed $ax
	sahf
	jne	.LBB89_2
	jp	.LBB89_2
	jmp	.LBB89_10
.LBB89_2:
	mov	eax, dword ptr [.L__profc_ldexpl+24]
	add	eax, 1
	adc	dword ptr [.L__profc_ldexpl+28], 0
	mov	dword ptr [.L__profc_ldexpl+24], eax
# %bb.3:
	mov	eax, dword ptr [.L__profc_ldexpl+8]
	add	eax, 1
	adc	dword ptr [.L__profc_ldexpl+12], 0
	mov	dword ptr [.L__profc_ldexpl+8], eax
	mov	eax, dword ptr [ebp + 20]
	mov	esi, eax
	shr	esi, 31
	mov	ecx, dword ptr [.L__profc_ldexpl+36]
	mov	edx, dword ptr [.L__profc_ldexpl+32]
	add	edx, esi
	adc	ecx, 0
	mov	dword ptr [.L__profc_ldexpl+32], edx
	mov	dword ptr [.L__profc_ldexpl+36], ecx
	sar	eax, 31
	and	eax, 12
	fld	tbyte ptr [eax + .LCPI89_0]
	fstp	tbyte ptr [ebp - 28]
.LBB89_4:                               # =>This Inner Loop Header: Depth=1
	mov	eax, dword ptr [.L__profc_ldexpl+40]
	add	eax, 1
	adc	dword ptr [.L__profc_ldexpl+44], 0
	mov	dword ptr [.L__profc_ldexpl+40], eax
	mov	eax, dword ptr [ebp + 20]
	mov	ecx, 2
	cdq
	idiv	ecx
	cmp	edx, 0
	je	.LBB89_6
# %bb.5:                                #   in Loop: Header=BB89_4 Depth=1
	mov	eax, dword ptr [.L__profc_ldexpl+48]
	add	eax, 1
	adc	dword ptr [.L__profc_ldexpl+52], 0
	mov	dword ptr [.L__profc_ldexpl+48], eax
	fld	tbyte ptr [ebp - 28]
	fld	tbyte ptr [ebp - 16]
	fmulp	st(1), st
	fstp	tbyte ptr [ebp - 16]
.LBB89_6:                               #   in Loop: Header=BB89_4 Depth=1
	mov	eax, dword ptr [ebp + 20]
	mov	ecx, 2
	cdq
	idiv	ecx
	mov	dword ptr [ebp + 20], eax
	cmp	dword ptr [ebp + 20], 0
	jne	.LBB89_8
# %bb.7:
	mov	eax, dword ptr [.L__profc_ldexpl+56]
	add	eax, 1
	adc	dword ptr [.L__profc_ldexpl+60], 0
	mov	dword ptr [.L__profc_ldexpl+56], eax
	jmp	.LBB89_9
.LBB89_8:                               #   in Loop: Header=BB89_4 Depth=1
	fld	tbyte ptr [ebp - 28]
	fmul	st(0), st
	fstp	tbyte ptr [ebp - 28]
	jmp	.LBB89_4
.LBB89_9:
	jmp	.LBB89_10
.LBB89_10:
	fld	tbyte ptr [ebp - 16]
	add	esp, 24
	pop	esi
	pop	ebp
	.cfi_def_cfa esp, 4
	fldz
	fldz
	fldz
	fldz
	fldz
	fldz
	fldz
	fstp	st(0)
	fstp	st(0)
	fstp	st(0)
	fstp	st(0)
	fstp	st(0)
	fstp	st(0)
	fstp	st(0)
	xor	eax, eax
	xor	ecx, ecx
	xor	edx, edx
	jmp	__x86_return_thunk              # TAILCALL
.Lfunc_end89:
	.size	ldexpl, .Lfunc_end89-ldexpl
	.cfi_endproc
                                        # -- End function
	.globl	memxor                          # -- Begin function memxor
	.p2align	4, 0x90
	.type	memxor,@function
memxor:                                 # @memxor
	.cfi_startproc
# %bb.0:
	push	ebp
	.cfi_def_cfa_offset 8
	.cfi_offset ebp, -8
	mov	ebp, esp
	.cfi_def_cfa_register ebp
	sub	esp, 8
	mov	eax, dword ptr [ebp + 16]
	mov	eax, dword ptr [ebp + 12]
	mov	eax, dword ptr [ebp + 8]
	mov	eax, dword ptr [.L__profc_memxor]
	add	eax, 1
	adc	dword ptr [.L__profc_memxor+4], 0
	mov	dword ptr [.L__profc_memxor], eax
	mov	eax, dword ptr [ebp + 12]
	mov	dword ptr [ebp - 4], eax
	mov	eax, dword ptr [ebp + 8]
	mov	dword ptr [ebp - 8], eax
.LBB90_1:                               # =>This Inner Loop Header: Depth=1
	cmp	dword ptr [ebp + 16], 0
	jbe	.LBB90_4
# %bb.2:                                #   in Loop: Header=BB90_1 Depth=1
	mov	eax, dword ptr [.L__profc_memxor+8]
	add	eax, 1
	adc	dword ptr [.L__profc_memxor+12], 0
	mov	dword ptr [.L__profc_memxor+8], eax
	mov	eax, dword ptr [ebp - 4]
	mov	ecx, eax
	add	ecx, 1
	mov	dword ptr [ebp - 4], ecx
	movsx	edx, byte ptr [eax]
	mov	eax, dword ptr [ebp - 8]
	mov	ecx, eax
	add	ecx, 1
	mov	dword ptr [ebp - 8], ecx
	movsx	ecx, byte ptr [eax]
	xor	ecx, edx
                                        # kill: def $cl killed $cl killed $ecx
	mov	byte ptr [eax], cl
# %bb.3:                                #   in Loop: Header=BB90_1 Depth=1
	mov	eax, dword ptr [ebp + 16]
	add	eax, -1
	mov	dword ptr [ebp + 16], eax
	jmp	.LBB90_1
.LBB90_4:
	mov	eax, dword ptr [ebp + 8]
	add	esp, 8
	pop	ebp
	.cfi_def_cfa esp, 4
	fldz
	fldz
	fldz
	fldz
	fldz
	fldz
	fldz
	fstp	st(0)
	fstp	st(0)
	fstp	st(0)
	fstp	st(0)
	fstp	st(0)
	fstp	st(0)
	fstp	st(0)
	xor	ecx, ecx
	xor	edx, edx
	jmp	__x86_return_thunk              # TAILCALL
.Lfunc_end90:
	.size	memxor, .Lfunc_end90-memxor
	.cfi_endproc
                                        # -- End function
	.globl	strncat                         # -- Begin function strncat
	.p2align	4, 0x90
	.type	strncat,@function
strncat:                                # @strncat
	.cfi_startproc
# %bb.0:
	push	ebp
	.cfi_def_cfa_offset 8
	.cfi_offset ebp, -8
	mov	ebp, esp
	.cfi_def_cfa_register ebp
	sub	esp, 16
	mov	eax, dword ptr [ebp + 16]
	mov	eax, dword ptr [ebp + 12]
	mov	eax, dword ptr [ebp + 8]
	mov	eax, dword ptr [.L__profc_strncat]
	add	eax, 1
	adc	dword ptr [.L__profc_strncat+4], 0
	mov	dword ptr [.L__profc_strncat], eax
	mov	eax, dword ptr [ebp + 8]
	mov	dword ptr [ebp - 8], eax        # 4-byte Spill
	mov	ecx, dword ptr [ebp + 8]
	mov	eax, esp
	mov	dword ptr [eax], ecx
	call	strlen
	mov	ecx, eax
	mov	eax, dword ptr [ebp - 8]        # 4-byte Reload
	add	eax, ecx
	mov	dword ptr [ebp - 4], eax
.LBB91_1:                               # =>This Inner Loop Header: Depth=1
	xor	eax, eax
                                        # kill: def $al killed $al killed $eax
	cmp	dword ptr [ebp + 16], 0
	mov	byte ptr [ebp - 9], al          # 1-byte Spill
	jbe	.LBB91_4
# %bb.2:                                #   in Loop: Header=BB91_1 Depth=1
	mov	eax, dword ptr [.L__profc_strncat+16]
	add	eax, 1
	adc	dword ptr [.L__profc_strncat+20], 0
	mov	dword ptr [.L__profc_strncat+16], eax
	mov	eax, dword ptr [ebp + 12]
	mov	al, byte ptr [eax]
	mov	ecx, dword ptr [ebp - 4]
	mov	byte ptr [ecx], al
	movsx	eax, al
	cmp	eax, 0
	setne	al
	mov	byte ptr [ebp - 10], al         # 1-byte Spill
	test	al, 1
	mov	byte ptr [ebp - 9], al          # 1-byte Spill
	jne	.LBB91_3
	jmp	.LBB91_4
.LBB91_3:                               #   in Loop: Header=BB91_1 Depth=1
	mov	al, byte ptr [ebp - 10]         # 1-byte Reload
	mov	ecx, dword ptr [.L__profc_strncat+24]
	add	ecx, 1
	adc	dword ptr [.L__profc_strncat+28], 0
	mov	dword ptr [.L__profc_strncat+24], ecx
	mov	byte ptr [ebp - 9], al          # 1-byte Spill
.LBB91_4:                               #   in Loop: Header=BB91_1 Depth=1
	mov	al, byte ptr [ebp - 9]          # 1-byte Reload
	test	al, 1
	jne	.LBB91_5
	jmp	.LBB91_7
.LBB91_5:                               #   in Loop: Header=BB91_1 Depth=1
	mov	eax, dword ptr [.L__profc_strncat+8]
	add	eax, 1
	adc	dword ptr [.L__profc_strncat+12], 0
	mov	dword ptr [.L__profc_strncat+8], eax
# %bb.6:                                #   in Loop: Header=BB91_1 Depth=1
	mov	eax, dword ptr [ebp + 12]
	add	eax, 1
	mov	dword ptr [ebp + 12], eax
	mov	eax, dword ptr [ebp - 4]
	add	eax, 1
	mov	dword ptr [ebp - 4], eax
	mov	eax, dword ptr [ebp + 16]
	add	eax, -1
	mov	dword ptr [ebp + 16], eax
	jmp	.LBB91_1
.LBB91_7:
	cmp	dword ptr [ebp + 16], 0
	jne	.LBB91_9
# %bb.8:
	mov	eax, dword ptr [.L__profc_strncat+32]
	add	eax, 1
	adc	dword ptr [.L__profc_strncat+36], 0
	mov	dword ptr [.L__profc_strncat+32], eax
	mov	eax, dword ptr [ebp - 4]
	mov	byte ptr [eax], 0
.LBB91_9:
	mov	eax, dword ptr [ebp + 8]
	add	esp, 16
	pop	ebp
	.cfi_def_cfa esp, 4
	fldz
	fldz
	fldz
	fldz
	fldz
	fldz
	fldz
	fstp	st(0)
	fstp	st(0)
	fstp	st(0)
	fstp	st(0)
	fstp	st(0)
	fstp	st(0)
	fstp	st(0)
	xor	ecx, ecx
	xor	edx, edx
	jmp	__x86_return_thunk              # TAILCALL
.Lfunc_end91:
	.size	strncat, .Lfunc_end91-strncat
	.cfi_endproc
                                        # -- End function
	.globl	strnlen                         # -- Begin function strnlen
	.p2align	4, 0x90
	.type	strnlen,@function
strnlen:                                # @strnlen
	.cfi_startproc
# %bb.0:
	push	ebp
	.cfi_def_cfa_offset 8
	.cfi_offset ebp, -8
	mov	ebp, esp
	.cfi_def_cfa_register ebp
	sub	esp, 8
	mov	eax, dword ptr [ebp + 12]
	mov	eax, dword ptr [ebp + 8]
	mov	eax, dword ptr [.L__profc_strnlen]
	add	eax, 1
	adc	dword ptr [.L__profc_strnlen+4], 0
	mov	dword ptr [.L__profc_strnlen], eax
	mov	dword ptr [ebp - 4], 0
.LBB92_1:                               # =>This Inner Loop Header: Depth=1
	mov	ecx, dword ptr [ebp - 4]
	xor	eax, eax
                                        # kill: def $al killed $al killed $eax
	cmp	ecx, dword ptr [ebp + 12]
	mov	byte ptr [ebp - 5], al          # 1-byte Spill
	jae	.LBB92_4
# %bb.2:                                #   in Loop: Header=BB92_1 Depth=1
	mov	eax, dword ptr [.L__profc_strnlen+16]
	add	eax, 1
	adc	dword ptr [.L__profc_strnlen+20], 0
	mov	dword ptr [.L__profc_strnlen+16], eax
	mov	eax, dword ptr [ebp + 8]
	mov	ecx, dword ptr [ebp - 4]
	movsx	eax, byte ptr [eax + ecx]
	cmp	eax, 0
	setne	al
	mov	byte ptr [ebp - 6], al          # 1-byte Spill
	test	al, 1
	mov	byte ptr [ebp - 5], al          # 1-byte Spill
	jne	.LBB92_3
	jmp	.LBB92_4
.LBB92_3:                               #   in Loop: Header=BB92_1 Depth=1
	mov	al, byte ptr [ebp - 6]          # 1-byte Reload
	mov	ecx, dword ptr [.L__profc_strnlen+24]
	add	ecx, 1
	adc	dword ptr [.L__profc_strnlen+28], 0
	mov	dword ptr [.L__profc_strnlen+24], ecx
	mov	byte ptr [ebp - 5], al          # 1-byte Spill
.LBB92_4:                               #   in Loop: Header=BB92_1 Depth=1
	mov	al, byte ptr [ebp - 5]          # 1-byte Reload
	test	al, 1
	jne	.LBB92_5
	jmp	.LBB92_7
.LBB92_5:                               #   in Loop: Header=BB92_1 Depth=1
	mov	eax, dword ptr [.L__profc_strnlen+8]
	add	eax, 1
	adc	dword ptr [.L__profc_strnlen+12], 0
	mov	dword ptr [.L__profc_strnlen+8], eax
# %bb.6:                                #   in Loop: Header=BB92_1 Depth=1
	mov	eax, dword ptr [ebp - 4]
	add	eax, 1
	mov	dword ptr [ebp - 4], eax
	jmp	.LBB92_1
.LBB92_7:
	mov	eax, dword ptr [ebp - 4]
	add	esp, 8
	pop	ebp
	.cfi_def_cfa esp, 4
	fldz
	fldz
	fldz
	fldz
	fldz
	fldz
	fldz
	fstp	st(0)
	fstp	st(0)
	fstp	st(0)
	fstp	st(0)
	fstp	st(0)
	fstp	st(0)
	fstp	st(0)
	xor	ecx, ecx
	xor	edx, edx
	jmp	__x86_return_thunk              # TAILCALL
.Lfunc_end92:
	.size	strnlen, .Lfunc_end92-strnlen
	.cfi_endproc
                                        # -- End function
	.globl	strpbrk                         # -- Begin function strpbrk
	.p2align	4, 0x90
	.type	strpbrk,@function
strpbrk:                                # @strpbrk
	.cfi_startproc
# %bb.0:
	push	ebp
	.cfi_def_cfa_offset 8
	.cfi_offset ebp, -8
	mov	ebp, esp
	.cfi_def_cfa_register ebp
	sub	esp, 8
	mov	eax, dword ptr [ebp + 12]
	mov	eax, dword ptr [ebp + 8]
	mov	eax, dword ptr [.L__profc_strpbrk]
	add	eax, 1
	adc	dword ptr [.L__profc_strpbrk+4], 0
	mov	dword ptr [.L__profc_strpbrk], eax
.LBB93_1:                               # =>This Loop Header: Depth=1
                                        #     Child Loop BB93_3 Depth 2
	mov	eax, dword ptr [ebp + 8]
	movsx	eax, byte ptr [eax]
	cmp	eax, 0
	je	.LBB93_8
# %bb.2:                                #   in Loop: Header=BB93_1 Depth=1
	mov	eax, dword ptr [.L__profc_strpbrk+8]
	add	eax, 1
	adc	dword ptr [.L__profc_strpbrk+12], 0
	mov	dword ptr [.L__profc_strpbrk+8], eax
	mov	eax, dword ptr [ebp + 12]
	mov	dword ptr [ebp - 8], eax
.LBB93_3:                               #   Parent Loop BB93_1 Depth=1
                                        # =>  This Inner Loop Header: Depth=2
	mov	eax, dword ptr [ebp - 8]
	movsx	eax, byte ptr [eax]
	cmp	eax, 0
	je	.LBB93_7
# %bb.4:                                #   in Loop: Header=BB93_3 Depth=2
	mov	eax, dword ptr [.L__profc_strpbrk+16]
	add	eax, 1
	adc	dword ptr [.L__profc_strpbrk+20], 0
	mov	dword ptr [.L__profc_strpbrk+16], eax
	mov	eax, dword ptr [ebp - 8]
	mov	ecx, eax
	add	ecx, 1
	mov	dword ptr [ebp - 8], ecx
	movsx	eax, byte ptr [eax]
	mov	ecx, dword ptr [ebp + 8]
	movsx	ecx, byte ptr [ecx]
	cmp	eax, ecx
	jne	.LBB93_6
# %bb.5:
	mov	eax, dword ptr [.L__profc_strpbrk+24]
	add	eax, 1
	adc	dword ptr [.L__profc_strpbrk+28], 0
	mov	dword ptr [.L__profc_strpbrk+24], eax
	mov	eax, dword ptr [ebp + 8]
	mov	dword ptr [ebp - 4], eax
	jmp	.LBB93_9
.LBB93_6:                               #   in Loop: Header=BB93_3 Depth=2
	jmp	.LBB93_3
.LBB93_7:                               #   in Loop: Header=BB93_1 Depth=1
	mov	eax, dword ptr [ebp + 8]
	add	eax, 1
	mov	dword ptr [ebp + 8], eax
	jmp	.LBB93_1
.LBB93_8:
	mov	dword ptr [ebp - 4], 0
.LBB93_9:
	mov	eax, dword ptr [ebp - 4]
	add	esp, 8
	pop	ebp
	.cfi_def_cfa esp, 4
	fldz
	fldz
	fldz
	fldz
	fldz
	fldz
	fldz
	fstp	st(0)
	fstp	st(0)
	fstp	st(0)
	fstp	st(0)
	fstp	st(0)
	fstp	st(0)
	fstp	st(0)
	xor	ecx, ecx
	xor	edx, edx
	jmp	__x86_return_thunk              # TAILCALL
.Lfunc_end93:
	.size	strpbrk, .Lfunc_end93-strpbrk
	.cfi_endproc
                                        # -- End function
	.globl	strrchr                         # -- Begin function strrchr
	.p2align	4, 0x90
	.type	strrchr,@function
strrchr:                                # @strrchr
	.cfi_startproc
# %bb.0:
	push	ebp
	.cfi_def_cfa_offset 8
	.cfi_offset ebp, -8
	mov	ebp, esp
	.cfi_def_cfa_register ebp
	push	eax
	mov	eax, dword ptr [ebp + 12]
	mov	eax, dword ptr [ebp + 8]
	mov	eax, dword ptr [.L__profc_strrchr]
	add	eax, 1
	adc	dword ptr [.L__profc_strrchr+4], 0
	mov	dword ptr [.L__profc_strrchr], eax
	mov	dword ptr [ebp - 4], 0
	jmp	.LBB94_2
.LBB94_1:                               #   in Loop: Header=BB94_2 Depth=1
	mov	eax, dword ptr [.L__profc_strrchr+8]
	add	eax, 1
	adc	dword ptr [.L__profc_strrchr+12], 0
	mov	dword ptr [.L__profc_strrchr+8], eax
.LBB94_2:                               # =>This Inner Loop Header: Depth=1
	mov	eax, dword ptr [ebp + 8]
	movsx	eax, byte ptr [eax]
	cmp	eax, dword ptr [ebp + 12]
	jne	.LBB94_4
# %bb.3:                                #   in Loop: Header=BB94_2 Depth=1
	mov	eax, dword ptr [.L__profc_strrchr+16]
	add	eax, 1
	adc	dword ptr [.L__profc_strrchr+20], 0
	mov	dword ptr [.L__profc_strrchr+16], eax
	mov	eax, dword ptr [ebp + 8]
	mov	dword ptr [ebp - 4], eax
.LBB94_4:                               #   in Loop: Header=BB94_2 Depth=1
	jmp	.LBB94_5
.LBB94_5:                               #   in Loop: Header=BB94_2 Depth=1
	mov	eax, dword ptr [ebp + 8]
	mov	ecx, eax
	add	ecx, 1
	mov	dword ptr [ebp + 8], ecx
	cmp	byte ptr [eax], 0
	jne	.LBB94_1
# %bb.6:
	mov	eax, dword ptr [ebp - 4]
	add	esp, 4
	pop	ebp
	.cfi_def_cfa esp, 4
	fldz
	fldz
	fldz
	fldz
	fldz
	fldz
	fldz
	fstp	st(0)
	fstp	st(0)
	fstp	st(0)
	fstp	st(0)
	fstp	st(0)
	fstp	st(0)
	fstp	st(0)
	xor	ecx, ecx
	xor	edx, edx
	jmp	__x86_return_thunk              # TAILCALL
.Lfunc_end94:
	.size	strrchr, .Lfunc_end94-strrchr
	.cfi_endproc
                                        # -- End function
	.globl	strstr                          # -- Begin function strstr
	.p2align	4, 0x90
	.type	strstr,@function
strstr:                                 # @strstr
	.cfi_startproc
# %bb.0:
	push	ebp
	.cfi_def_cfa_offset 8
	.cfi_offset ebp, -8
	mov	ebp, esp
	.cfi_def_cfa_register ebp
	sub	esp, 24
	mov	eax, dword ptr [ebp + 12]
	mov	eax, dword ptr [ebp + 8]
	mov	eax, dword ptr [.L__profc_strstr]
	add	eax, 1
	adc	dword ptr [.L__profc_strstr+4], 0
	mov	dword ptr [.L__profc_strstr], eax
	mov	eax, dword ptr [ebp + 8]
	mov	dword ptr [ebp - 8], eax
	mov	ecx, dword ptr [ebp + 12]
	mov	eax, esp
	mov	dword ptr [eax], ecx
	call	strlen
	mov	dword ptr [ebp - 12], eax
	cmp	dword ptr [ebp - 12], 0
	jne	.LBB95_2
# %bb.1:
	mov	eax, dword ptr [.L__profc_strstr+8]
	add	eax, 1
	adc	dword ptr [.L__profc_strstr+12], 0
	mov	dword ptr [.L__profc_strstr+8], eax
	mov	eax, dword ptr [ebp + 8]
	mov	dword ptr [ebp - 4], eax
	jmp	.LBB95_9
.LBB95_2:
	jmp	.LBB95_3
.LBB95_3:                               # =>This Inner Loop Header: Depth=1
	mov	ecx, dword ptr [ebp - 8]
	mov	eax, dword ptr [ebp + 12]
	movsx	eax, byte ptr [eax]
	mov	dword ptr [esp], ecx
	mov	dword ptr [esp + 4], eax
	call	strchr
	mov	dword ptr [ebp - 8], eax
	cmp	eax, 0
	je	.LBB95_8
# %bb.4:                                #   in Loop: Header=BB95_3 Depth=1
	mov	eax, dword ptr [.L__profc_strstr+16]
	add	eax, 1
	adc	dword ptr [.L__profc_strstr+20], 0
	mov	dword ptr [.L__profc_strstr+16], eax
	mov	edx, dword ptr [ebp - 8]
	mov	ecx, dword ptr [ebp + 12]
	mov	eax, dword ptr [ebp - 12]
	mov	dword ptr [esp], edx
	mov	dword ptr [esp + 4], ecx
	mov	dword ptr [esp + 8], eax
	call	strncmp
	cmp	eax, 0
	jne	.LBB95_6
# %bb.5:
	mov	eax, dword ptr [.L__profc_strstr+24]
	add	eax, 1
	adc	dword ptr [.L__profc_strstr+28], 0
	mov	dword ptr [.L__profc_strstr+24], eax
	mov	eax, dword ptr [ebp - 8]
	mov	dword ptr [ebp - 4], eax
	jmp	.LBB95_9
.LBB95_6:                               #   in Loop: Header=BB95_3 Depth=1
	jmp	.LBB95_7
.LBB95_7:                               #   in Loop: Header=BB95_3 Depth=1
	mov	eax, dword ptr [ebp - 8]
	add	eax, 1
	mov	dword ptr [ebp - 8], eax
	jmp	.LBB95_3
.LBB95_8:
	mov	dword ptr [ebp - 4], 0
.LBB95_9:
	mov	eax, dword ptr [ebp - 4]
	add	esp, 24
	pop	ebp
	.cfi_def_cfa esp, 4
	fldz
	fldz
	fldz
	fldz
	fldz
	fldz
	fldz
	fstp	st(0)
	fstp	st(0)
	fstp	st(0)
	fstp	st(0)
	fstp	st(0)
	fstp	st(0)
	fstp	st(0)
	xor	ecx, ecx
	xor	edx, edx
	jmp	__x86_return_thunk              # TAILCALL
.Lfunc_end95:
	.size	strstr, .Lfunc_end95-strstr
	.cfi_endproc
                                        # -- End function
	.globl	copysign                        # -- Begin function copysign
	.p2align	4, 0x90
	.type	copysign,@function
copysign:                               # @copysign
	.cfi_startproc
# %bb.0:
	push	ebp
	.cfi_def_cfa_offset 8
	.cfi_offset ebp, -8
	mov	ebp, esp
	.cfi_def_cfa_register ebp
	and	esp, -8
	sub	esp, 24
	fld	qword ptr [ebp + 16]
	fld	qword ptr [ebp + 8]
	fstp	qword ptr [esp + 8]
	fstp	qword ptr [esp]
	mov	eax, dword ptr [.L__profc_copysign]
	add	eax, 1
	adc	dword ptr [.L__profc_copysign+4], 0
	mov	dword ptr [.L__profc_copysign], eax
	fld	qword ptr [esp + 8]
	fldz
	fucompp
	fnstsw	ax
                                        # kill: def $ah killed $ah killed $ax
	sahf
	jbe	.LBB96_3
	jmp	.LBB96_1
.LBB96_1:
	mov	eax, dword ptr [.L__profc_copysign+24]
	add	eax, 1
	adc	dword ptr [.L__profc_copysign+28], 0
	mov	dword ptr [.L__profc_copysign+24], eax
	fld	qword ptr [esp]
	fldz
	fxch	st(1)
	fucompp
	fnstsw	ax
                                        # kill: def $ah killed $ah killed $ax
	sahf
	jbe	.LBB96_3
	jmp	.LBB96_2
.LBB96_2:
	mov	eax, dword ptr [.L__profc_copysign+32]
	add	eax, 1
	adc	dword ptr [.L__profc_copysign+36], 0
	mov	dword ptr [.L__profc_copysign+32], eax
	jmp	.LBB96_6
.LBB96_3:
	mov	eax, dword ptr [.L__profc_copysign+16]
	add	eax, 1
	adc	dword ptr [.L__profc_copysign+20], 0
	mov	dword ptr [.L__profc_copysign+16], eax
	fld	qword ptr [esp + 8]
	fldz
	fxch	st(1)
	fucompp
	fnstsw	ax
                                        # kill: def $ah killed $ah killed $ax
	sahf
	jbe	.LBB96_7
	jmp	.LBB96_4
.LBB96_4:
	mov	eax, dword ptr [.L__profc_copysign+40]
	add	eax, 1
	adc	dword ptr [.L__profc_copysign+44], 0
	mov	dword ptr [.L__profc_copysign+40], eax
	fld	qword ptr [esp]
	fldz
	fucompp
	fnstsw	ax
                                        # kill: def $ah killed $ah killed $ax
	sahf
	jbe	.LBB96_7
	jmp	.LBB96_5
.LBB96_5:
	mov	eax, dword ptr [.L__profc_copysign+48]
	add	eax, 1
	adc	dword ptr [.L__profc_copysign+52], 0
	mov	dword ptr [.L__profc_copysign+48], eax
.LBB96_6:
	mov	eax, dword ptr [.L__profc_copysign+8]
	add	eax, 1
	adc	dword ptr [.L__profc_copysign+12], 0
	mov	dword ptr [.L__profc_copysign+8], eax
	fld	qword ptr [esp + 8]
	fchs
	fstp	qword ptr [esp + 16]
	jmp	.LBB96_8
.LBB96_7:
	fld	qword ptr [esp + 8]
	fstp	qword ptr [esp + 16]
.LBB96_8:
	fld	qword ptr [esp + 16]
	mov	esp, ebp
	pop	ebp
	.cfi_def_cfa esp, 4
	fldz
	fldz
	fldz
	fldz
	fldz
	fldz
	fldz
	fstp	st(0)
	fstp	st(0)
	fstp	st(0)
	fstp	st(0)
	fstp	st(0)
	fstp	st(0)
	fstp	st(0)
	xor	eax, eax
	xor	ecx, ecx
	xor	edx, edx
	jmp	__x86_return_thunk              # TAILCALL
.Lfunc_end96:
	.size	copysign, .Lfunc_end96-copysign
	.cfi_endproc
                                        # -- End function
	.globl	memmem                          # -- Begin function memmem
	.p2align	4, 0x90
	.type	memmem,@function
memmem:                                 # @memmem
	.cfi_startproc
# %bb.0:
	push	ebp
	.cfi_def_cfa_offset 8
	.cfi_offset ebp, -8
	mov	ebp, esp
	.cfi_def_cfa_register ebp
	push	esi
	sub	esp, 24
	.cfi_offset esi, -12
	mov	eax, dword ptr [ebp + 20]
	mov	eax, dword ptr [ebp + 16]
	mov	eax, dword ptr [ebp + 12]
	mov	eax, dword ptr [ebp + 8]
	mov	eax, dword ptr [.L__profc_memmem]
	add	eax, 1
	adc	dword ptr [.L__profc_memmem+4], 0
	mov	dword ptr [.L__profc_memmem], eax
	mov	eax, dword ptr [ebp + 8]
	add	eax, dword ptr [ebp + 12]
	xor	ecx, ecx
	sub	ecx, dword ptr [ebp + 20]
	add	eax, ecx
	mov	dword ptr [ebp - 16], eax
	cmp	dword ptr [ebp + 20], 0
	jne	.LBB97_2
# %bb.1:
	mov	eax, dword ptr [.L__profc_memmem+8]
	add	eax, 1
	adc	dword ptr [.L__profc_memmem+12], 0
	mov	dword ptr [.L__profc_memmem+8], eax
	mov	eax, dword ptr [ebp + 8]
	mov	dword ptr [ebp - 8], eax
	jmp	.LBB97_13
.LBB97_2:
	mov	eax, dword ptr [ebp + 12]
	cmp	eax, dword ptr [ebp + 20]
	jae	.LBB97_4
# %bb.3:
	mov	eax, dword ptr [.L__profc_memmem+16]
	add	eax, 1
	adc	dword ptr [.L__profc_memmem+20], 0
	mov	dword ptr [.L__profc_memmem+16], eax
	mov	dword ptr [ebp - 8], 0
	jmp	.LBB97_13
.LBB97_4:
	mov	eax, dword ptr [ebp + 8]
	mov	dword ptr [ebp - 12], eax
.LBB97_5:                               # =>This Inner Loop Header: Depth=1
	mov	eax, dword ptr [ebp - 12]
	cmp	eax, dword ptr [ebp - 16]
	ja	.LBB97_12
# %bb.6:                                #   in Loop: Header=BB97_5 Depth=1
	mov	eax, dword ptr [.L__profc_memmem+24]
	add	eax, 1
	adc	dword ptr [.L__profc_memmem+28], 0
	mov	dword ptr [.L__profc_memmem+24], eax
	mov	eax, dword ptr [ebp - 12]
	movsx	eax, byte ptr [eax]
	mov	ecx, dword ptr [ebp + 16]
	movsx	ecx, byte ptr [ecx]
	cmp	eax, ecx
	jne	.LBB97_10
# %bb.7:                                #   in Loop: Header=BB97_5 Depth=1
	mov	eax, dword ptr [.L__profc_memmem+40]
	add	eax, 1
	adc	dword ptr [.L__profc_memmem+44], 0
	mov	dword ptr [.L__profc_memmem+40], eax
	mov	ecx, dword ptr [ebp - 12]
	add	ecx, 1
	mov	edx, dword ptr [ebp + 16]
	add	edx, 1
	mov	esi, dword ptr [ebp + 20]
	sub	esi, 1
	mov	eax, esp
	mov	dword ptr [eax + 8], esi
	mov	dword ptr [eax + 4], edx
	mov	dword ptr [eax], ecx
	call	memcmp
	cmp	eax, 0
	jne	.LBB97_10
# %bb.8:
	mov	eax, dword ptr [.L__profc_memmem+48]
	add	eax, 1
	adc	dword ptr [.L__profc_memmem+52], 0
	mov	dword ptr [.L__profc_memmem+48], eax
# %bb.9:
	mov	eax, dword ptr [.L__profc_memmem+32]
	add	eax, 1
	adc	dword ptr [.L__profc_memmem+36], 0
	mov	dword ptr [.L__profc_memmem+32], eax
	mov	eax, dword ptr [ebp - 12]
	mov	dword ptr [ebp - 8], eax
	jmp	.LBB97_13
.LBB97_10:                              #   in Loop: Header=BB97_5 Depth=1
	jmp	.LBB97_11
.LBB97_11:                              #   in Loop: Header=BB97_5 Depth=1
	mov	eax, dword ptr [ebp - 12]
	add	eax, 1
	mov	dword ptr [ebp - 12], eax
	jmp	.LBB97_5
.LBB97_12:
	mov	dword ptr [ebp - 8], 0
.LBB97_13:
	mov	eax, dword ptr [ebp - 8]
	add	esp, 24
	pop	esi
	pop	ebp
	.cfi_def_cfa esp, 4
	fldz
	fldz
	fldz
	fldz
	fldz
	fldz
	fldz
	fstp	st(0)
	fstp	st(0)
	fstp	st(0)
	fstp	st(0)
	fstp	st(0)
	fstp	st(0)
	fstp	st(0)
	xor	ecx, ecx
	xor	edx, edx
	jmp	__x86_return_thunk              # TAILCALL
.Lfunc_end97:
	.size	memmem, .Lfunc_end97-memmem
	.cfi_endproc
                                        # -- End function
	.globl	mempcpy                         # -- Begin function mempcpy
	.p2align	4, 0x90
	.type	mempcpy,@function
mempcpy:                                # @mempcpy
	.cfi_startproc
# %bb.0:
	push	ebp
	.cfi_def_cfa_offset 8
	.cfi_offset ebp, -8
	mov	ebp, esp
	.cfi_def_cfa_register ebp
	sub	esp, 16
	mov	eax, dword ptr [ebp + 16]
	mov	eax, dword ptr [ebp + 12]
	mov	eax, dword ptr [ebp + 8]
	mov	eax, dword ptr [.L__profc_mempcpy]
	add	eax, 1
	adc	dword ptr [.L__profc_mempcpy+4], 0
	mov	dword ptr [.L__profc_mempcpy], eax
	mov	edx, dword ptr [ebp + 8]
	mov	dword ptr [ebp - 4], edx        # 4-byte Spill
	mov	ecx, dword ptr [ebp + 12]
	mov	eax, dword ptr [ebp + 16]
	mov	dword ptr [esp], edx
	mov	dword ptr [esp + 4], ecx
	mov	dword ptr [esp + 8], eax
	call	memcpy
	mov	eax, dword ptr [ebp - 4]        # 4-byte Reload
	add	eax, dword ptr [ebp + 16]
	add	esp, 16
	pop	ebp
	.cfi_def_cfa esp, 4
	fldz
	fldz
	fldz
	fldz
	fldz
	fldz
	fldz
	fstp	st(0)
	fstp	st(0)
	fstp	st(0)
	fstp	st(0)
	fstp	st(0)
	fstp	st(0)
	fstp	st(0)
	xor	ecx, ecx
	xor	edx, edx
	jmp	__x86_return_thunk              # TAILCALL
.Lfunc_end98:
	.size	mempcpy, .Lfunc_end98-mempcpy
	.cfi_endproc
                                        # -- End function
	.section	.rodata.cst8,"aM",@progbits,8
	.p2align	3, 0x0                          # -- Begin function frexp
.LCPI99_0:
	.quad	0x3fe0000000000000              # double 0.5
	.section	.rodata.cst4,"aM",@progbits,4
	.p2align	2, 0x0
.LCPI99_1:
	.long	0x3f000000                      # float 0.5
	.text
	.globl	frexp
	.p2align	4, 0x90
	.type	frexp,@function
frexp:                                  # @frexp
	.cfi_startproc
# %bb.0:
	push	ebp
	.cfi_def_cfa_offset 8
	.cfi_offset ebp, -8
	mov	ebp, esp
	.cfi_def_cfa_register ebp
	and	esp, -8
	sub	esp, 16
	mov	eax, dword ptr [ebp + 16]
	fld	qword ptr [ebp + 8]
	fstp	qword ptr [esp + 8]
	mov	eax, dword ptr [.L__profc_frexp]
	add	eax, 1
	adc	dword ptr [.L__profc_frexp+4], 0
	mov	dword ptr [.L__profc_frexp], eax
	mov	dword ptr [esp], 0
	mov	dword ptr [esp + 4], 0
	fld	qword ptr [esp + 8]
	fldz
	fucompp
	fnstsw	ax
                                        # kill: def $ah killed $ah killed $ax
	sahf
	jbe	.LBB99_2
	jmp	.LBB99_1
.LBB99_1:
	mov	eax, dword ptr [.L__profc_frexp+8]
	add	eax, 1
	adc	dword ptr [.L__profc_frexp+12], 0
	mov	dword ptr [.L__profc_frexp+8], eax
	fld	qword ptr [esp + 8]
	fchs
	fstp	qword ptr [esp + 8]
	mov	dword ptr [esp + 4], 1
.LBB99_2:
	fld	qword ptr [esp + 8]
	fld1
	fxch	st(1)
	fucompp
	fnstsw	ax
                                        # kill: def $ah killed $ah killed $ax
	sahf
	jb	.LBB99_7
	jmp	.LBB99_3
.LBB99_3:
	mov	eax, dword ptr [.L__profc_frexp+16]
	add	eax, 1
	adc	dword ptr [.L__profc_frexp+20], 0
	mov	dword ptr [.L__profc_frexp+16], eax
.LBB99_4:                               # =>This Inner Loop Header: Depth=1
	fld	qword ptr [esp + 8]
	fld1
	fxch	st(1)
	fucompp
	fnstsw	ax
                                        # kill: def $ah killed $ah killed $ax
	sahf
	jb	.LBB99_6
	jmp	.LBB99_5
.LBB99_5:                               #   in Loop: Header=BB99_4 Depth=1
	mov	eax, dword ptr [.L__profc_frexp+24]
	add	eax, 1
	adc	dword ptr [.L__profc_frexp+28], 0
	mov	dword ptr [.L__profc_frexp+24], eax
	mov	eax, dword ptr [esp]
	inc	eax
	mov	dword ptr [esp], eax
	fld	qword ptr [esp + 8]
	fld	dword ptr [.LCPI99_1]
	fmulp	st(1), st
	fstp	qword ptr [esp + 8]
	jmp	.LBB99_4
.LBB99_6:
	jmp	.LBB99_15
.LBB99_7:
	fld	qword ptr [esp + 8]
	fld	dword ptr [.LCPI99_1]
	fucompp
	fnstsw	ax
                                        # kill: def $ah killed $ah killed $ax
	sahf
	jbe	.LBB99_14
	jmp	.LBB99_8
.LBB99_8:
	mov	eax, dword ptr [.L__profc_frexp+40]
	add	eax, 1
	adc	dword ptr [.L__profc_frexp+44], 0
	mov	dword ptr [.L__profc_frexp+40], eax
	fld	qword ptr [esp + 8]
	fldz
	fxch	st(1)
	fucompp
	fnstsw	ax
                                        # kill: def $ah killed $ah killed $ax
	sahf
	jne	.LBB99_9
	jp	.LBB99_9
	jmp	.LBB99_14
.LBB99_9:
	mov	eax, dword ptr [.L__profc_frexp+48]
	add	eax, 1
	adc	dword ptr [.L__profc_frexp+52], 0
	mov	dword ptr [.L__profc_frexp+48], eax
# %bb.10:
	mov	eax, dword ptr [.L__profc_frexp+32]
	add	eax, 1
	adc	dword ptr [.L__profc_frexp+36], 0
	mov	dword ptr [.L__profc_frexp+32], eax
.LBB99_11:                              # =>This Inner Loop Header: Depth=1
	fld	qword ptr [esp + 8]
	fld	dword ptr [.LCPI99_1]
	fucompp
	fnstsw	ax
                                        # kill: def $ah killed $ah killed $ax
	sahf
	jbe	.LBB99_13
	jmp	.LBB99_12
.LBB99_12:                              #   in Loop: Header=BB99_11 Depth=1
	mov	eax, dword ptr [.L__profc_frexp+56]
	add	eax, 1
	adc	dword ptr [.L__profc_frexp+60], 0
	mov	dword ptr [.L__profc_frexp+56], eax
	mov	eax, dword ptr [esp]
	dec	eax
	mov	dword ptr [esp], eax
	fld	qword ptr [esp + 8]
	fadd	st(0), st
	fstp	qword ptr [esp + 8]
	jmp	.LBB99_11
.LBB99_13:
	jmp	.LBB99_14
.LBB99_14:
	jmp	.LBB99_15
.LBB99_15:
	mov	ecx, dword ptr [esp]
	mov	eax, dword ptr [ebp + 16]
	mov	dword ptr [eax], ecx
	cmp	dword ptr [esp + 4], 0
	je	.LBB99_17
# %bb.16:
	mov	eax, dword ptr [.L__profc_frexp+64]
	add	eax, 1
	adc	dword ptr [.L__profc_frexp+68], 0
	mov	dword ptr [.L__profc_frexp+64], eax
	fld	qword ptr [esp + 8]
	fchs
	fstp	qword ptr [esp + 8]
.LBB99_17:
	fld	qword ptr [esp + 8]
	mov	esp, ebp
	pop	ebp
	.cfi_def_cfa esp, 4
	fldz
	fldz
	fldz
	fldz
	fldz
	fldz
	fldz
	fstp	st(0)
	fstp	st(0)
	fstp	st(0)
	fstp	st(0)
	fstp	st(0)
	fstp	st(0)
	fstp	st(0)
	xor	eax, eax
	xor	ecx, ecx
	xor	edx, edx
	jmp	__x86_return_thunk              # TAILCALL
.Lfunc_end99:
	.size	frexp, .Lfunc_end99-frexp
	.cfi_endproc
                                        # -- End function
	.globl	__muldi3                        # -- Begin function __muldi3
	.p2align	4, 0x90
	.type	__muldi3,@function
__muldi3:                               # @__muldi3
	.cfi_startproc
# %bb.0:
	push	ebp
	.cfi_def_cfa_offset 8
	.cfi_offset ebp, -8
	mov	ebp, esp
	.cfi_def_cfa_register ebp
	push	esi
	and	esp, -8
	sub	esp, 40
	.cfi_offset esi, -12
	mov	eax, dword ptr [ebp + 16]
	mov	ecx, dword ptr [ebp + 20]
	mov	esi, dword ptr [ebp + 8]
	mov	edx, dword ptr [ebp + 12]
	mov	dword ptr [esp + 24], esi
	mov	dword ptr [esp + 28], edx
	mov	dword ptr [esp + 20], ecx
	mov	dword ptr [esp + 16], eax
	mov	eax, dword ptr [.L__profc___muldi3]
	add	eax, 1
	adc	dword ptr [.L__profc___muldi3+4], 0
	mov	dword ptr [.L__profc___muldi3], eax
	mov	dword ptr [esp + 12], 0
	mov	dword ptr [esp + 8], 0
	mov	eax, dword ptr [esp + 24]
	mov	ecx, dword ptr [esp + 28]
	mov	dword ptr [esp + 4], ecx
	mov	dword ptr [esp], eax
.LBB100_1:                              # =>This Inner Loop Header: Depth=1
	mov	eax, dword ptr [esp]
	mov	ecx, dword ptr [esp + 4]
	or	eax, ecx
	je	.LBB100_5
	jmp	.LBB100_2
.LBB100_2:                              #   in Loop: Header=BB100_1 Depth=1
	mov	eax, dword ptr [.L__profc___muldi3+8]
	add	eax, 1
	adc	dword ptr [.L__profc___muldi3+12], 0
	mov	dword ptr [.L__profc___muldi3+8], eax
	mov	al, byte ptr [esp]
	test	al, 1
	je	.LBB100_4
	jmp	.LBB100_3
.LBB100_3:                              #   in Loop: Header=BB100_1 Depth=1
	mov	eax, dword ptr [.L__profc___muldi3+16]
	add	eax, 1
	adc	dword ptr [.L__profc___muldi3+20], 0
	mov	dword ptr [.L__profc___muldi3+16], eax
	mov	esi, dword ptr [esp + 16]
	mov	edx, dword ptr [esp + 20]
	mov	ecx, dword ptr [esp + 8]
	mov	eax, dword ptr [esp + 12]
	add	ecx, esi
	adc	eax, edx
	mov	dword ptr [esp + 8], ecx
	mov	dword ptr [esp + 12], eax
.LBB100_4:                              #   in Loop: Header=BB100_1 Depth=1
	mov	edx, dword ptr [esp + 16]
	mov	ecx, dword ptr [esp + 20]
	mov	eax, edx
	add	eax, eax
	shld	ecx, edx, 1
	mov	dword ptr [esp + 20], ecx
	mov	dword ptr [esp + 16], eax
	mov	edx, dword ptr [esp]
	mov	ecx, dword ptr [esp + 4]
	mov	eax, ecx
	shld	eax, edx, 31
	shr	ecx
	mov	dword ptr [esp + 4], ecx
	mov	dword ptr [esp], eax
	jmp	.LBB100_1
.LBB100_5:
	mov	eax, dword ptr [esp + 8]
	mov	edx, dword ptr [esp + 12]
	lea	esp, [ebp - 4]
	pop	esi
	pop	ebp
	.cfi_def_cfa esp, 4
	fldz
	fldz
	fldz
	fldz
	fldz
	fldz
	fldz
	fstp	st(0)
	fstp	st(0)
	fstp	st(0)
	fstp	st(0)
	fstp	st(0)
	fstp	st(0)
	fstp	st(0)
	xor	ecx, ecx
	jmp	__x86_return_thunk              # TAILCALL
.Lfunc_end100:
	.size	__muldi3, .Lfunc_end100-__muldi3
	.cfi_endproc
                                        # -- End function
	.globl	udivmodsi4                      # -- Begin function udivmodsi4
	.p2align	4, 0x90
	.type	udivmodsi4,@function
udivmodsi4:                             # @udivmodsi4
	.cfi_startproc
# %bb.0:
	push	ebp
	.cfi_def_cfa_offset 8
	.cfi_offset ebp, -8
	mov	ebp, esp
	.cfi_def_cfa_register ebp
	sub	esp, 16
	mov	eax, dword ptr [ebp + 16]
	mov	eax, dword ptr [ebp + 12]
	mov	eax, dword ptr [ebp + 8]
	mov	eax, dword ptr [.L__profc_udivmodsi4]
	add	eax, 1
	adc	dword ptr [.L__profc_udivmodsi4+4], 0
	mov	dword ptr [.L__profc_udivmodsi4], eax
	mov	dword ptr [ebp - 8], 1
	mov	dword ptr [ebp - 12], 0
.LBB101_1:                              # =>This Inner Loop Header: Depth=1
	mov	ecx, dword ptr [ebp + 12]
	xor	eax, eax
                                        # kill: def $al killed $al killed $eax
	cmp	ecx, dword ptr [ebp + 8]
	mov	byte ptr [ebp - 13], al         # 1-byte Spill
	jae	.LBB101_6
# %bb.2:                                #   in Loop: Header=BB101_1 Depth=1
	mov	eax, dword ptr [.L__profc_udivmodsi4+32]
	add	eax, 1
	adc	dword ptr [.L__profc_udivmodsi4+36], 0
	mov	dword ptr [.L__profc_udivmodsi4+32], eax
	xor	eax, eax
                                        # kill: def $al killed $al killed $eax
	cmp	dword ptr [ebp - 8], 0
	mov	byte ptr [ebp - 13], al         # 1-byte Spill
	je	.LBB101_6
# %bb.3:                                #   in Loop: Header=BB101_1 Depth=1
	mov	eax, dword ptr [.L__profc_udivmodsi4+40]
	add	eax, 1
	adc	dword ptr [.L__profc_udivmodsi4+44], 0
	mov	dword ptr [.L__profc_udivmodsi4+40], eax
# %bb.4:                                #   in Loop: Header=BB101_1 Depth=1
	mov	eax, dword ptr [.L__profc_udivmodsi4+16]
	add	eax, 1
	adc	dword ptr [.L__profc_udivmodsi4+20], 0
	mov	dword ptr [.L__profc_udivmodsi4+16], eax
	mov	eax, dword ptr [ebp + 12]
	and	eax, -2147483648
	cmp	eax, 0
	setne	al
	xor	al, -1
	mov	byte ptr [ebp - 14], al         # 1-byte Spill
	test	al, 1
	mov	byte ptr [ebp - 13], al         # 1-byte Spill
	jne	.LBB101_5
	jmp	.LBB101_6
.LBB101_5:                              #   in Loop: Header=BB101_1 Depth=1
	mov	al, byte ptr [ebp - 14]         # 1-byte Reload
	mov	ecx, dword ptr [.L__profc_udivmodsi4+24]
	add	ecx, 1
	adc	dword ptr [.L__profc_udivmodsi4+28], 0
	mov	dword ptr [.L__profc_udivmodsi4+24], ecx
	mov	byte ptr [ebp - 13], al         # 1-byte Spill
.LBB101_6:                              #   in Loop: Header=BB101_1 Depth=1
	mov	al, byte ptr [ebp - 13]         # 1-byte Reload
	test	al, 1
	jne	.LBB101_7
	jmp	.LBB101_8
.LBB101_7:                              #   in Loop: Header=BB101_1 Depth=1
	mov	eax, dword ptr [.L__profc_udivmodsi4+8]
	add	eax, 1
	adc	dword ptr [.L__profc_udivmodsi4+12], 0
	mov	dword ptr [.L__profc_udivmodsi4+8], eax
	mov	eax, dword ptr [ebp + 12]
	shl	eax
	mov	dword ptr [ebp + 12], eax
	mov	eax, dword ptr [ebp - 8]
	shl	eax
	mov	dword ptr [ebp - 8], eax
	jmp	.LBB101_1
.LBB101_8:
	jmp	.LBB101_9
.LBB101_9:                              # =>This Inner Loop Header: Depth=1
	cmp	dword ptr [ebp - 8], 0
	je	.LBB101_13
# %bb.10:                               #   in Loop: Header=BB101_9 Depth=1
	mov	eax, dword ptr [.L__profc_udivmodsi4+48]
	add	eax, 1
	adc	dword ptr [.L__profc_udivmodsi4+52], 0
	mov	dword ptr [.L__profc_udivmodsi4+48], eax
	mov	eax, dword ptr [ebp + 8]
	cmp	eax, dword ptr [ebp + 12]
	jb	.LBB101_12
# %bb.11:                               #   in Loop: Header=BB101_9 Depth=1
	mov	eax, dword ptr [.L__profc_udivmodsi4+56]
	add	eax, 1
	adc	dword ptr [.L__profc_udivmodsi4+60], 0
	mov	dword ptr [.L__profc_udivmodsi4+56], eax
	mov	ecx, dword ptr [ebp + 12]
	mov	eax, dword ptr [ebp + 8]
	sub	eax, ecx
	mov	dword ptr [ebp + 8], eax
	mov	eax, dword ptr [ebp - 8]
	or	eax, dword ptr [ebp - 12]
	mov	dword ptr [ebp - 12], eax
.LBB101_12:                             #   in Loop: Header=BB101_9 Depth=1
	mov	eax, dword ptr [ebp - 8]
	shr	eax
	mov	dword ptr [ebp - 8], eax
	mov	eax, dword ptr [ebp + 12]
	shr	eax
	mov	dword ptr [ebp + 12], eax
	jmp	.LBB101_9
.LBB101_13:
	cmp	dword ptr [ebp + 16], 0
	je	.LBB101_15
# %bb.14:
	mov	eax, dword ptr [.L__profc_udivmodsi4+64]
	add	eax, 1
	adc	dword ptr [.L__profc_udivmodsi4+68], 0
	mov	dword ptr [.L__profc_udivmodsi4+64], eax
	mov	eax, dword ptr [ebp + 8]
	mov	dword ptr [ebp - 4], eax
	jmp	.LBB101_16
.LBB101_15:
	mov	eax, dword ptr [ebp - 12]
	mov	dword ptr [ebp - 4], eax
.LBB101_16:
	mov	eax, dword ptr [ebp - 4]
	add	esp, 16
	pop	ebp
	.cfi_def_cfa esp, 4
	fldz
	fldz
	fldz
	fldz
	fldz
	fldz
	fldz
	fstp	st(0)
	fstp	st(0)
	fstp	st(0)
	fstp	st(0)
	fstp	st(0)
	fstp	st(0)
	fstp	st(0)
	xor	ecx, ecx
	xor	edx, edx
	jmp	__x86_return_thunk              # TAILCALL
.Lfunc_end101:
	.size	udivmodsi4, .Lfunc_end101-udivmodsi4
	.cfi_endproc
                                        # -- End function
	.globl	__clrsbqi2                      # -- Begin function __clrsbqi2
	.p2align	4, 0x90
	.type	__clrsbqi2,@function
__clrsbqi2:                             # @__clrsbqi2
	.cfi_startproc
# %bb.0:
	push	ebp
	.cfi_def_cfa_offset 8
	.cfi_offset ebp, -8
	mov	ebp, esp
	.cfi_def_cfa_register ebp
	sub	esp, 8
	mov	al, byte ptr [ebp + 8]
	mov	eax, dword ptr [.L__profc___clrsbqi2]
	add	eax, 1
	adc	dword ptr [.L__profc___clrsbqi2+4], 0
	mov	dword ptr [.L__profc___clrsbqi2], eax
	movsx	eax, byte ptr [ebp + 8]
	cmp	eax, 0
	jge	.LBB102_2
# %bb.1:
	mov	eax, dword ptr [.L__profc___clrsbqi2+8]
	add	eax, 1
	adc	dword ptr [.L__profc___clrsbqi2+12], 0
	mov	dword ptr [.L__profc___clrsbqi2+8], eax
	movsx	eax, byte ptr [ebp + 8]
	xor	eax, -1
                                        # kill: def $al killed $al killed $eax
	mov	byte ptr [ebp + 8], al
.LBB102_2:
	movsx	eax, byte ptr [ebp + 8]
	cmp	eax, 0
	jne	.LBB102_4
# %bb.3:
	mov	eax, dword ptr [.L__profc___clrsbqi2+16]
	add	eax, 1
	adc	dword ptr [.L__profc___clrsbqi2+20], 0
	mov	dword ptr [.L__profc___clrsbqi2+16], eax
	mov	dword ptr [ebp - 4], 7
	jmp	.LBB102_5
.LBB102_4:
	movsx	eax, byte ptr [ebp + 8]
	shl	eax, 8
	bsr	eax, eax
	xor	eax, 31
	mov	dword ptr [ebp - 8], eax
	mov	eax, dword ptr [ebp - 8]
	sub	eax, 1
	mov	dword ptr [ebp - 4], eax
.LBB102_5:
	mov	eax, dword ptr [ebp - 4]
	add	esp, 8
	pop	ebp
	.cfi_def_cfa esp, 4
	fldz
	fldz
	fldz
	fldz
	fldz
	fldz
	fldz
	fstp	st(0)
	fstp	st(0)
	fstp	st(0)
	fstp	st(0)
	fstp	st(0)
	fstp	st(0)
	fstp	st(0)
	xor	ecx, ecx
	xor	edx, edx
	jmp	__x86_return_thunk              # TAILCALL
.Lfunc_end102:
	.size	__clrsbqi2, .Lfunc_end102-__clrsbqi2
	.cfi_endproc
                                        # -- End function
	.globl	__clrsbdi2                      # -- Begin function __clrsbdi2
	.p2align	4, 0x90
	.type	__clrsbdi2,@function
__clrsbdi2:                             # @__clrsbdi2
	.cfi_startproc
# %bb.0:
	push	ebp
	.cfi_def_cfa_offset 8
	.cfi_offset ebp, -8
	mov	ebp, esp
	.cfi_def_cfa_register ebp
	and	esp, -8
	sub	esp, 32
	mov	ecx, dword ptr [ebp + 8]
	mov	eax, dword ptr [ebp + 12]
	mov	dword ptr [esp + 16], ecx
	mov	dword ptr [esp + 20], eax
	mov	eax, dword ptr [.L__profc___clrsbdi2]
	add	eax, 1
	adc	dword ptr [.L__profc___clrsbdi2+4], 0
	mov	dword ptr [.L__profc___clrsbdi2], eax
	mov	eax, dword ptr [esp + 20]
	test	eax, eax
	jns	.LBB103_2
	jmp	.LBB103_1
.LBB103_1:
	mov	eax, dword ptr [.L__profc___clrsbdi2+8]
	add	eax, 1
	adc	dword ptr [.L__profc___clrsbdi2+12], 0
	mov	dword ptr [.L__profc___clrsbdi2+8], eax
	mov	eax, dword ptr [esp + 16]
	mov	ecx, dword ptr [esp + 20]
	not	eax
	not	ecx
	mov	dword ptr [esp + 20], ecx
	mov	dword ptr [esp + 16], eax
.LBB103_2:
	mov	eax, dword ptr [esp + 16]
	mov	ecx, dword ptr [esp + 20]
	or	eax, ecx
	jne	.LBB103_4
	jmp	.LBB103_3
.LBB103_3:
	mov	eax, dword ptr [.L__profc___clrsbdi2+16]
	add	eax, 1
	adc	dword ptr [.L__profc___clrsbdi2+20], 0
	mov	dword ptr [.L__profc___clrsbdi2+16], eax
	mov	dword ptr [esp + 28], 63
	jmp	.LBB103_5
.LBB103_4:
	mov	ecx, dword ptr [esp + 20]
	bsr	eax, ecx
	xor	eax, 31
	bsr	edx, dword ptr [esp + 16]
	xor	edx, 31
	add	edx, 32
	mov	dword ptr [esp + 4], edx        # 4-byte Spill
	test	ecx, ecx
	mov	dword ptr [esp + 8], eax        # 4-byte Spill
	jne	.LBB103_7
# %bb.6:
	mov	eax, dword ptr [esp + 4]        # 4-byte Reload
	mov	dword ptr [esp + 8], eax        # 4-byte Spill
.LBB103_7:
	mov	eax, dword ptr [esp + 8]        # 4-byte Reload
	mov	dword ptr [esp + 12], eax
	mov	eax, dword ptr [esp + 12]
	sub	eax, 1
	mov	dword ptr [esp + 28], eax
.LBB103_5:
	mov	eax, dword ptr [esp + 28]
	mov	esp, ebp
	pop	ebp
	.cfi_def_cfa esp, 4
	fldz
	fldz
	fldz
	fldz
	fldz
	fldz
	fldz
	fstp	st(0)
	fstp	st(0)
	fstp	st(0)
	fstp	st(0)
	fstp	st(0)
	fstp	st(0)
	fstp	st(0)
	xor	ecx, ecx
	xor	edx, edx
	jmp	__x86_return_thunk              # TAILCALL
.Lfunc_end103:
	.size	__clrsbdi2, .Lfunc_end103-__clrsbdi2
	.cfi_endproc
                                        # -- End function
	.globl	__mulsi3                        # -- Begin function __mulsi3
	.p2align	4, 0x90
	.type	__mulsi3,@function
__mulsi3:                               # @__mulsi3
	.cfi_startproc
# %bb.0:
	push	ebp
	.cfi_def_cfa_offset 8
	.cfi_offset ebp, -8
	mov	ebp, esp
	.cfi_def_cfa_register ebp
	push	eax
	mov	eax, dword ptr [ebp + 12]
	mov	eax, dword ptr [ebp + 8]
	mov	eax, dword ptr [.L__profc___mulsi3]
	add	eax, 1
	adc	dword ptr [.L__profc___mulsi3+4], 0
	mov	dword ptr [.L__profc___mulsi3], eax
	mov	dword ptr [ebp - 4], 0
.LBB104_1:                              # =>This Inner Loop Header: Depth=1
	cmp	dword ptr [ebp + 8], 0
	je	.LBB104_5
# %bb.2:                                #   in Loop: Header=BB104_1 Depth=1
	mov	eax, dword ptr [.L__profc___mulsi3+8]
	add	eax, 1
	adc	dword ptr [.L__profc___mulsi3+12], 0
	mov	dword ptr [.L__profc___mulsi3+8], eax
	mov	eax, dword ptr [ebp + 8]
	and	eax, 1
	cmp	eax, 0
	je	.LBB104_4
# %bb.3:                                #   in Loop: Header=BB104_1 Depth=1
	mov	eax, dword ptr [.L__profc___mulsi3+16]
	add	eax, 1
	adc	dword ptr [.L__profc___mulsi3+20], 0
	mov	dword ptr [.L__profc___mulsi3+16], eax
	mov	eax, dword ptr [ebp + 12]
	add	eax, dword ptr [ebp - 4]
	mov	dword ptr [ebp - 4], eax
.LBB104_4:                              #   in Loop: Header=BB104_1 Depth=1
	mov	eax, dword ptr [ebp + 8]
	shr	eax
	mov	dword ptr [ebp + 8], eax
	mov	eax, dword ptr [ebp + 12]
	shl	eax
	mov	dword ptr [ebp + 12], eax
	jmp	.LBB104_1
.LBB104_5:
	mov	eax, dword ptr [ebp - 4]
	add	esp, 4
	pop	ebp
	.cfi_def_cfa esp, 4
	fldz
	fldz
	fldz
	fldz
	fldz
	fldz
	fldz
	fstp	st(0)
	fstp	st(0)
	fstp	st(0)
	fstp	st(0)
	fstp	st(0)
	fstp	st(0)
	fstp	st(0)
	xor	ecx, ecx
	xor	edx, edx
	jmp	__x86_return_thunk              # TAILCALL
.Lfunc_end104:
	.size	__mulsi3, .Lfunc_end104-__mulsi3
	.cfi_endproc
                                        # -- End function
	.globl	__cmovd                         # -- Begin function __cmovd
	.p2align	4, 0x90
	.type	__cmovd,@function
__cmovd:                                # @__cmovd
	.cfi_startproc
# %bb.0:
	push	ebp
	.cfi_def_cfa_offset 8
	.cfi_offset ebp, -8
	mov	ebp, esp
	.cfi_def_cfa_register ebp
	push	esi
	sub	esp, 20
	.cfi_offset esi, -12
	mov	eax, dword ptr [ebp + 16]
	mov	eax, dword ptr [ebp + 12]
	mov	eax, dword ptr [ebp + 8]
	mov	eax, dword ptr [.L__profc___cmovd]
	add	eax, 1
	adc	dword ptr [.L__profc___cmovd+4], 0
	mov	dword ptr [.L__profc___cmovd], eax
	mov	eax, dword ptr [ebp + 16]
	shr	eax, 3
	mov	dword ptr [ebp - 12], eax
	mov	eax, dword ptr [ebp + 16]
	and	eax, -8
	mov	dword ptr [ebp - 16], eax
	mov	eax, dword ptr [ebp + 8]
	mov	dword ptr [ebp - 20], eax
	mov	eax, dword ptr [ebp + 12]
	mov	dword ptr [ebp - 24], eax
	mov	eax, dword ptr [ebp - 20]
	cmp	eax, dword ptr [ebp - 24]
	jb	.LBB105_3
# %bb.1:
	mov	eax, dword ptr [.L__profc___cmovd+16]
	add	eax, 1
	adc	dword ptr [.L__profc___cmovd+20], 0
	mov	dword ptr [.L__profc___cmovd+16], eax
	mov	eax, dword ptr [ebp - 20]
	mov	ecx, dword ptr [ebp - 24]
	add	ecx, dword ptr [ebp + 16]
	cmp	eax, ecx
	ja	.LBB105_3
# %bb.2:
	mov	eax, dword ptr [.L__profc___cmovd+24]
	add	eax, 1
	adc	dword ptr [.L__profc___cmovd+28], 0
	mov	dword ptr [.L__profc___cmovd+24], eax
	jmp	.LBB105_11
.LBB105_3:
	mov	eax, dword ptr [.L__profc___cmovd+8]
	add	eax, 1
	adc	dword ptr [.L__profc___cmovd+12], 0
	mov	dword ptr [.L__profc___cmovd+8], eax
	mov	dword ptr [ebp - 8], 0
.LBB105_4:                              # =>This Inner Loop Header: Depth=1
	mov	eax, dword ptr [ebp - 8]
	cmp	eax, dword ptr [ebp - 12]
	jae	.LBB105_7
# %bb.5:                                #   in Loop: Header=BB105_4 Depth=1
	mov	eax, dword ptr [.L__profc___cmovd+32]
	add	eax, 1
	adc	dword ptr [.L__profc___cmovd+36], 0
	mov	dword ptr [.L__profc___cmovd+32], eax
	mov	eax, dword ptr [ebp + 12]
	mov	ecx, dword ptr [ebp - 8]
	mov	edx, dword ptr [eax + 8*ecx]
	mov	esi, dword ptr [eax + 8*ecx + 4]
	mov	eax, dword ptr [ebp + 8]
	mov	dword ptr [eax + 8*ecx + 4], esi
	mov	dword ptr [eax + 8*ecx], edx
# %bb.6:                                #   in Loop: Header=BB105_4 Depth=1
	mov	eax, dword ptr [ebp - 8]
	add	eax, 1
	mov	dword ptr [ebp - 8], eax
	jmp	.LBB105_4
.LBB105_7:
	jmp	.LBB105_8
.LBB105_8:                              # =>This Inner Loop Header: Depth=1
	mov	eax, dword ptr [ebp + 16]
	cmp	eax, dword ptr [ebp - 16]
	jbe	.LBB105_10
# %bb.9:                                #   in Loop: Header=BB105_8 Depth=1
	mov	eax, dword ptr [.L__profc___cmovd+40]
	add	eax, 1
	adc	dword ptr [.L__profc___cmovd+44], 0
	mov	dword ptr [.L__profc___cmovd+40], eax
	mov	eax, dword ptr [ebp - 24]
	mov	ecx, dword ptr [ebp - 16]
	mov	dl, byte ptr [eax + ecx]
	mov	eax, dword ptr [ebp - 20]
	mov	ecx, dword ptr [ebp - 16]
	mov	byte ptr [eax + ecx], dl
	mov	eax, dword ptr [ebp - 16]
	add	eax, 1
	mov	dword ptr [ebp - 16], eax
	jmp	.LBB105_8
.LBB105_10:
	jmp	.LBB105_15
.LBB105_11:
	jmp	.LBB105_12
.LBB105_12:                             # =>This Inner Loop Header: Depth=1
	mov	eax, dword ptr [ebp + 16]
	mov	ecx, eax
	add	ecx, -1
	mov	dword ptr [ebp + 16], ecx
	cmp	eax, 0
	jbe	.LBB105_14
# %bb.13:                               #   in Loop: Header=BB105_12 Depth=1
	mov	eax, dword ptr [.L__profc___cmovd+48]
	add	eax, 1
	adc	dword ptr [.L__profc___cmovd+52], 0
	mov	dword ptr [.L__profc___cmovd+48], eax
	mov	eax, dword ptr [ebp - 24]
	mov	ecx, dword ptr [ebp + 16]
	mov	dl, byte ptr [eax + ecx]
	mov	eax, dword ptr [ebp - 20]
	mov	ecx, dword ptr [ebp + 16]
	mov	byte ptr [eax + ecx], dl
	jmp	.LBB105_12
.LBB105_14:
	jmp	.LBB105_15
.LBB105_15:
	add	esp, 20
	pop	esi
	pop	ebp
	.cfi_def_cfa esp, 4
	fldz
	fldz
	fldz
	fldz
	fldz
	fldz
	fldz
	fstp	st(0)
	fstp	st(0)
	fstp	st(0)
	fstp	st(0)
	fstp	st(0)
	fstp	st(0)
	fstp	st(0)
	xor	eax, eax
	xor	ecx, ecx
	xor	edx, edx
	jmp	__x86_return_thunk              # TAILCALL
.Lfunc_end105:
	.size	__cmovd, .Lfunc_end105-__cmovd
	.cfi_endproc
                                        # -- End function
	.globl	__cmovh                         # -- Begin function __cmovh
	.p2align	4, 0x90
	.type	__cmovh,@function
__cmovh:                                # @__cmovh
	.cfi_startproc
# %bb.0:
	push	ebp
	.cfi_def_cfa_offset 8
	.cfi_offset ebp, -8
	mov	ebp, esp
	.cfi_def_cfa_register ebp
	sub	esp, 16
	mov	eax, dword ptr [ebp + 16]
	mov	eax, dword ptr [ebp + 12]
	mov	eax, dword ptr [ebp + 8]
	mov	eax, dword ptr [.L__profc___cmovh]
	add	eax, 1
	adc	dword ptr [.L__profc___cmovh+4], 0
	mov	dword ptr [.L__profc___cmovh], eax
	mov	eax, dword ptr [ebp + 16]
	shr	eax
	mov	dword ptr [ebp - 8], eax
	mov	eax, dword ptr [ebp + 8]
	mov	dword ptr [ebp - 12], eax
	mov	eax, dword ptr [ebp + 12]
	mov	dword ptr [ebp - 16], eax
	mov	eax, dword ptr [ebp - 12]
	cmp	eax, dword ptr [ebp - 16]
	jb	.LBB106_3
# %bb.1:
	mov	eax, dword ptr [.L__profc___cmovh+16]
	add	eax, 1
	adc	dword ptr [.L__profc___cmovh+20], 0
	mov	dword ptr [.L__profc___cmovh+16], eax
	mov	eax, dword ptr [ebp - 12]
	mov	ecx, dword ptr [ebp - 16]
	add	ecx, dword ptr [ebp + 16]
	cmp	eax, ecx
	ja	.LBB106_3
# %bb.2:
	mov	eax, dword ptr [.L__profc___cmovh+24]
	add	eax, 1
	adc	dword ptr [.L__profc___cmovh+28], 0
	mov	dword ptr [.L__profc___cmovh+24], eax
	jmp	.LBB106_10
.LBB106_3:
	mov	eax, dword ptr [.L__profc___cmovh+8]
	add	eax, 1
	adc	dword ptr [.L__profc___cmovh+12], 0
	mov	dword ptr [.L__profc___cmovh+8], eax
	mov	dword ptr [ebp - 4], 0
.LBB106_4:                              # =>This Inner Loop Header: Depth=1
	mov	eax, dword ptr [ebp - 4]
	cmp	eax, dword ptr [ebp - 8]
	jae	.LBB106_7
# %bb.5:                                #   in Loop: Header=BB106_4 Depth=1
	mov	eax, dword ptr [.L__profc___cmovh+32]
	add	eax, 1
	adc	dword ptr [.L__profc___cmovh+36], 0
	mov	dword ptr [.L__profc___cmovh+32], eax
	mov	eax, dword ptr [ebp + 12]
	mov	ecx, dword ptr [ebp - 4]
	mov	dx, word ptr [eax + 2*ecx]
	mov	eax, dword ptr [ebp + 8]
	mov	ecx, dword ptr [ebp - 4]
	mov	word ptr [eax + 2*ecx], dx
# %bb.6:                                #   in Loop: Header=BB106_4 Depth=1
	mov	eax, dword ptr [ebp - 4]
	add	eax, 1
	mov	dword ptr [ebp - 4], eax
	jmp	.LBB106_4
.LBB106_7:
	mov	eax, dword ptr [ebp + 16]
	and	eax, 1
	cmp	eax, 0
	je	.LBB106_9
# %bb.8:
	mov	eax, dword ptr [.L__profc___cmovh+40]
	add	eax, 1
	adc	dword ptr [.L__profc___cmovh+44], 0
	mov	dword ptr [.L__profc___cmovh+40], eax
	mov	eax, dword ptr [ebp - 16]
	mov	ecx, dword ptr [ebp + 16]
	sub	ecx, 1
	mov	dl, byte ptr [eax + ecx]
	mov	eax, dword ptr [ebp - 12]
	mov	ecx, dword ptr [ebp + 16]
	sub	ecx, 1
	mov	byte ptr [eax + ecx], dl
.LBB106_9:
	jmp	.LBB106_14
.LBB106_10:
	jmp	.LBB106_11
.LBB106_11:                             # =>This Inner Loop Header: Depth=1
	mov	eax, dword ptr [ebp + 16]
	mov	ecx, eax
	add	ecx, -1
	mov	dword ptr [ebp + 16], ecx
	cmp	eax, 0
	jbe	.LBB106_13
# %bb.12:                               #   in Loop: Header=BB106_11 Depth=1
	mov	eax, dword ptr [.L__profc___cmovh+48]
	add	eax, 1
	adc	dword ptr [.L__profc___cmovh+52], 0
	mov	dword ptr [.L__profc___cmovh+48], eax
	mov	eax, dword ptr [ebp - 16]
	mov	ecx, dword ptr [ebp + 16]
	mov	dl, byte ptr [eax + ecx]
	mov	eax, dword ptr [ebp - 12]
	mov	ecx, dword ptr [ebp + 16]
	mov	byte ptr [eax + ecx], dl
	jmp	.LBB106_11
.LBB106_13:
	jmp	.LBB106_14
.LBB106_14:
	add	esp, 16
	pop	ebp
	.cfi_def_cfa esp, 4
	fldz
	fldz
	fldz
	fldz
	fldz
	fldz
	fldz
	fstp	st(0)
	fstp	st(0)
	fstp	st(0)
	fstp	st(0)
	fstp	st(0)
	fstp	st(0)
	fstp	st(0)
	xor	eax, eax
	xor	ecx, ecx
	xor	edx, edx
	jmp	__x86_return_thunk              # TAILCALL
.Lfunc_end106:
	.size	__cmovh, .Lfunc_end106-__cmovh
	.cfi_endproc
                                        # -- End function
	.globl	__cmovw                         # -- Begin function __cmovw
	.p2align	4, 0x90
	.type	__cmovw,@function
__cmovw:                                # @__cmovw
	.cfi_startproc
# %bb.0:
	push	ebp
	.cfi_def_cfa_offset 8
	.cfi_offset ebp, -8
	mov	ebp, esp
	.cfi_def_cfa_register ebp
	sub	esp, 20
	mov	eax, dword ptr [ebp + 16]
	mov	eax, dword ptr [ebp + 12]
	mov	eax, dword ptr [ebp + 8]
	mov	eax, dword ptr [.L__profc___cmovw]
	add	eax, 1
	adc	dword ptr [.L__profc___cmovw+4], 0
	mov	dword ptr [.L__profc___cmovw], eax
	mov	eax, dword ptr [ebp + 16]
	shr	eax, 2
	mov	dword ptr [ebp - 8], eax
	mov	eax, dword ptr [ebp + 16]
	and	eax, -4
	mov	dword ptr [ebp - 12], eax
	mov	eax, dword ptr [ebp + 8]
	mov	dword ptr [ebp - 16], eax
	mov	eax, dword ptr [ebp + 12]
	mov	dword ptr [ebp - 20], eax
	mov	eax, dword ptr [ebp - 16]
	cmp	eax, dword ptr [ebp - 20]
	jb	.LBB107_3
# %bb.1:
	mov	eax, dword ptr [.L__profc___cmovw+16]
	add	eax, 1
	adc	dword ptr [.L__profc___cmovw+20], 0
	mov	dword ptr [.L__profc___cmovw+16], eax
	mov	eax, dword ptr [ebp - 16]
	mov	ecx, dword ptr [ebp - 20]
	add	ecx, dword ptr [ebp + 16]
	cmp	eax, ecx
	ja	.LBB107_3
# %bb.2:
	mov	eax, dword ptr [.L__profc___cmovw+24]
	add	eax, 1
	adc	dword ptr [.L__profc___cmovw+28], 0
	mov	dword ptr [.L__profc___cmovw+24], eax
	jmp	.LBB107_11
.LBB107_3:
	mov	eax, dword ptr [.L__profc___cmovw+8]
	add	eax, 1
	adc	dword ptr [.L__profc___cmovw+12], 0
	mov	dword ptr [.L__profc___cmovw+8], eax
	mov	dword ptr [ebp - 4], 0
.LBB107_4:                              # =>This Inner Loop Header: Depth=1
	mov	eax, dword ptr [ebp - 4]
	cmp	eax, dword ptr [ebp - 8]
	jae	.LBB107_7
# %bb.5:                                #   in Loop: Header=BB107_4 Depth=1
	mov	eax, dword ptr [.L__profc___cmovw+32]
	add	eax, 1
	adc	dword ptr [.L__profc___cmovw+36], 0
	mov	dword ptr [.L__profc___cmovw+32], eax
	mov	eax, dword ptr [ebp + 12]
	mov	ecx, dword ptr [ebp - 4]
	mov	edx, dword ptr [eax + 4*ecx]
	mov	eax, dword ptr [ebp + 8]
	mov	ecx, dword ptr [ebp - 4]
	mov	dword ptr [eax + 4*ecx], edx
# %bb.6:                                #   in Loop: Header=BB107_4 Depth=1
	mov	eax, dword ptr [ebp - 4]
	add	eax, 1
	mov	dword ptr [ebp - 4], eax
	jmp	.LBB107_4
.LBB107_7:
	jmp	.LBB107_8
.LBB107_8:                              # =>This Inner Loop Header: Depth=1
	mov	eax, dword ptr [ebp + 16]
	cmp	eax, dword ptr [ebp - 12]
	jbe	.LBB107_10
# %bb.9:                                #   in Loop: Header=BB107_8 Depth=1
	mov	eax, dword ptr [.L__profc___cmovw+40]
	add	eax, 1
	adc	dword ptr [.L__profc___cmovw+44], 0
	mov	dword ptr [.L__profc___cmovw+40], eax
	mov	eax, dword ptr [ebp - 20]
	mov	ecx, dword ptr [ebp - 12]
	mov	dl, byte ptr [eax + ecx]
	mov	eax, dword ptr [ebp - 16]
	mov	ecx, dword ptr [ebp - 12]
	mov	byte ptr [eax + ecx], dl
	mov	eax, dword ptr [ebp - 12]
	add	eax, 1
	mov	dword ptr [ebp - 12], eax
	jmp	.LBB107_8
.LBB107_10:
	jmp	.LBB107_15
.LBB107_11:
	jmp	.LBB107_12
.LBB107_12:                             # =>This Inner Loop Header: Depth=1
	mov	eax, dword ptr [ebp + 16]
	mov	ecx, eax
	add	ecx, -1
	mov	dword ptr [ebp + 16], ecx
	cmp	eax, 0
	jbe	.LBB107_14
# %bb.13:                               #   in Loop: Header=BB107_12 Depth=1
	mov	eax, dword ptr [.L__profc___cmovw+48]
	add	eax, 1
	adc	dword ptr [.L__profc___cmovw+52], 0
	mov	dword ptr [.L__profc___cmovw+48], eax
	mov	eax, dword ptr [ebp - 20]
	mov	ecx, dword ptr [ebp + 16]
	mov	dl, byte ptr [eax + ecx]
	mov	eax, dword ptr [ebp - 16]
	mov	ecx, dword ptr [ebp + 16]
	mov	byte ptr [eax + ecx], dl
	jmp	.LBB107_12
.LBB107_14:
	jmp	.LBB107_15
.LBB107_15:
	add	esp, 20
	pop	ebp
	.cfi_def_cfa esp, 4
	fldz
	fldz
	fldz
	fldz
	fldz
	fldz
	fldz
	fstp	st(0)
	fstp	st(0)
	fstp	st(0)
	fstp	st(0)
	fstp	st(0)
	fstp	st(0)
	fstp	st(0)
	xor	eax, eax
	xor	ecx, ecx
	xor	edx, edx
	jmp	__x86_return_thunk              # TAILCALL
.Lfunc_end107:
	.size	__cmovw, .Lfunc_end107-__cmovw
	.cfi_endproc
                                        # -- End function
	.globl	__modi                          # -- Begin function __modi
	.p2align	4, 0x90
	.type	__modi,@function
__modi:                                 # @__modi
	.cfi_startproc
# %bb.0:
	push	ebp
	.cfi_def_cfa_offset 8
	.cfi_offset ebp, -8
	mov	ebp, esp
	.cfi_def_cfa_register ebp
	mov	eax, dword ptr [ebp + 12]
	mov	eax, dword ptr [ebp + 8]
	mov	eax, dword ptr [.L__profc___modi]
	add	eax, 1
	adc	dword ptr [.L__profc___modi+4], 0
	mov	dword ptr [.L__profc___modi], eax
	mov	eax, dword ptr [ebp + 8]
	cdq
	idiv	dword ptr [ebp + 12]
	mov	eax, edx
	pop	ebp
	.cfi_def_cfa esp, 4
	fldz
	fldz
	fldz
	fldz
	fldz
	fldz
	fldz
	fstp	st(0)
	fstp	st(0)
	fstp	st(0)
	fstp	st(0)
	fstp	st(0)
	fstp	st(0)
	fstp	st(0)
	xor	ecx, ecx
	xor	edx, edx
	jmp	__x86_return_thunk              # TAILCALL
.Lfunc_end108:
	.size	__modi, .Lfunc_end108-__modi
	.cfi_endproc
                                        # -- End function
	.globl	__uitod                         # -- Begin function __uitod
	.p2align	4, 0x90
	.type	__uitod,@function
__uitod:                                # @__uitod
	.cfi_startproc
# %bb.0:
	push	ebp
	.cfi_def_cfa_offset 8
	.cfi_offset ebp, -8
	mov	ebp, esp
	.cfi_def_cfa_register ebp
	and	esp, -8
	sub	esp, 8
	mov	eax, dword ptr [ebp + 8]
	mov	eax, dword ptr [.L__profc___uitod]
	add	eax, 1
	adc	dword ptr [.L__profc___uitod+4], 0
	mov	dword ptr [.L__profc___uitod], eax
	mov	eax, dword ptr [ebp + 8]
	mov	dword ptr [esp], eax
	mov	dword ptr [esp + 4], 0
	fild	qword ptr [esp]
	mov	esp, ebp
	pop	ebp
	.cfi_def_cfa esp, 4
	fldz
	fldz
	fldz
	fldz
	fldz
	fldz
	fldz
	fstp	st(0)
	fstp	st(0)
	fstp	st(0)
	fstp	st(0)
	fstp	st(0)
	fstp	st(0)
	fstp	st(0)
	xor	eax, eax
	xor	ecx, ecx
	xor	edx, edx
	jmp	__x86_return_thunk              # TAILCALL
.Lfunc_end109:
	.size	__uitod, .Lfunc_end109-__uitod
	.cfi_endproc
                                        # -- End function
	.globl	__uitof                         # -- Begin function __uitof
	.p2align	4, 0x90
	.type	__uitof,@function
__uitof:                                # @__uitof
	.cfi_startproc
# %bb.0:
	push	ebp
	.cfi_def_cfa_offset 8
	.cfi_offset ebp, -8
	mov	ebp, esp
	.cfi_def_cfa_register ebp
	and	esp, -8
	sub	esp, 8
	mov	eax, dword ptr [ebp + 8]
	mov	eax, dword ptr [.L__profc___uitof]
	add	eax, 1
	adc	dword ptr [.L__profc___uitof+4], 0
	mov	dword ptr [.L__profc___uitof], eax
	mov	eax, dword ptr [ebp + 8]
	mov	dword ptr [esp], eax
	mov	dword ptr [esp + 4], 0
	fild	qword ptr [esp]
	mov	esp, ebp
	pop	ebp
	.cfi_def_cfa esp, 4
	fldz
	fldz
	fldz
	fldz
	fldz
	fldz
	fldz
	fstp	st(0)
	fstp	st(0)
	fstp	st(0)
	fstp	st(0)
	fstp	st(0)
	fstp	st(0)
	fstp	st(0)
	xor	eax, eax
	xor	ecx, ecx
	xor	edx, edx
	jmp	__x86_return_thunk              # TAILCALL
.Lfunc_end110:
	.size	__uitof, .Lfunc_end110-__uitof
	.cfi_endproc
                                        # -- End function
	.section	.rodata.cst8,"aM",@progbits,8
	.p2align	3, 0x0                          # -- Begin function __ulltod
.LCPI111_0:
	.quad	6881500230622117888             # 0x5f80000000000000
	.text
	.globl	__ulltod
	.p2align	4, 0x90
	.type	__ulltod,@function
__ulltod:                               # @__ulltod
	.cfi_startproc
# %bb.0:
	push	ebp
	.cfi_def_cfa_offset 8
	.cfi_offset ebp, -8
	mov	ebp, esp
	.cfi_def_cfa_register ebp
	and	esp, -8
	sub	esp, 24
	mov	ecx, dword ptr [ebp + 8]
	mov	eax, dword ptr [ebp + 12]
	mov	dword ptr [esp + 16], ecx
	mov	dword ptr [esp + 20], eax
	mov	eax, dword ptr [.L__profc___ulltod]
	add	eax, 1
	adc	dword ptr [.L__profc___ulltod+4], 0
	mov	dword ptr [.L__profc___ulltod], eax
	mov	ecx, dword ptr [esp + 16]
	mov	eax, dword ptr [esp + 20]
	mov	dword ptr [esp + 12], eax
	mov	dword ptr [esp + 8], ecx
	shr	eax, 31
	fild	qword ptr [esp + 8]
	fld	dword ptr [4*eax + .LCPI111_0]
	faddp	st(1), st
	fstp	qword ptr [esp]
	fld	qword ptr [esp]
	mov	esp, ebp
	pop	ebp
	.cfi_def_cfa esp, 4
	fldz
	fldz
	fldz
	fldz
	fldz
	fldz
	fldz
	fstp	st(0)
	fstp	st(0)
	fstp	st(0)
	fstp	st(0)
	fstp	st(0)
	fstp	st(0)
	fstp	st(0)
	xor	eax, eax
	xor	ecx, ecx
	xor	edx, edx
	jmp	__x86_return_thunk              # TAILCALL
.Lfunc_end111:
	.size	__ulltod, .Lfunc_end111-__ulltod
	.cfi_endproc
                                        # -- End function
	.section	.rodata.cst8,"aM",@progbits,8
	.p2align	3, 0x0                          # -- Begin function __ulltof
.LCPI112_0:
	.quad	6881500230622117888             # 0x5f80000000000000
	.text
	.globl	__ulltof
	.p2align	4, 0x90
	.type	__ulltof,@function
__ulltof:                               # @__ulltof
	.cfi_startproc
# %bb.0:
	push	ebp
	.cfi_def_cfa_offset 8
	.cfi_offset ebp, -8
	mov	ebp, esp
	.cfi_def_cfa_register ebp
	and	esp, -8
	sub	esp, 24
	mov	ecx, dword ptr [ebp + 8]
	mov	eax, dword ptr [ebp + 12]
	mov	dword ptr [esp + 16], ecx
	mov	dword ptr [esp + 20], eax
	mov	eax, dword ptr [.L__profc___ulltof]
