	.text
	.file	"mini-libc.c"
	.globl	make_ti                         // -- Begin function make_ti
	.p2align	2
	.type	make_ti,@function
make_ti:                                // @make_ti
	.cfi_startproc
// %bb.0:
	sub	sp, sp, #48
	.cfi_def_cfa_offset 48
	stp	x29, x30, [sp, #32]             // 16-byte Folded Spill
	add	x29, sp, #32
	.cfi_def_cfa w29, 16
	.cfi_offset w30, -8
	.cfi_offset w29, -16
	stur	x0, [x29, #-8]
	str	x1, [sp, #16]
	ldur	x8, [x29, #-8]
	str	x8, [sp, #8]
	ldr	x8, [sp, #16]
	str	x8, [sp]
	ldr	x0, [sp]
	ldr	x1, [sp, #8]
	.cfi_def_cfa wsp, 48
	ldp	x29, x30, [sp, #32]             // 16-byte Folded Reload
	add	sp, sp, #48
	.cfi_def_cfa_offset 0
	.cfi_restore w30
	.cfi_restore w29
	mov	x2, #0                          // =0x0
	mov	x3, #0                          // =0x0
	mov	x4, #0                          // =0x0
	mov	x5, #0                          // =0x0
	mov	x6, #0                          // =0x0
	mov	x7, #0                          // =0x0
	mov	x8, #0                          // =0x0
	mov	x16, #0                         // =0x0
	mov	x17, #0                         // =0x0
	movi	v0.2d, #0000000000000000
	movi	v1.2d, #0000000000000000
	movi	v2.2d, #0000000000000000
	movi	v3.2d, #0000000000000000
	movi	v4.2d, #0000000000000000
	movi	v5.2d, #0000000000000000
	movi	v6.2d, #0000000000000000
	movi	v7.2d, #0000000000000000
	movi	v16.2d, #0000000000000000
	movi	v17.2d, #0000000000000000
	movi	v18.2d, #0000000000000000
	movi	v19.2d, #0000000000000000
	movi	v20.2d, #0000000000000000
	movi	v21.2d, #0000000000000000
	movi	v22.2d, #0000000000000000
	movi	v23.2d, #0000000000000000
	movi	v24.2d, #0000000000000000
	movi	v25.2d, #0000000000000000
	movi	v26.2d, #0000000000000000
	movi	v27.2d, #0000000000000000
	movi	v28.2d, #0000000000000000
	movi	v29.2d, #0000000000000000
	movi	v30.2d, #0000000000000000
	movi	v31.2d, #0000000000000000
	ret
	dsb	sy
	isb
.Lfunc_end0:
	.size	make_ti, .Lfunc_end0-make_ti
	.cfi_endproc
                                        // -- End function
	.globl	make_tu                         // -- Begin function make_tu
	.p2align	2
	.type	make_tu,@function
make_tu:                                // @make_tu
	.cfi_startproc
// %bb.0:
	sub	sp, sp, #48
	.cfi_def_cfa_offset 48
	stp	x29, x30, [sp, #32]             // 16-byte Folded Spill
	add	x29, sp, #32
	.cfi_def_cfa w29, 16
	.cfi_offset w30, -8
	.cfi_offset w29, -16
	stur	x0, [x29, #-8]
	str	x1, [sp, #16]
	ldur	x8, [x29, #-8]
	str	x8, [sp, #8]
	ldr	x8, [sp, #16]
	str	x8, [sp]
	ldr	x0, [sp]
	ldr	x1, [sp, #8]
	.cfi_def_cfa wsp, 48
	ldp	x29, x30, [sp, #32]             // 16-byte Folded Reload
	add	sp, sp, #48
	.cfi_def_cfa_offset 0
	.cfi_restore w30
	.cfi_restore w29
	mov	x2, #0                          // =0x0
	mov	x3, #0                          // =0x0
	mov	x4, #0                          // =0x0
	mov	x5, #0                          // =0x0
	mov	x6, #0                          // =0x0
	mov	x7, #0                          // =0x0
	mov	x8, #0                          // =0x0
	mov	x16, #0                         // =0x0
	mov	x17, #0                         // =0x0
	movi	v0.2d, #0000000000000000
	movi	v1.2d, #0000000000000000
	movi	v2.2d, #0000000000000000
	movi	v3.2d, #0000000000000000
	movi	v4.2d, #0000000000000000
	movi	v5.2d, #0000000000000000
	movi	v6.2d, #0000000000000000
	movi	v7.2d, #0000000000000000
	movi	v16.2d, #0000000000000000
	movi	v17.2d, #0000000000000000
	movi	v18.2d, #0000000000000000
	movi	v19.2d, #0000000000000000
	movi	v20.2d, #0000000000000000
	movi	v21.2d, #0000000000000000
	movi	v22.2d, #0000000000000000
	movi	v23.2d, #0000000000000000
	movi	v24.2d, #0000000000000000
	movi	v25.2d, #0000000000000000
	movi	v26.2d, #0000000000000000
	movi	v27.2d, #0000000000000000
	movi	v28.2d, #0000000000000000
	movi	v29.2d, #0000000000000000
	movi	v30.2d, #0000000000000000
	movi	v31.2d, #0000000000000000
	ret
	dsb	sy
	isb
.Lfunc_end1:
	.size	make_tu, .Lfunc_end1-make_tu
	.cfi_endproc
                                        // -- End function
	.globl	memmove                         // -- Begin function memmove
	.p2align	2
	.type	memmove,@function
memmove:                                // @memmove
	.cfi_startproc
// %bb.0:
	sub	sp, sp, #64
	.cfi_def_cfa_offset 64
	stp	x29, x30, [sp, #48]             // 16-byte Folded Spill
	add	x29, sp, #48
	.cfi_def_cfa w29, 16
	.cfi_offset w30, -8
	.cfi_offset w29, -16
	stur	x0, [x29, #-8]
	stur	x1, [x29, #-16]
	str	x2, [sp, #24]
	ldur	x8, [x29, #-8]
	str	x8, [sp, #16]
	ldur	x8, [x29, #-16]
	str	x8, [sp, #8]
	ldr	x8, [sp, #8]
	ldr	x16, [sp, #16]
	subs	x8, x8, x16
	b.hs	.LBB2_6
	b	.LBB2_1
.LBB2_1:
	ldr	x16, [sp, #24]
	ldr	x8, [sp, #8]
	add	x8, x8, x16
	str	x8, [sp, #8]
	ldr	x16, [sp, #24]
	ldr	x8, [sp, #16]
	add	x8, x8, x16
	str	x8, [sp, #16]
	b	.LBB2_2
.LBB2_2:                                // =>This Inner Loop Header: Depth=1
	ldr	x8, [sp, #24]
	cbz	x8, .LBB2_5
	b	.LBB2_3
.LBB2_3:                                //   in Loop: Header=BB2_2 Depth=1
	ldr	x8, [sp, #8]
	subs	x16, x8, #1
	str	x16, [sp, #8]
	ldurb	w8, [x8, #-1]
	ldr	x16, [sp, #16]
	subs	x17, x16, #1
	str	x17, [sp, #16]
	sturb	w8, [x16, #-1]
	b	.LBB2_4
.LBB2_4:                                //   in Loop: Header=BB2_2 Depth=1
	ldr	x8, [sp, #24]
	subs	x8, x8, #1
	str	x8, [sp, #24]
	b	.LBB2_2
.LBB2_5:
	b	.LBB2_13
.LBB2_6:
	ldr	x8, [sp, #8]
	ldr	x16, [sp, #16]
	subs	x8, x8, x16
	b.eq	.LBB2_12
	b	.LBB2_7
.LBB2_7:
	b	.LBB2_8
.LBB2_8:                                // =>This Inner Loop Header: Depth=1
	ldr	x8, [sp, #24]
	cbz	x8, .LBB2_11
	b	.LBB2_9
.LBB2_9:                                //   in Loop: Header=BB2_8 Depth=1
	ldr	x8, [sp, #8]
	add	x16, x8, #1
	str	x16, [sp, #8]
	ldrb	w8, [x8]
	ldr	x16, [sp, #16]
	add	x17, x16, #1
	str	x17, [sp, #16]
	strb	w8, [x16]
	b	.LBB2_10
.LBB2_10:                               //   in Loop: Header=BB2_8 Depth=1
	ldr	x8, [sp, #24]
	subs	x8, x8, #1
	str	x8, [sp, #24]
	b	.LBB2_8
.LBB2_11:
	b	.LBB2_12
.LBB2_12:
	b	.LBB2_13
.LBB2_13:
	ldur	x0, [x29, #-8]
	.cfi_def_cfa wsp, 64
	ldp	x29, x30, [sp, #48]             // 16-byte Folded Reload
	add	sp, sp, #64
	.cfi_def_cfa_offset 0
	.cfi_restore w30
	.cfi_restore w29
	mov	x1, #0                          // =0x0
	mov	x2, #0                          // =0x0
	mov	x3, #0                          // =0x0
	mov	x4, #0                          // =0x0
	mov	x5, #0                          // =0x0
	mov	x6, #0                          // =0x0
	mov	x7, #0                          // =0x0
	mov	x8, #0                          // =0x0
	mov	x16, #0                         // =0x0
	mov	x17, #0                         // =0x0
	movi	v0.2d, #0000000000000000
	movi	v1.2d, #0000000000000000
	movi	v2.2d, #0000000000000000
	movi	v3.2d, #0000000000000000
	movi	v4.2d, #0000000000000000
	movi	v5.2d, #0000000000000000
	movi	v6.2d, #0000000000000000
	movi	v7.2d, #0000000000000000
	movi	v16.2d, #0000000000000000
	movi	v17.2d, #0000000000000000
	movi	v18.2d, #0000000000000000
	movi	v19.2d, #0000000000000000
	movi	v20.2d, #0000000000000000
	movi	v21.2d, #0000000000000000
	movi	v22.2d, #0000000000000000
	movi	v23.2d, #0000000000000000
	movi	v24.2d, #0000000000000000
	movi	v25.2d, #0000000000000000
	movi	v26.2d, #0000000000000000
	movi	v27.2d, #0000000000000000
	movi	v28.2d, #0000000000000000
	movi	v29.2d, #0000000000000000
	movi	v30.2d, #0000000000000000
	movi	v31.2d, #0000000000000000
	ret
	dsb	sy
	isb
.Lfunc_end2:
	.size	memmove, .Lfunc_end2-memmove
	.cfi_endproc
                                        // -- End function
	.globl	memccpy                         // -- Begin function memccpy
	.p2align	2
	.type	memccpy,@function
memccpy:                                // @memccpy
	.cfi_startproc
// %bb.0:
	sub	sp, sp, #80
	.cfi_def_cfa_offset 80
	stp	x29, x30, [sp, #64]             // 16-byte Folded Spill
	add	x29, sp, #64
	.cfi_def_cfa w29, 16
	.cfi_offset w30, -8
	.cfi_offset w29, -16
	stur	x0, [x29, #-16]
	stur	x1, [x29, #-24]
	stur	w2, [x29, #-28]
	str	x3, [sp, #24]
	ldur	x8, [x29, #-16]
	str	x8, [sp, #16]
	ldur	x8, [x29, #-24]
	str	x8, [sp, #8]
	ldurb	w8, [x29, #-28]
	stur	w8, [x29, #-28]
	b	.LBB3_1
.LBB3_1:                                // =>This Inner Loop Header: Depth=1
	ldr	x8, [sp, #24]
	mov	w16, wzr
	str	w16, [sp, #4]                   // 4-byte Folded Spill
	cbz	x8, .LBB3_3
	b	.LBB3_2
.LBB3_2:                                //   in Loop: Header=BB3_1 Depth=1
	ldr	x8, [sp, #8]
	ldrb	w8, [x8]
	ldr	x16, [sp, #16]
	strb	w8, [x16]
	ldur	w16, [x29, #-28]
	subs	w8, w8, w16
	cset	w8, ne
	str	w8, [sp, #4]                    // 4-byte Folded Spill
	b	.LBB3_3
.LBB3_3:                                //   in Loop: Header=BB3_1 Depth=1
	ldr	w8, [sp, #4]                    // 4-byte Folded Reload
	tbz	w8, #0, .LBB3_6
	b	.LBB3_4
.LBB3_4:                                //   in Loop: Header=BB3_1 Depth=1
	b	.LBB3_5
.LBB3_5:                                //   in Loop: Header=BB3_1 Depth=1
	ldr	x8, [sp, #24]
	subs	x8, x8, #1
	str	x8, [sp, #24]
	ldr	x8, [sp, #8]
	add	x8, x8, #1
	str	x8, [sp, #8]
	ldr	x8, [sp, #16]
	add	x8, x8, #1
	str	x8, [sp, #16]
	b	.LBB3_1
.LBB3_6:
	ldr	x8, [sp, #24]
	cbz	x8, .LBB3_8
	b	.LBB3_7
.LBB3_7:
	ldr	x8, [sp, #16]
	add	x8, x8, #1
	stur	x8, [x29, #-8]
	b	.LBB3_9
.LBB3_8:
	mov	x8, xzr
	stur	x8, [x29, #-8]
	b	.LBB3_9
.LBB3_9:
	ldur	x0, [x29, #-8]
	.cfi_def_cfa wsp, 80
	ldp	x29, x30, [sp, #64]             // 16-byte Folded Reload
	add	sp, sp, #80
	.cfi_def_cfa_offset 0
	.cfi_restore w30
	.cfi_restore w29
	mov	x1, #0                          // =0x0
	mov	x2, #0                          // =0x0
	mov	x3, #0                          // =0x0
	mov	x4, #0                          // =0x0
	mov	x5, #0                          // =0x0
	mov	x6, #0                          // =0x0
	mov	x7, #0                          // =0x0
	mov	x8, #0                          // =0x0
	mov	x16, #0                         // =0x0
	mov	x17, #0                         // =0x0
	movi	v0.2d, #0000000000000000
	movi	v1.2d, #0000000000000000
	movi	v2.2d, #0000000000000000
	movi	v3.2d, #0000000000000000
	movi	v4.2d, #0000000000000000
	movi	v5.2d, #0000000000000000
	movi	v6.2d, #0000000000000000
	movi	v7.2d, #0000000000000000
	movi	v16.2d, #0000000000000000
	movi	v17.2d, #0000000000000000
	movi	v18.2d, #0000000000000000
	movi	v19.2d, #0000000000000000
	movi	v20.2d, #0000000000000000
	movi	v21.2d, #0000000000000000
	movi	v22.2d, #0000000000000000
	movi	v23.2d, #0000000000000000
	movi	v24.2d, #0000000000000000
	movi	v25.2d, #0000000000000000
	movi	v26.2d, #0000000000000000
	movi	v27.2d, #0000000000000000
	movi	v28.2d, #0000000000000000
	movi	v29.2d, #0000000000000000
	movi	v30.2d, #0000000000000000
	movi	v31.2d, #0000000000000000
	ret
	dsb	sy
	isb
.Lfunc_end3:
	.size	memccpy, .Lfunc_end3-memccpy
	.cfi_endproc
                                        // -- End function
	.globl	memchr                          // -- Begin function memchr
	.p2align	2
	.type	memchr,@function
memchr:                                 // @memchr
	.cfi_startproc
// %bb.0:
	sub	sp, sp, #64
	.cfi_def_cfa_offset 64
	stp	x29, x30, [sp, #48]             // 16-byte Folded Spill
	add	x29, sp, #48
	.cfi_def_cfa w29, 16
	.cfi_offset w30, -8
	.cfi_offset w29, -16
	stur	x0, [x29, #-8]
	stur	w1, [x29, #-12]
	str	x2, [sp, #24]
	ldur	x8, [x29, #-8]
	str	x8, [sp, #16]
	ldurb	w8, [x29, #-12]
	stur	w8, [x29, #-12]
	b	.LBB4_1
.LBB4_1:                                // =>This Inner Loop Header: Depth=1
	ldr	x8, [sp, #24]
	mov	w16, wzr
	str	w16, [sp, #12]                  // 4-byte Folded Spill
	cbz	x8, .LBB4_3
	b	.LBB4_2
.LBB4_2:                                //   in Loop: Header=BB4_1 Depth=1
	ldr	x8, [sp, #16]
	ldrb	w8, [x8]
	ldur	w16, [x29, #-12]
	subs	w8, w8, w16
	cset	w8, ne
	str	w8, [sp, #12]                   // 4-byte Folded Spill
	b	.LBB4_3
.LBB4_3:                                //   in Loop: Header=BB4_1 Depth=1
	ldr	w8, [sp, #12]                   // 4-byte Folded Reload
	tbz	w8, #0, .LBB4_6
	b	.LBB4_4
.LBB4_4:                                //   in Loop: Header=BB4_1 Depth=1
	b	.LBB4_5
.LBB4_5:                                //   in Loop: Header=BB4_1 Depth=1
	ldr	x8, [sp, #16]
	add	x8, x8, #1
	str	x8, [sp, #16]
	ldr	x8, [sp, #24]
	subs	x8, x8, #1
	str	x8, [sp, #24]
	b	.LBB4_1
.LBB4_6:
	ldr	x8, [sp, #24]
	cbz	x8, .LBB4_8
	b	.LBB4_7
.LBB4_7:
	ldr	x0, [sp, #16]
	str	x0, [sp]                        // 8-byte Folded Spill
	b	.LBB4_9
.LBB4_8:
	mov	x0, xzr
	str	x0, [sp]                        // 8-byte Folded Spill
	b	.LBB4_9
.LBB4_9:
	ldr	x0, [sp]                        // 8-byte Folded Reload
	.cfi_def_cfa wsp, 64
	ldp	x29, x30, [sp, #48]             // 16-byte Folded Reload
	add	sp, sp, #64
	.cfi_def_cfa_offset 0
	.cfi_restore w30
	.cfi_restore w29
	mov	x1, #0                          // =0x0
	mov	x2, #0                          // =0x0
	mov	x3, #0                          // =0x0
	mov	x4, #0                          // =0x0
	mov	x5, #0                          // =0x0
	mov	x6, #0                          // =0x0
	mov	x7, #0                          // =0x0
	mov	x8, #0                          // =0x0
	mov	x16, #0                         // =0x0
	mov	x17, #0                         // =0x0
	movi	v0.2d, #0000000000000000
	movi	v1.2d, #0000000000000000
	movi	v2.2d, #0000000000000000
	movi	v3.2d, #0000000000000000
	movi	v4.2d, #0000000000000000
	movi	v5.2d, #0000000000000000
	movi	v6.2d, #0000000000000000
	movi	v7.2d, #0000000000000000
	movi	v16.2d, #0000000000000000
	movi	v17.2d, #0000000000000000
	movi	v18.2d, #0000000000000000
	movi	v19.2d, #0000000000000000
	movi	v20.2d, #0000000000000000
	movi	v21.2d, #0000000000000000
	movi	v22.2d, #0000000000000000
	movi	v23.2d, #0000000000000000
	movi	v24.2d, #0000000000000000
	movi	v25.2d, #0000000000000000
	movi	v26.2d, #0000000000000000
	movi	v27.2d, #0000000000000000
	movi	v28.2d, #0000000000000000
	movi	v29.2d, #0000000000000000
	movi	v30.2d, #0000000000000000
	movi	v31.2d, #0000000000000000
	ret
	dsb	sy
	isb
.Lfunc_end4:
	.size	memchr, .Lfunc_end4-memchr
	.cfi_endproc
                                        // -- End function
	.globl	memcmp                          // -- Begin function memcmp
	.p2align	2
	.type	memcmp,@function
memcmp:                                 // @memcmp
	.cfi_startproc
// %bb.0:
	sub	sp, sp, #64
	.cfi_def_cfa_offset 64
	stp	x29, x30, [sp, #48]             // 16-byte Folded Spill
	add	x29, sp, #48
	.cfi_def_cfa w29, 16
	.cfi_offset w30, -8
	.cfi_offset w29, -16
	stur	x0, [x29, #-8]
	stur	x1, [x29, #-16]
	str	x2, [sp, #24]
	ldur	x8, [x29, #-8]
	str	x8, [sp, #16]
	ldur	x8, [x29, #-16]
	str	x8, [sp, #8]
	b	.LBB5_1
.LBB5_1:                                // =>This Inner Loop Header: Depth=1
	ldr	x8, [sp, #24]
	mov	w16, wzr
	str	w16, [sp, #4]                   // 4-byte Folded Spill
	cbz	x8, .LBB5_3
	b	.LBB5_2
.LBB5_2:                                //   in Loop: Header=BB5_1 Depth=1
	ldr	x8, [sp, #16]
	ldrb	w8, [x8]
	ldr	x16, [sp, #8]
	ldrb	w16, [x16]
	subs	w8, w8, w16
	cset	w8, eq
	str	w8, [sp, #4]                    // 4-byte Folded Spill
	b	.LBB5_3
.LBB5_3:                                //   in Loop: Header=BB5_1 Depth=1
	ldr	w8, [sp, #4]                    // 4-byte Folded Reload
	tbz	w8, #0, .LBB5_6
	b	.LBB5_4
.LBB5_4:                                //   in Loop: Header=BB5_1 Depth=1
	b	.LBB5_5
.LBB5_5:                                //   in Loop: Header=BB5_1 Depth=1
	ldr	x8, [sp, #24]
	subs	x8, x8, #1
	str	x8, [sp, #24]
	ldr	x8, [sp, #16]
	add	x8, x8, #1
	str	x8, [sp, #16]
	ldr	x8, [sp, #8]
	add	x8, x8, #1
	str	x8, [sp, #8]
	b	.LBB5_1
.LBB5_6:
	ldr	x8, [sp, #24]
	cbz	x8, .LBB5_8
	b	.LBB5_7
.LBB5_7:
	ldr	x8, [sp, #16]
	ldrb	w8, [x8]
	ldr	x16, [sp, #8]
	ldrb	w16, [x16]
	subs	w0, w8, w16
	str	w0, [sp]                        // 4-byte Folded Spill
	b	.LBB5_9
.LBB5_8:
	mov	w0, wzr
	str	w0, [sp]                        // 4-byte Folded Spill
	b	.LBB5_9
.LBB5_9:
	ldr	w0, [sp]                        // 4-byte Folded Reload
	.cfi_def_cfa wsp, 64
	ldp	x29, x30, [sp, #48]             // 16-byte Folded Reload
	add	sp, sp, #64
	.cfi_def_cfa_offset 0
	.cfi_restore w30
	.cfi_restore w29
	mov	x1, #0                          // =0x0
	mov	x2, #0                          // =0x0
	mov	x3, #0                          // =0x0
	mov	x4, #0                          // =0x0
	mov	x5, #0                          // =0x0
	mov	x6, #0                          // =0x0
	mov	x7, #0                          // =0x0
	mov	x8, #0                          // =0x0
	mov	x16, #0                         // =0x0
	mov	x17, #0                         // =0x0
	movi	v0.2d, #0000000000000000
	movi	v1.2d, #0000000000000000
	movi	v2.2d, #0000000000000000
	movi	v3.2d, #0000000000000000
	movi	v4.2d, #0000000000000000
	movi	v5.2d, #0000000000000000
	movi	v6.2d, #0000000000000000
	movi	v7.2d, #0000000000000000
	movi	v16.2d, #0000000000000000
	movi	v17.2d, #0000000000000000
	movi	v18.2d, #0000000000000000
	movi	v19.2d, #0000000000000000
	movi	v20.2d, #0000000000000000
	movi	v21.2d, #0000000000000000
	movi	v22.2d, #0000000000000000
	movi	v23.2d, #0000000000000000
	movi	v24.2d, #0000000000000000
	movi	v25.2d, #0000000000000000
	movi	v26.2d, #0000000000000000
	movi	v27.2d, #0000000000000000
	movi	v28.2d, #0000000000000000
	movi	v29.2d, #0000000000000000
	movi	v30.2d, #0000000000000000
	movi	v31.2d, #0000000000000000
	ret
	dsb	sy
	isb
.Lfunc_end5:
	.size	memcmp, .Lfunc_end5-memcmp
	.cfi_endproc
                                        // -- End function
	.globl	memcpy                          // -- Begin function memcpy
	.p2align	2
	.type	memcpy,@function
memcpy:                                 // @memcpy
	.cfi_startproc
// %bb.0:
	sub	sp, sp, #64
	.cfi_def_cfa_offset 64
	stp	x29, x30, [sp, #48]             // 16-byte Folded Spill
	add	x29, sp, #48
	.cfi_def_cfa w29, 16
	.cfi_offset w30, -8
	.cfi_offset w29, -16
	stur	x0, [x29, #-8]
	stur	x1, [x29, #-16]
	str	x2, [sp, #24]
	ldur	x8, [x29, #-8]
	str	x8, [sp, #16]
	ldur	x8, [x29, #-16]
	str	x8, [sp, #8]
	b	.LBB6_1
.LBB6_1:                                // =>This Inner Loop Header: Depth=1
	ldr	x8, [sp, #24]
	cbz	x8, .LBB6_4
	b	.LBB6_2
.LBB6_2:                                //   in Loop: Header=BB6_1 Depth=1
	ldr	x8, [sp, #8]
	add	x16, x8, #1
	str	x16, [sp, #8]
	ldrb	w8, [x8]
	ldr	x16, [sp, #16]
	add	x17, x16, #1
	str	x17, [sp, #16]
	strb	w8, [x16]
	b	.LBB6_3
.LBB6_3:                                //   in Loop: Header=BB6_1 Depth=1
	ldr	x8, [sp, #24]
	subs	x8, x8, #1
	str	x8, [sp, #24]
	b	.LBB6_1
.LBB6_4:
	ldur	x0, [x29, #-8]
	.cfi_def_cfa wsp, 64
	ldp	x29, x30, [sp, #48]             // 16-byte Folded Reload
	add	sp, sp, #64
	.cfi_def_cfa_offset 0
	.cfi_restore w30
	.cfi_restore w29
	mov	x1, #0                          // =0x0
	mov	x2, #0                          // =0x0
	mov	x3, #0                          // =0x0
	mov	x4, #0                          // =0x0
	mov	x5, #0                          // =0x0
	mov	x6, #0                          // =0x0
	mov	x7, #0                          // =0x0
	mov	x8, #0                          // =0x0
	mov	x16, #0                         // =0x0
	mov	x17, #0                         // =0x0
	movi	v0.2d, #0000000000000000
	movi	v1.2d, #0000000000000000
	movi	v2.2d, #0000000000000000
	movi	v3.2d, #0000000000000000
	movi	v4.2d, #0000000000000000
	movi	v5.2d, #0000000000000000
	movi	v6.2d, #0000000000000000
	movi	v7.2d, #0000000000000000
	movi	v16.2d, #0000000000000000
	movi	v17.2d, #0000000000000000
	movi	v18.2d, #0000000000000000
	movi	v19.2d, #0000000000000000
	movi	v20.2d, #0000000000000000
	movi	v21.2d, #0000000000000000
	movi	v22.2d, #0000000000000000
	movi	v23.2d, #0000000000000000
	movi	v24.2d, #0000000000000000
	movi	v25.2d, #0000000000000000
	movi	v26.2d, #0000000000000000
	movi	v27.2d, #0000000000000000
	movi	v28.2d, #0000000000000000
	movi	v29.2d, #0000000000000000
	movi	v30.2d, #0000000000000000
	movi	v31.2d, #0000000000000000
	ret
	dsb	sy
	isb
.Lfunc_end6:
	.size	memcpy, .Lfunc_end6-memcpy
	.cfi_endproc
                                        // -- End function
	.globl	memrchr                         // -- Begin function memrchr
	.p2align	2
	.type	memrchr,@function
memrchr:                                // @memrchr
	.cfi_startproc
// %bb.0:
	sub	sp, sp, #64
	.cfi_def_cfa_offset 64
	stp	x29, x30, [sp, #48]             // 16-byte Folded Spill
	add	x29, sp, #48
	.cfi_def_cfa w29, 16
	.cfi_offset w30, -8
	.cfi_offset w29, -16
	stur	x0, [x29, #-16]
	stur	w1, [x29, #-20]
	str	x2, [sp, #16]
	ldur	x8, [x29, #-16]
	str	x8, [sp, #8]
	ldurb	w8, [x29, #-20]
	stur	w8, [x29, #-20]
	b	.LBB7_1
.LBB7_1:                                // =>This Inner Loop Header: Depth=1
	ldr	x8, [sp, #16]
	subs	x16, x8, #1
	str	x16, [sp, #16]
	cbz	x8, .LBB7_5
	b	.LBB7_2
.LBB7_2:                                //   in Loop: Header=BB7_1 Depth=1
	ldr	x8, [sp, #8]
	ldr	x16, [sp, #16]
	ldrb	w8, [x8, x16]
	ldur	w16, [x29, #-20]
	subs	w8, w8, w16
	b.ne	.LBB7_4
	b	.LBB7_3
.LBB7_3:
	ldr	x8, [sp, #8]
	ldr	x16, [sp, #16]
	add	x8, x8, x16
	stur	x8, [x29, #-8]
	b	.LBB7_6
.LBB7_4:                                //   in Loop: Header=BB7_1 Depth=1
	b	.LBB7_1
.LBB7_5:
	mov	x8, xzr
	stur	x8, [x29, #-8]
	b	.LBB7_6
.LBB7_6:
	ldur	x0, [x29, #-8]
	.cfi_def_cfa wsp, 64
	ldp	x29, x30, [sp, #48]             // 16-byte Folded Reload
	add	sp, sp, #64
	.cfi_def_cfa_offset 0
	.cfi_restore w30
	.cfi_restore w29
	mov	x1, #0                          // =0x0
	mov	x2, #0                          // =0x0
	mov	x3, #0                          // =0x0
	mov	x4, #0                          // =0x0
	mov	x5, #0                          // =0x0
	mov	x6, #0                          // =0x0
	mov	x7, #0                          // =0x0
	mov	x8, #0                          // =0x0
	mov	x16, #0                         // =0x0
	mov	x17, #0                         // =0x0
	movi	v0.2d, #0000000000000000
	movi	v1.2d, #0000000000000000
	movi	v2.2d, #0000000000000000
	movi	v3.2d, #0000000000000000
	movi	v4.2d, #0000000000000000
	movi	v5.2d, #0000000000000000
	movi	v6.2d, #0000000000000000
	movi	v7.2d, #0000000000000000
	movi	v16.2d, #0000000000000000
	movi	v17.2d, #0000000000000000
	movi	v18.2d, #0000000000000000
	movi	v19.2d, #0000000000000000
	movi	v20.2d, #0000000000000000
	movi	v21.2d, #0000000000000000
	movi	v22.2d, #0000000000000000
	movi	v23.2d, #0000000000000000
	movi	v24.2d, #0000000000000000
	movi	v25.2d, #0000000000000000
	movi	v26.2d, #0000000000000000
	movi	v27.2d, #0000000000000000
	movi	v28.2d, #0000000000000000
	movi	v29.2d, #0000000000000000
	movi	v30.2d, #0000000000000000
	movi	v31.2d, #0000000000000000
	ret
	dsb	sy
	isb
.Lfunc_end7:
	.size	memrchr, .Lfunc_end7-memrchr
	.cfi_endproc
                                        // -- End function
	.globl	memset                          // -- Begin function memset
	.p2align	2
	.type	memset,@function
memset:                                 // @memset
	.cfi_startproc
// %bb.0:
	sub	sp, sp, #64
	.cfi_def_cfa_offset 64
	stp	x29, x30, [sp, #48]             // 16-byte Folded Spill
	add	x29, sp, #48
	.cfi_def_cfa w29, 16
	.cfi_offset w30, -8
	.cfi_offset w29, -16
	stur	x0, [x29, #-8]
	stur	w1, [x29, #-12]
	str	x2, [sp, #24]
	ldur	x8, [x29, #-8]
	str	x8, [sp, #16]
	b	.LBB8_1
.LBB8_1:                                // =>This Inner Loop Header: Depth=1
	ldr	x8, [sp, #24]
	cbz	x8, .LBB8_4
	b	.LBB8_2
.LBB8_2:                                //   in Loop: Header=BB8_1 Depth=1
	ldur	w8, [x29, #-12]
	ldr	x16, [sp, #16]
	strb	w8, [x16]
	b	.LBB8_3
.LBB8_3:                                //   in Loop: Header=BB8_1 Depth=1
	ldr	x8, [sp, #24]
	subs	x8, x8, #1
	str	x8, [sp, #24]
	ldr	x8, [sp, #16]
	add	x8, x8, #1
	str	x8, [sp, #16]
	b	.LBB8_1
.LBB8_4:
	ldur	x0, [x29, #-8]
	.cfi_def_cfa wsp, 64
	ldp	x29, x30, [sp, #48]             // 16-byte Folded Reload
	add	sp, sp, #64
	.cfi_def_cfa_offset 0
	.cfi_restore w30
	.cfi_restore w29
	mov	x1, #0                          // =0x0
	mov	x2, #0                          // =0x0
	mov	x3, #0                          // =0x0
	mov	x4, #0                          // =0x0
	mov	x5, #0                          // =0x0
	mov	x6, #0                          // =0x0
	mov	x7, #0                          // =0x0
	mov	x8, #0                          // =0x0
	mov	x16, #0                         // =0x0
	mov	x17, #0                         // =0x0
	movi	v0.2d, #0000000000000000
	movi	v1.2d, #0000000000000000
	movi	v2.2d, #0000000000000000
	movi	v3.2d, #0000000000000000
	movi	v4.2d, #0000000000000000
	movi	v5.2d, #0000000000000000
	movi	v6.2d, #0000000000000000
	movi	v7.2d, #0000000000000000
	movi	v16.2d, #0000000000000000
	movi	v17.2d, #0000000000000000
	movi	v18.2d, #0000000000000000
	movi	v19.2d, #0000000000000000
	movi	v20.2d, #0000000000000000
	movi	v21.2d, #0000000000000000
	movi	v22.2d, #0000000000000000
	movi	v23.2d, #0000000000000000
	movi	v24.2d, #0000000000000000
	movi	v25.2d, #0000000000000000
	movi	v26.2d, #0000000000000000
	movi	v27.2d, #0000000000000000
	movi	v28.2d, #0000000000000000
	movi	v29.2d, #0000000000000000
	movi	v30.2d, #0000000000000000
	movi	v31.2d, #0000000000000000
	ret
	dsb	sy
	isb
.Lfunc_end8:
	.size	memset, .Lfunc_end8-memset
	.cfi_endproc
                                        // -- End function
	.globl	stpcpy                          // -- Begin function stpcpy
	.p2align	2
	.type	stpcpy,@function
stpcpy:                                 // @stpcpy
	.cfi_startproc
// %bb.0:
	sub	sp, sp, #32
	.cfi_def_cfa_offset 32
	stp	x29, x30, [sp, #16]             // 16-byte Folded Spill
	add	x29, sp, #16
	.cfi_def_cfa w29, 16
	.cfi_offset w30, -8
	.cfi_offset w29, -16
	str	x0, [sp, #8]
	str	x1, [sp]
	b	.LBB9_1
.LBB9_1:                                // =>This Inner Loop Header: Depth=1
	ldr	x8, [sp]
	ldrb	w8, [x8]
	ldr	x16, [sp, #8]
	strb	w8, [x16]
	cbz	w8, .LBB9_4
	b	.LBB9_2
.LBB9_2:                                //   in Loop: Header=BB9_1 Depth=1
	b	.LBB9_3
.LBB9_3:                                //   in Loop: Header=BB9_1 Depth=1
	ldr	x8, [sp]
	add	x8, x8, #1
	str	x8, [sp]
	ldr	x8, [sp, #8]
	add	x8, x8, #1
	str	x8, [sp, #8]
	b	.LBB9_1
.LBB9_4:
	ldr	x0, [sp, #8]
	.cfi_def_cfa wsp, 32
	ldp	x29, x30, [sp, #16]             // 16-byte Folded Reload
	add	sp, sp, #32
	.cfi_def_cfa_offset 0
	.cfi_restore w30
	.cfi_restore w29
	mov	x1, #0                          // =0x0
	mov	x2, #0                          // =0x0
	mov	x3, #0                          // =0x0
	mov	x4, #0                          // =0x0
	mov	x5, #0                          // =0x0
	mov	x6, #0                          // =0x0
	mov	x7, #0                          // =0x0
	mov	x8, #0                          // =0x0
	mov	x16, #0                         // =0x0
	mov	x17, #0                         // =0x0
	movi	v0.2d, #0000000000000000
	movi	v1.2d, #0000000000000000
	movi	v2.2d, #0000000000000000
	movi	v3.2d, #0000000000000000
	movi	v4.2d, #0000000000000000
	movi	v5.2d, #0000000000000000
	movi	v6.2d, #0000000000000000
	movi	v7.2d, #0000000000000000
	movi	v16.2d, #0000000000000000
	movi	v17.2d, #0000000000000000
	movi	v18.2d, #0000000000000000
	movi	v19.2d, #0000000000000000
	movi	v20.2d, #0000000000000000
	movi	v21.2d, #0000000000000000
	movi	v22.2d, #0000000000000000
	movi	v23.2d, #0000000000000000
	movi	v24.2d, #0000000000000000
	movi	v25.2d, #0000000000000000
	movi	v26.2d, #0000000000000000
	movi	v27.2d, #0000000000000000
	movi	v28.2d, #0000000000000000
	movi	v29.2d, #0000000000000000
	movi	v30.2d, #0000000000000000
	movi	v31.2d, #0000000000000000
	ret
	dsb	sy
	isb
.Lfunc_end9:
	.size	stpcpy, .Lfunc_end9-stpcpy
	.cfi_endproc
                                        // -- End function
	.globl	strchrnul                       // -- Begin function strchrnul
	.p2align	2
	.type	strchrnul,@function
strchrnul:                              // @strchrnul
	.cfi_startproc
// %bb.0:
	sub	sp, sp, #32
	.cfi_def_cfa_offset 32
	stp	x29, x30, [sp, #16]             // 16-byte Folded Spill
	add	x29, sp, #16
	.cfi_def_cfa w29, 16
	.cfi_offset w30, -8
	.cfi_offset w29, -16
	str	x0, [sp, #8]
	str	w1, [sp, #4]
	ldrb	w8, [sp, #4]
	str	w8, [sp, #4]
	b	.LBB10_1
.LBB10_1:                               // =>This Inner Loop Header: Depth=1
	ldr	x8, [sp, #8]
	ldrb	w8, [x8]
	mov	w16, wzr
	str	w16, [sp]                       // 4-byte Folded Spill
	cbz	w8, .LBB10_3
	b	.LBB10_2
.LBB10_2:                               //   in Loop: Header=BB10_1 Depth=1
	ldr	x8, [sp, #8]
	ldrb	w8, [x8]
	ldr	w16, [sp, #4]
	subs	w8, w8, w16
	cset	w8, ne
	str	w8, [sp]                        // 4-byte Folded Spill
	b	.LBB10_3
.LBB10_3:                               //   in Loop: Header=BB10_1 Depth=1
	ldr	w8, [sp]                        // 4-byte Folded Reload
	tbz	w8, #0, .LBB10_6
	b	.LBB10_4
.LBB10_4:                               //   in Loop: Header=BB10_1 Depth=1
	b	.LBB10_5
.LBB10_5:                               //   in Loop: Header=BB10_1 Depth=1
	ldr	x8, [sp, #8]
	add	x8, x8, #1
	str	x8, [sp, #8]
	b	.LBB10_1
.LBB10_6:
	ldr	x0, [sp, #8]
	.cfi_def_cfa wsp, 32
	ldp	x29, x30, [sp, #16]             // 16-byte Folded Reload
	add	sp, sp, #32
	.cfi_def_cfa_offset 0
	.cfi_restore w30
	.cfi_restore w29
	mov	x1, #0                          // =0x0
	mov	x2, #0                          // =0x0
	mov	x3, #0                          // =0x0
	mov	x4, #0                          // =0x0
	mov	x5, #0                          // =0x0
	mov	x6, #0                          // =0x0
	mov	x7, #0                          // =0x0
	mov	x8, #0                          // =0x0
	mov	x16, #0                         // =0x0
	mov	x17, #0                         // =0x0
	movi	v0.2d, #0000000000000000
	movi	v1.2d, #0000000000000000
	movi	v2.2d, #0000000000000000
	movi	v3.2d, #0000000000000000
	movi	v4.2d, #0000000000000000
	movi	v5.2d, #0000000000000000
	movi	v6.2d, #0000000000000000
	movi	v7.2d, #0000000000000000
	movi	v16.2d, #0000000000000000
	movi	v17.2d, #0000000000000000
	movi	v18.2d, #0000000000000000
	movi	v19.2d, #0000000000000000
	movi	v20.2d, #0000000000000000
	movi	v21.2d, #0000000000000000
	movi	v22.2d, #0000000000000000
	movi	v23.2d, #0000000000000000
	movi	v24.2d, #0000000000000000
	movi	v25.2d, #0000000000000000
	movi	v26.2d, #0000000000000000
	movi	v27.2d, #0000000000000000
	movi	v28.2d, #0000000000000000
	movi	v29.2d, #0000000000000000
	movi	v30.2d, #0000000000000000
	movi	v31.2d, #0000000000000000
	ret
	dsb	sy
	isb
.Lfunc_end10:
	.size	strchrnul, .Lfunc_end10-strchrnul
	.cfi_endproc
                                        // -- End function
	.globl	strchr                          // -- Begin function strchr
	.p2align	2
	.type	strchr,@function
strchr:                                 // @strchr
	.cfi_startproc
// %bb.0:
	sub	sp, sp, #48
	.cfi_def_cfa_offset 48
	stp	x29, x30, [sp, #32]             // 16-byte Folded Spill
	add	x29, sp, #32
	.cfi_def_cfa w29, 16
	.cfi_offset w30, -8
	.cfi_offset w29, -16
	str	x0, [sp, #16]
	str	w1, [sp, #12]
	b	.LBB11_1
.LBB11_1:                               // =>This Inner Loop Header: Depth=1
	ldr	x8, [sp, #16]
	ldrb	w8, [x8]
	ldr	w16, [sp, #12]
	subs	w8, w8, w16
	b.ne	.LBB11_3
	b	.LBB11_2
.LBB11_2:
	ldr	x8, [sp, #16]
	stur	x8, [x29, #-8]
	b	.LBB11_6
.LBB11_3:                               //   in Loop: Header=BB11_1 Depth=1
	b	.LBB11_4
.LBB11_4:                               //   in Loop: Header=BB11_1 Depth=1
	ldr	x8, [sp, #16]
	add	x16, x8, #1
	str	x16, [sp, #16]
	ldrb	w8, [x8]
	cbnz	w8, .LBB11_1
	b	.LBB11_5
.LBB11_5:
	mov	x8, xzr
	stur	x8, [x29, #-8]
	b	.LBB11_6
.LBB11_6:
	ldur	x0, [x29, #-8]
	.cfi_def_cfa wsp, 48
	ldp	x29, x30, [sp, #32]             // 16-byte Folded Reload
	add	sp, sp, #48
	.cfi_def_cfa_offset 0
	.cfi_restore w30
	.cfi_restore w29
	mov	x1, #0                          // =0x0
	mov	x2, #0                          // =0x0
	mov	x3, #0                          // =0x0
	mov	x4, #0                          // =0x0
	mov	x5, #0                          // =0x0
	mov	x6, #0                          // =0x0
	mov	x7, #0                          // =0x0
	mov	x8, #0                          // =0x0
	mov	x16, #0                         // =0x0
	mov	x17, #0                         // =0x0
	movi	v0.2d, #0000000000000000
	movi	v1.2d, #0000000000000000
	movi	v2.2d, #0000000000000000
	movi	v3.2d, #0000000000000000
	movi	v4.2d, #0000000000000000
	movi	v5.2d, #0000000000000000
	movi	v6.2d, #0000000000000000
	movi	v7.2d, #0000000000000000
	movi	v16.2d, #0000000000000000
	movi	v17.2d, #0000000000000000
	movi	v18.2d, #0000000000000000
	movi	v19.2d, #0000000000000000
	movi	v20.2d, #0000000000000000
	movi	v21.2d, #0000000000000000
	movi	v22.2d, #0000000000000000
	movi	v23.2d, #0000000000000000
	movi	v24.2d, #0000000000000000
	movi	v25.2d, #0000000000000000
	movi	v26.2d, #0000000000000000
	movi	v27.2d, #0000000000000000
	movi	v28.2d, #0000000000000000
	movi	v29.2d, #0000000000000000
	movi	v30.2d, #0000000000000000
	movi	v31.2d, #0000000000000000
	ret
	dsb	sy
	isb
.Lfunc_end11:
	.size	strchr, .Lfunc_end11-strchr
	.cfi_endproc
                                        // -- End function
	.globl	strcmp                          // -- Begin function strcmp
	.p2align	2
	.type	strcmp,@function
strcmp:                                 // @strcmp
	.cfi_startproc
// %bb.0:
	sub	sp, sp, #48
	.cfi_def_cfa_offset 48
	stp	x29, x30, [sp, #32]             // 16-byte Folded Spill
	add	x29, sp, #32
	.cfi_def_cfa w29, 16
	.cfi_offset w30, -8
	.cfi_offset w29, -16
	stur	x0, [x29, #-8]
	str	x1, [sp, #16]
	b	.LBB12_1
.LBB12_1:                               // =>This Inner Loop Header: Depth=1
	ldur	x8, [x29, #-8]
	ldrb	w16, [x8]
	ldr	x8, [sp, #16]
	ldrb	w17, [x8]
	mov	w8, wzr
	subs	w16, w16, w17
	str	w8, [sp, #12]                   // 4-byte Folded Spill
	b.ne	.LBB12_3
	b	.LBB12_2
.LBB12_2:                               //   in Loop: Header=BB12_1 Depth=1
	ldur	x8, [x29, #-8]
	ldrb	w8, [x8]
	subs	w8, w8, #0
	cset	w8, ne
	str	w8, [sp, #12]                   // 4-byte Folded Spill
	b	.LBB12_3
.LBB12_3:                               //   in Loop: Header=BB12_1 Depth=1
	ldr	w8, [sp, #12]                   // 4-byte Folded Reload
	tbz	w8, #0, .LBB12_6
	b	.LBB12_4
.LBB12_4:                               //   in Loop: Header=BB12_1 Depth=1
	b	.LBB12_5
.LBB12_5:                               //   in Loop: Header=BB12_1 Depth=1
	ldur	x8, [x29, #-8]
	add	x8, x8, #1
	stur	x8, [x29, #-8]
	ldr	x8, [sp, #16]
	add	x8, x8, #1
	str	x8, [sp, #16]
	b	.LBB12_1
.LBB12_6:
	ldur	x8, [x29, #-8]
	ldrb	w8, [x8]
	ldr	x16, [sp, #16]
	ldrb	w16, [x16]
	subs	w0, w8, w16
	.cfi_def_cfa wsp, 48
	ldp	x29, x30, [sp, #32]             // 16-byte Folded Reload
	add	sp, sp, #48
	.cfi_def_cfa_offset 0
	.cfi_restore w30
	.cfi_restore w29
	mov	x1, #0                          // =0x0
	mov	x2, #0                          // =0x0
	mov	x3, #0                          // =0x0
	mov	x4, #0                          // =0x0
	mov	x5, #0                          // =0x0
	mov	x6, #0                          // =0x0
	mov	x7, #0                          // =0x0
	mov	x8, #0                          // =0x0
	mov	x16, #0                         // =0x0
	mov	x17, #0                         // =0x0
	movi	v0.2d, #0000000000000000
	movi	v1.2d, #0000000000000000
	movi	v2.2d, #0000000000000000
	movi	v3.2d, #0000000000000000
	movi	v4.2d, #0000000000000000
	movi	v5.2d, #0000000000000000
	movi	v6.2d, #0000000000000000
	movi	v7.2d, #0000000000000000
	movi	v16.2d, #0000000000000000
	movi	v17.2d, #0000000000000000
	movi	v18.2d, #0000000000000000
	movi	v19.2d, #0000000000000000
	movi	v20.2d, #0000000000000000
	movi	v21.2d, #0000000000000000
	movi	v22.2d, #0000000000000000
	movi	v23.2d, #0000000000000000
	movi	v24.2d, #0000000000000000
	movi	v25.2d, #0000000000000000
	movi	v26.2d, #0000000000000000
	movi	v27.2d, #0000000000000000
	movi	v28.2d, #0000000000000000
	movi	v29.2d, #0000000000000000
	movi	v30.2d, #0000000000000000
	movi	v31.2d, #0000000000000000
	ret
	dsb	sy
	isb
.Lfunc_end12:
	.size	strcmp, .Lfunc_end12-strcmp
	.cfi_endproc
                                        // -- End function
	.globl	strlen                          // -- Begin function strlen
	.p2align	2
	.type	strlen,@function
strlen:                                 // @strlen
	.cfi_startproc
// %bb.0:
	sub	sp, sp, #32
	.cfi_def_cfa_offset 32
	stp	x29, x30, [sp, #16]             // 16-byte Folded Spill
	add	x29, sp, #16
	.cfi_def_cfa w29, 16
	.cfi_offset w30, -8
	.cfi_offset w29, -16
	str	x0, [sp, #8]
	ldr	x8, [sp, #8]
	str	x8, [sp]
	b	.LBB13_1
.LBB13_1:                               // =>This Inner Loop Header: Depth=1
	ldr	x8, [sp, #8]
	ldrb	w8, [x8]
	cbz	w8, .LBB13_4
	b	.LBB13_2
.LBB13_2:                               //   in Loop: Header=BB13_1 Depth=1
	b	.LBB13_3
.LBB13_3:                               //   in Loop: Header=BB13_1 Depth=1
	ldr	x8, [sp, #8]
	add	x8, x8, #1
	str	x8, [sp, #8]
	b	.LBB13_1
.LBB13_4:
	ldr	x8, [sp, #8]
	ldr	x16, [sp]
	subs	x0, x8, x16
	.cfi_def_cfa wsp, 32
	ldp	x29, x30, [sp, #16]             // 16-byte Folded Reload
	add	sp, sp, #32
	.cfi_def_cfa_offset 0
	.cfi_restore w30
	.cfi_restore w29
	mov	x1, #0                          // =0x0
	mov	x2, #0                          // =0x0
	mov	x3, #0                          // =0x0
	mov	x4, #0                          // =0x0
	mov	x5, #0                          // =0x0
	mov	x6, #0                          // =0x0
	mov	x7, #0                          // =0x0
	mov	x8, #0                          // =0x0
	mov	x16, #0                         // =0x0
	mov	x17, #0                         // =0x0
	movi	v0.2d, #0000000000000000
	movi	v1.2d, #0000000000000000
	movi	v2.2d, #0000000000000000
	movi	v3.2d, #0000000000000000
	movi	v4.2d, #0000000000000000
	movi	v5.2d, #0000000000000000
	movi	v6.2d, #0000000000000000
	movi	v7.2d, #0000000000000000
	movi	v16.2d, #0000000000000000
	movi	v17.2d, #0000000000000000
	movi	v18.2d, #0000000000000000
	movi	v19.2d, #0000000000000000
	movi	v20.2d, #0000000000000000
	movi	v21.2d, #0000000000000000
	movi	v22.2d, #0000000000000000
	movi	v23.2d, #0000000000000000
	movi	v24.2d, #0000000000000000
	movi	v25.2d, #0000000000000000
	movi	v26.2d, #0000000000000000
	movi	v27.2d, #0000000000000000
	movi	v28.2d, #0000000000000000
	movi	v29.2d, #0000000000000000
	movi	v30.2d, #0000000000000000
	movi	v31.2d, #0000000000000000
	ret
	dsb	sy
	isb
.Lfunc_end13:
	.size	strlen, .Lfunc_end13-strlen
	.cfi_endproc
                                        // -- End function
	.globl	strncmp                         // -- Begin function strncmp
	.p2align	2
	.type	strncmp,@function
strncmp:                                // @strncmp
	.cfi_startproc
// %bb.0:
	sub	sp, sp, #80
	.cfi_def_cfa_offset 80
	stp	x29, x30, [sp, #64]             // 16-byte Folded Spill
	add	x29, sp, #64
	.cfi_def_cfa w29, 16
	.cfi_offset w30, -8
	.cfi_offset w29, -16
	stur	x0, [x29, #-16]
	stur	x1, [x29, #-24]
	str	x2, [sp, #32]
	ldur	x8, [x29, #-16]
	str	x8, [sp, #24]
	ldur	x8, [x29, #-24]
	str	x8, [sp, #16]
	ldr	x8, [sp, #32]
	subs	x16, x8, #1
	str	x16, [sp, #32]
	cbnz	x8, .LBB14_2
	b	.LBB14_1
.LBB14_1:
	mov	w8, wzr
	stur	w8, [x29, #-4]
	b	.LBB14_11
.LBB14_2:
	b	.LBB14_3
.LBB14_3:                               // =>This Inner Loop Header: Depth=1
	ldr	x8, [sp, #24]
	ldrb	w8, [x8]
	mov	w16, wzr
	str	w16, [sp, #12]                  // 4-byte Folded Spill
	cbz	w8, .LBB14_7
	b	.LBB14_4
.LBB14_4:                               //   in Loop: Header=BB14_3 Depth=1
	ldr	x8, [sp, #16]
	ldrb	w8, [x8]
	mov	w16, wzr
	str	w16, [sp, #12]                  // 4-byte Folded Spill
	cbz	w8, .LBB14_7
	b	.LBB14_5
.LBB14_5:                               //   in Loop: Header=BB14_3 Depth=1
	ldr	x8, [sp, #32]
	mov	w16, wzr
	str	w16, [sp, #12]                  // 4-byte Folded Spill
	cbz	x8, .LBB14_7
	b	.LBB14_6
.LBB14_6:                               //   in Loop: Header=BB14_3 Depth=1
	ldr	x8, [sp, #24]
	ldrb	w8, [x8]
	ldr	x16, [sp, #16]
	ldrb	w16, [x16]
	subs	w8, w8, w16
	cset	w8, eq
	str	w8, [sp, #12]                   // 4-byte Folded Spill
	b	.LBB14_7
.LBB14_7:                               //   in Loop: Header=BB14_3 Depth=1
	ldr	w8, [sp, #12]                   // 4-byte Folded Reload
	tbz	w8, #0, .LBB14_10
	b	.LBB14_8
.LBB14_8:                               //   in Loop: Header=BB14_3 Depth=1
	b	.LBB14_9
.LBB14_9:                               //   in Loop: Header=BB14_3 Depth=1
	ldr	x8, [sp, #24]
	add	x8, x8, #1
	str	x8, [sp, #24]
	ldr	x8, [sp, #16]
	add	x8, x8, #1
	str	x8, [sp, #16]
	ldr	x8, [sp, #32]
	subs	x8, x8, #1
	str	x8, [sp, #32]
	b	.LBB14_3
.LBB14_10:
	ldr	x8, [sp, #24]
	ldrb	w8, [x8]
	ldr	x16, [sp, #16]
	ldrb	w16, [x16]
	subs	w8, w8, w16
	stur	w8, [x29, #-4]
	b	.LBB14_11
.LBB14_11:
	ldur	w0, [x29, #-4]
	.cfi_def_cfa wsp, 80
	ldp	x29, x30, [sp, #64]             // 16-byte Folded Reload
	add	sp, sp, #80
	.cfi_def_cfa_offset 0
	.cfi_restore w30
	.cfi_restore w29
	mov	x1, #0                          // =0x0
	mov	x2, #0                          // =0x0
	mov	x3, #0                          // =0x0
	mov	x4, #0                          // =0x0
	mov	x5, #0                          // =0x0
	mov	x6, #0                          // =0x0
	mov	x7, #0                          // =0x0
	mov	x8, #0                          // =0x0
	mov	x16, #0                         // =0x0
	mov	x17, #0                         // =0x0
	movi	v0.2d, #0000000000000000
	movi	v1.2d, #0000000000000000
	movi	v2.2d, #0000000000000000
	movi	v3.2d, #0000000000000000
	movi	v4.2d, #0000000000000000
	movi	v5.2d, #0000000000000000
	movi	v6.2d, #0000000000000000
	movi	v7.2d, #0000000000000000
	movi	v16.2d, #0000000000000000
	movi	v17.2d, #0000000000000000
	movi	v18.2d, #0000000000000000
	movi	v19.2d, #0000000000000000
	movi	v20.2d, #0000000000000000
	movi	v21.2d, #0000000000000000
	movi	v22.2d, #0000000000000000
	movi	v23.2d, #0000000000000000
	movi	v24.2d, #0000000000000000
	movi	v25.2d, #0000000000000000
	movi	v26.2d, #0000000000000000
	movi	v27.2d, #0000000000000000
	movi	v28.2d, #0000000000000000
	movi	v29.2d, #0000000000000000
	movi	v30.2d, #0000000000000000
	movi	v31.2d, #0000000000000000
	ret
	dsb	sy
	isb
.Lfunc_end14:
	.size	strncmp, .Lfunc_end14-strncmp
	.cfi_endproc
                                        // -- End function
	.globl	swab                            // -- Begin function swab
	.p2align	2
	.type	swab,@function
swab:                                   // @swab
	.cfi_startproc
// %bb.0:
	sub	sp, sp, #64
	.cfi_def_cfa_offset 64
	stp	x29, x30, [sp, #48]             // 16-byte Folded Spill
	add	x29, sp, #48
	.cfi_def_cfa w29, 16
	.cfi_offset w30, -8
	.cfi_offset w29, -16
	stur	x0, [x29, #-8]
	stur	x1, [x29, #-16]
	str	x2, [sp, #24]
	ldur	x8, [x29, #-8]
	str	x8, [sp, #16]
	ldur	x8, [x29, #-16]
	str	x8, [sp, #8]
	b	.LBB15_1
.LBB15_1:                               // =>This Inner Loop Header: Depth=1
	ldr	x8, [sp, #24]
	subs	x8, x8, #2
	b.lt	.LBB15_4
	b	.LBB15_2
.LBB15_2:                               //   in Loop: Header=BB15_1 Depth=1
	ldr	x8, [sp, #16]
	ldrb	w8, [x8, #1]
	ldr	x16, [sp, #8]
	strb	w8, [x16]
	ldr	x8, [sp, #16]
	ldrb	w8, [x8]
	ldr	x16, [sp, #8]
	strb	w8, [x16, #1]
	ldr	x8, [sp, #8]
	add	x8, x8, #2
	str	x8, [sp, #8]
	ldr	x8, [sp, #16]
	add	x8, x8, #2
	str	x8, [sp, #16]
	b	.LBB15_3
.LBB15_3:                               //   in Loop: Header=BB15_1 Depth=1
	ldr	x8, [sp, #24]
	subs	x8, x8, #2
	str	x8, [sp, #24]
	b	.LBB15_1
.LBB15_4:
	.cfi_def_cfa wsp, 64
	ldp	x29, x30, [sp, #48]             // 16-byte Folded Reload
	add	sp, sp, #64
	.cfi_def_cfa_offset 0
	.cfi_restore w30
	.cfi_restore w29
	mov	x0, #0                          // =0x0
	mov	x1, #0                          // =0x0
	mov	x2, #0                          // =0x0
	mov	x3, #0                          // =0x0
	mov	x4, #0                          // =0x0
	mov	x5, #0                          // =0x0
	mov	x6, #0                          // =0x0
	mov	x7, #0                          // =0x0
	mov	x8, #0                          // =0x0
	mov	x16, #0                         // =0x0
	mov	x17, #0                         // =0x0
	movi	v0.2d, #0000000000000000
	movi	v1.2d, #0000000000000000
	movi	v2.2d, #0000000000000000
	movi	v3.2d, #0000000000000000
	movi	v4.2d, #0000000000000000
	movi	v5.2d, #0000000000000000
	movi	v6.2d, #0000000000000000
	movi	v7.2d, #0000000000000000
	movi	v16.2d, #0000000000000000
	movi	v17.2d, #0000000000000000
	movi	v18.2d, #0000000000000000
	movi	v19.2d, #0000000000000000
	movi	v20.2d, #0000000000000000
	movi	v21.2d, #0000000000000000
	movi	v22.2d, #0000000000000000
	movi	v23.2d, #0000000000000000
	movi	v24.2d, #0000000000000000
	movi	v25.2d, #0000000000000000
	movi	v26.2d, #0000000000000000
	movi	v27.2d, #0000000000000000
	movi	v28.2d, #0000000000000000
	movi	v29.2d, #0000000000000000
	movi	v30.2d, #0000000000000000
	movi	v31.2d, #0000000000000000
	ret
	dsb	sy
	isb
.Lfunc_end15:
	.size	swab, .Lfunc_end15-swab
	.cfi_endproc
                                        // -- End function
	.globl	isalpha                         // -- Begin function isalpha
	.p2align	2
	.type	isalpha,@function
isalpha:                                // @isalpha
	.cfi_startproc
// %bb.0:
	sub	sp, sp, #32
	.cfi_def_cfa_offset 32
	stp	x29, x30, [sp, #16]             // 16-byte Folded Spill
	add	x29, sp, #16
	.cfi_def_cfa w29, 16
	.cfi_offset w30, -8
	.cfi_offset w29, -16
	stur	w0, [x29, #-4]
	ldur	w8, [x29, #-4]
	orr	w8, w8, #0x20
	subs	w8, w8, #97
	subs	w8, w8, #26
	cset	w0, lo
	.cfi_def_cfa wsp, 32
	ldp	x29, x30, [sp, #16]             // 16-byte Folded Reload
	add	sp, sp, #32
	.cfi_def_cfa_offset 0
	.cfi_restore w30
	.cfi_restore w29
	mov	x1, #0                          // =0x0
	mov	x2, #0                          // =0x0
	mov	x3, #0                          // =0x0
	mov	x4, #0                          // =0x0
	mov	x5, #0                          // =0x0
	mov	x6, #0                          // =0x0
	mov	x7, #0                          // =0x0
	mov	x8, #0                          // =0x0
	mov	x16, #0                         // =0x0
	mov	x17, #0                         // =0x0
	movi	v0.2d, #0000000000000000
	movi	v1.2d, #0000000000000000
	movi	v2.2d, #0000000000000000
	movi	v3.2d, #0000000000000000
	movi	v4.2d, #0000000000000000
	movi	v5.2d, #0000000000000000
	movi	v6.2d, #0000000000000000
	movi	v7.2d, #0000000000000000
	movi	v16.2d, #0000000000000000
	movi	v17.2d, #0000000000000000
	movi	v18.2d, #0000000000000000
	movi	v19.2d, #0000000000000000
	movi	v20.2d, #0000000000000000
	movi	v21.2d, #0000000000000000
	movi	v22.2d, #0000000000000000
	movi	v23.2d, #0000000000000000
	movi	v24.2d, #0000000000000000
	movi	v25.2d, #0000000000000000
	movi	v26.2d, #0000000000000000
	movi	v27.2d, #0000000000000000
	movi	v28.2d, #0000000000000000
	movi	v29.2d, #0000000000000000
	movi	v30.2d, #0000000000000000
	movi	v31.2d, #0000000000000000
	ret
	dsb	sy
	isb
.Lfunc_end16:
	.size	isalpha, .Lfunc_end16-isalpha
	.cfi_endproc
                                        // -- End function
	.globl	isascii                         // -- Begin function isascii
	.p2align	2
	.type	isascii,@function
isascii:                                // @isascii
	.cfi_startproc
// %bb.0:
	sub	sp, sp, #32
	.cfi_def_cfa_offset 32
	stp	x29, x30, [sp, #16]             // 16-byte Folded Spill
	add	x29, sp, #16
	.cfi_def_cfa w29, 16
	.cfi_offset w30, -8
	.cfi_offset w29, -16
	stur	w0, [x29, #-4]
	ldur	w8, [x29, #-4]
	ands	w8, w8, #0xffffff80
	cset	w0, eq
	.cfi_def_cfa wsp, 32
	ldp	x29, x30, [sp, #16]             // 16-byte Folded Reload
	add	sp, sp, #32
	.cfi_def_cfa_offset 0
	.cfi_restore w30
	.cfi_restore w29
	mov	x1, #0                          // =0x0
	mov	x2, #0                          // =0x0
	mov	x3, #0                          // =0x0
	mov	x4, #0                          // =0x0
	mov	x5, #0                          // =0x0
	mov	x6, #0                          // =0x0
	mov	x7, #0                          // =0x0
	mov	x8, #0                          // =0x0
	mov	x16, #0                         // =0x0
	mov	x17, #0                         // =0x0
	movi	v0.2d, #0000000000000000
	movi	v1.2d, #0000000000000000
	movi	v2.2d, #0000000000000000
	movi	v3.2d, #0000000000000000
	movi	v4.2d, #0000000000000000
	movi	v5.2d, #0000000000000000
	movi	v6.2d, #0000000000000000
	movi	v7.2d, #0000000000000000
	movi	v16.2d, #0000000000000000
	movi	v17.2d, #0000000000000000
	movi	v18.2d, #0000000000000000
	movi	v19.2d, #0000000000000000
	movi	v20.2d, #0000000000000000
	movi	v21.2d, #0000000000000000
	movi	v22.2d, #0000000000000000
	movi	v23.2d, #0000000000000000
	movi	v24.2d, #0000000000000000
	movi	v25.2d, #0000000000000000
	movi	v26.2d, #0000000000000000
	movi	v27.2d, #0000000000000000
	movi	v28.2d, #0000000000000000
	movi	v29.2d, #0000000000000000
	movi	v30.2d, #0000000000000000
	movi	v31.2d, #0000000000000000
	ret
	dsb	sy
	isb
.Lfunc_end17:
	.size	isascii, .Lfunc_end17-isascii
	.cfi_endproc
                                        // -- End function
	.globl	isblank                         // -- Begin function isblank
	.p2align	2
	.type	isblank,@function
isblank:                                // @isblank
	.cfi_startproc
// %bb.0:
	sub	sp, sp, #32
	.cfi_def_cfa_offset 32
	stp	x29, x30, [sp, #16]             // 16-byte Folded Spill
	add	x29, sp, #16
	.cfi_def_cfa w29, 16
	.cfi_offset w30, -8
	.cfi_offset w29, -16
	stur	w0, [x29, #-4]
	ldur	w16, [x29, #-4]
	mov	w8, #1                          // =0x1
	subs	w16, w16, #32
	str	w8, [sp, #8]                    // 4-byte Folded Spill
	b.eq	.LBB18_2
	b	.LBB18_1
.LBB18_1:
	ldur	w8, [x29, #-4]
	subs	w8, w8, #9
	cset	w8, eq
	str	w8, [sp, #8]                    // 4-byte Folded Spill
	b	.LBB18_2
.LBB18_2:
	ldr	w8, [sp, #8]                    // 4-byte Folded Reload
	and	w0, w8, #0x1
	.cfi_def_cfa wsp, 32
	ldp	x29, x30, [sp, #16]             // 16-byte Folded Reload
	add	sp, sp, #32
	.cfi_def_cfa_offset 0
	.cfi_restore w30
	.cfi_restore w29
	mov	x1, #0                          // =0x0
	mov	x2, #0                          // =0x0
	mov	x3, #0                          // =0x0
	mov	x4, #0                          // =0x0
	mov	x5, #0                          // =0x0
	mov	x6, #0                          // =0x0
	mov	x7, #0                          // =0x0
	mov	x8, #0                          // =0x0
	mov	x16, #0                         // =0x0
	mov	x17, #0                         // =0x0
	movi	v0.2d, #0000000000000000
	movi	v1.2d, #0000000000000000
	movi	v2.2d, #0000000000000000
	movi	v3.2d, #0000000000000000
	movi	v4.2d, #0000000000000000
	movi	v5.2d, #0000000000000000
	movi	v6.2d, #0000000000000000
	movi	v7.2d, #0000000000000000
	movi	v16.2d, #0000000000000000
	movi	v17.2d, #0000000000000000
	movi	v18.2d, #0000000000000000
	movi	v19.2d, #0000000000000000
	movi	v20.2d, #0000000000000000
	movi	v21.2d, #0000000000000000
	movi	v22.2d, #0000000000000000
	movi	v23.2d, #0000000000000000
	movi	v24.2d, #0000000000000000
	movi	v25.2d, #0000000000000000
	movi	v26.2d, #0000000000000000
	movi	v27.2d, #0000000000000000
	movi	v28.2d, #0000000000000000
	movi	v29.2d, #0000000000000000
	movi	v30.2d, #0000000000000000
	movi	v31.2d, #0000000000000000
	ret
	dsb	sy
	isb
.Lfunc_end18:
	.size	isblank, .Lfunc_end18-isblank
	.cfi_endproc
                                        // -- End function
	.globl	iscntrl                         // -- Begin function iscntrl
	.p2align	2
	.type	iscntrl,@function
iscntrl:                                // @iscntrl
	.cfi_startproc
// %bb.0:
	sub	sp, sp, #32
	.cfi_def_cfa_offset 32
	stp	x29, x30, [sp, #16]             // 16-byte Folded Spill
	add	x29, sp, #16
	.cfi_def_cfa w29, 16
	.cfi_offset w30, -8
	.cfi_offset w29, -16
	stur	w0, [x29, #-4]
	ldur	w16, [x29, #-4]
	mov	w8, #1                          // =0x1
	subs	w16, w16, #32
	str	w8, [sp, #8]                    // 4-byte Folded Spill
	b.lo	.LBB19_2
	b	.LBB19_1
.LBB19_1:
	ldur	w8, [x29, #-4]
	subs	w8, w8, #127
	cset	w8, eq
	str	w8, [sp, #8]                    // 4-byte Folded Spill
	b	.LBB19_2
.LBB19_2:
	ldr	w8, [sp, #8]                    // 4-byte Folded Reload
	and	w0, w8, #0x1
	.cfi_def_cfa wsp, 32
	ldp	x29, x30, [sp, #16]             // 16-byte Folded Reload
	add	sp, sp, #32
	.cfi_def_cfa_offset 0
	.cfi_restore w30
	.cfi_restore w29
	mov	x1, #0                          // =0x0
	mov	x2, #0                          // =0x0
	mov	x3, #0                          // =0x0
	mov	x4, #0                          // =0x0
	mov	x5, #0                          // =0x0
	mov	x6, #0                          // =0x0
	mov	x7, #0                          // =0x0
	mov	x8, #0                          // =0x0
	mov	x16, #0                         // =0x0
	mov	x17, #0                         // =0x0
	movi	v0.2d, #0000000000000000
	movi	v1.2d, #0000000000000000
	movi	v2.2d, #0000000000000000
	movi	v3.2d, #0000000000000000
	movi	v4.2d, #0000000000000000
	movi	v5.2d, #0000000000000000
	movi	v6.2d, #0000000000000000
	movi	v7.2d, #0000000000000000
	movi	v16.2d, #0000000000000000
	movi	v17.2d, #0000000000000000
	movi	v18.2d, #0000000000000000
	movi	v19.2d, #0000000000000000
	movi	v20.2d, #0000000000000000
	movi	v21.2d, #0000000000000000
	movi	v22.2d, #0000000000000000
	movi	v23.2d, #0000000000000000
	movi	v24.2d, #0000000000000000
	movi	v25.2d, #0000000000000000
	movi	v26.2d, #0000000000000000
	movi	v27.2d, #0000000000000000
	movi	v28.2d, #0000000000000000
	movi	v29.2d, #0000000000000000
	movi	v30.2d, #0000000000000000
	movi	v31.2d, #0000000000000000
	ret
	dsb	sy
	isb
.Lfunc_end19:
	.size	iscntrl, .Lfunc_end19-iscntrl
	.cfi_endproc
                                        // -- End function
	.globl	isdigit                         // -- Begin function isdigit
	.p2align	2
	.type	isdigit,@function
isdigit:                                // @isdigit
	.cfi_startproc
// %bb.0:
	sub	sp, sp, #32
	.cfi_def_cfa_offset 32
	stp	x29, x30, [sp, #16]             // 16-byte Folded Spill
	add	x29, sp, #16
	.cfi_def_cfa w29, 16
	.cfi_offset w30, -8
	.cfi_offset w29, -16
	stur	w0, [x29, #-4]
	ldur	w8, [x29, #-4]
	subs	w8, w8, #48
	subs	w8, w8, #10
	cset	w0, lo
	.cfi_def_cfa wsp, 32
	ldp	x29, x30, [sp, #16]             // 16-byte Folded Reload
	add	sp, sp, #32
	.cfi_def_cfa_offset 0
	.cfi_restore w30
	.cfi_restore w29
	mov	x1, #0                          // =0x0
	mov	x2, #0                          // =0x0
	mov	x3, #0                          // =0x0
	mov	x4, #0                          // =0x0
	mov	x5, #0                          // =0x0
	mov	x6, #0                          // =0x0
	mov	x7, #0                          // =0x0
	mov	x8, #0                          // =0x0
	mov	x16, #0                         // =0x0
	mov	x17, #0                         // =0x0
	movi	v0.2d, #0000000000000000
	movi	v1.2d, #0000000000000000
	movi	v2.2d, #0000000000000000
	movi	v3.2d, #0000000000000000
	movi	v4.2d, #0000000000000000
	movi	v5.2d, #0000000000000000
	movi	v6.2d, #0000000000000000
	movi	v7.2d, #0000000000000000
	movi	v16.2d, #0000000000000000
	movi	v17.2d, #0000000000000000
	movi	v18.2d, #0000000000000000
	movi	v19.2d, #0000000000000000
	movi	v20.2d, #0000000000000000
	movi	v21.2d, #0000000000000000
	movi	v22.2d, #0000000000000000
	movi	v23.2d, #0000000000000000
	movi	v24.2d, #0000000000000000
	movi	v25.2d, #0000000000000000
	movi	v26.2d, #0000000000000000
	movi	v27.2d, #0000000000000000
	movi	v28.2d, #0000000000000000
	movi	v29.2d, #0000000000000000
	movi	v30.2d, #0000000000000000
	movi	v31.2d, #0000000000000000
	ret
	dsb	sy
	isb
.Lfunc_end20:
	.size	isdigit, .Lfunc_end20-isdigit
	.cfi_endproc
                                        // -- End function
	.globl	isgraph                         // -- Begin function isgraph
	.p2align	2
	.type	isgraph,@function
isgraph:                                // @isgraph
	.cfi_startproc
// %bb.0:
	sub	sp, sp, #32
	.cfi_def_cfa_offset 32
	stp	x29, x30, [sp, #16]             // 16-byte Folded Spill
	add	x29, sp, #16
	.cfi_def_cfa w29, 16
	.cfi_offset w30, -8
	.cfi_offset w29, -16
	stur	w0, [x29, #-4]
	ldur	w8, [x29, #-4]
	subs	w8, w8, #33
	subs	w8, w8, #94
	cset	w0, lo
	.cfi_def_cfa wsp, 32
	ldp	x29, x30, [sp, #16]             // 16-byte Folded Reload
	add	sp, sp, #32
	.cfi_def_cfa_offset 0
	.cfi_restore w30
	.cfi_restore w29
	mov	x1, #0                          // =0x0
	mov	x2, #0                          // =0x0
	mov	x3, #0                          // =0x0
	mov	x4, #0                          // =0x0
	mov	x5, #0                          // =0x0
	mov	x6, #0                          // =0x0
	mov	x7, #0                          // =0x0
	mov	x8, #0                          // =0x0
	mov	x16, #0                         // =0x0
	mov	x17, #0                         // =0x0
	movi	v0.2d, #0000000000000000
	movi	v1.2d, #0000000000000000
	movi	v2.2d, #0000000000000000
	movi	v3.2d, #0000000000000000
	movi	v4.2d, #0000000000000000
	movi	v5.2d, #0000000000000000
	movi	v6.2d, #0000000000000000
	movi	v7.2d, #0000000000000000
	movi	v16.2d, #0000000000000000
	movi	v17.2d, #0000000000000000
	movi	v18.2d, #0000000000000000
	movi	v19.2d, #0000000000000000
	movi	v20.2d, #0000000000000000
	movi	v21.2d, #0000000000000000
	movi	v22.2d, #0000000000000000
	movi	v23.2d, #0000000000000000
	movi	v24.2d, #0000000000000000
	movi	v25.2d, #0000000000000000
	movi	v26.2d, #0000000000000000
	movi	v27.2d, #0000000000000000
	movi	v28.2d, #0000000000000000
	movi	v29.2d, #0000000000000000
	movi	v30.2d, #0000000000000000
	movi	v31.2d, #0000000000000000
	ret
	dsb	sy
	isb
.Lfunc_end21:
	.size	isgraph, .Lfunc_end21-isgraph
	.cfi_endproc
                                        // -- End function
	.globl	islower                         // -- Begin function islower
	.p2align	2
	.type	islower,@function
islower:                                // @islower
	.cfi_startproc
// %bb.0:
	sub	sp, sp, #32
	.cfi_def_cfa_offset 32
	stp	x29, x30, [sp, #16]             // 16-byte Folded Spill
	add	x29, sp, #16
	.cfi_def_cfa w29, 16
	.cfi_offset w30, -8
	.cfi_offset w29, -16
	stur	w0, [x29, #-4]
	ldur	w8, [x29, #-4]
	subs	w8, w8, #97
	subs	w8, w8, #26
	cset	w0, lo
	.cfi_def_cfa wsp, 32
	ldp	x29, x30, [sp, #16]             // 16-byte Folded Reload
	add	sp, sp, #32
	.cfi_def_cfa_offset 0
	.cfi_restore w30
	.cfi_restore w29
	mov	x1, #0                          // =0x0
	mov	x2, #0                          // =0x0
	mov	x3, #0                          // =0x0
	mov	x4, #0                          // =0x0
	mov	x5, #0                          // =0x0
	mov	x6, #0                          // =0x0
	mov	x7, #0                          // =0x0
	mov	x8, #0                          // =0x0
	mov	x16, #0                         // =0x0
	mov	x17, #0                         // =0x0
	movi	v0.2d, #0000000000000000
	movi	v1.2d, #0000000000000000
	movi	v2.2d, #0000000000000000
	movi	v3.2d, #0000000000000000
	movi	v4.2d, #0000000000000000
	movi	v5.2d, #0000000000000000
	movi	v6.2d, #0000000000000000
	movi	v7.2d, #0000000000000000
	movi	v16.2d, #0000000000000000
	movi	v17.2d, #0000000000000000
	movi	v18.2d, #0000000000000000
	movi	v19.2d, #0000000000000000
	movi	v20.2d, #0000000000000000
	movi	v21.2d, #0000000000000000
	movi	v22.2d, #0000000000000000
	movi	v23.2d, #0000000000000000
	movi	v24.2d, #0000000000000000
	movi	v25.2d, #0000000000000000
	movi	v26.2d, #0000000000000000
	movi	v27.2d, #0000000000000000
	movi	v28.2d, #0000000000000000
	movi	v29.2d, #0000000000000000
	movi	v30.2d, #0000000000000000
	movi	v31.2d, #0000000000000000
	ret
	dsb	sy
	isb
.Lfunc_end22:
	.size	islower, .Lfunc_end22-islower
	.cfi_endproc
                                        // -- End function
	.globl	isprint                         // -- Begin function isprint
	.p2align	2
	.type	isprint,@function
isprint:                                // @isprint
	.cfi_startproc
// %bb.0:
	sub	sp, sp, #32
	.cfi_def_cfa_offset 32
	stp	x29, x30, [sp, #16]             // 16-byte Folded Spill
	add	x29, sp, #16
	.cfi_def_cfa w29, 16
	.cfi_offset w30, -8
	.cfi_offset w29, -16
	stur	w0, [x29, #-4]
	ldur	w8, [x29, #-4]
	subs	w8, w8, #32
	subs	w8, w8, #95
	cset	w0, lo
	.cfi_def_cfa wsp, 32
	ldp	x29, x30, [sp, #16]             // 16-byte Folded Reload
	add	sp, sp, #32
	.cfi_def_cfa_offset 0
	.cfi_restore w30
	.cfi_restore w29
	mov	x1, #0                          // =0x0
	mov	x2, #0                          // =0x0
	mov	x3, #0                          // =0x0
	mov	x4, #0                          // =0x0
	mov	x5, #0                          // =0x0
	mov	x6, #0                          // =0x0
	mov	x7, #0                          // =0x0
	mov	x8, #0                          // =0x0
	mov	x16, #0                         // =0x0
	mov	x17, #0                         // =0x0
	movi	v0.2d, #0000000000000000
	movi	v1.2d, #0000000000000000
	movi	v2.2d, #0000000000000000
	movi	v3.2d, #0000000000000000
	movi	v4.2d, #0000000000000000
	movi	v5.2d, #0000000000000000
	movi	v6.2d, #0000000000000000
	movi	v7.2d, #0000000000000000
	movi	v16.2d, #0000000000000000
	movi	v17.2d, #0000000000000000
	movi	v18.2d, #0000000000000000
	movi	v19.2d, #0000000000000000
	movi	v20.2d, #0000000000000000
	movi	v21.2d, #0000000000000000
	movi	v22.2d, #0000000000000000
	movi	v23.2d, #0000000000000000
	movi	v24.2d, #0000000000000000
	movi	v25.2d, #0000000000000000
	movi	v26.2d, #0000000000000000
	movi	v27.2d, #0000000000000000
	movi	v28.2d, #0000000000000000
	movi	v29.2d, #0000000000000000
	movi	v30.2d, #0000000000000000
	movi	v31.2d, #0000000000000000
	ret
	dsb	sy
	isb
.Lfunc_end23:
	.size	isprint, .Lfunc_end23-isprint
	.cfi_endproc
                                        // -- End function
	.globl	isspace                         // -- Begin function isspace
	.p2align	2
	.type	isspace,@function
isspace:                                // @isspace
	.cfi_startproc
// %bb.0:
	sub	sp, sp, #32
	.cfi_def_cfa_offset 32
	stp	x29, x30, [sp, #16]             // 16-byte Folded Spill
	add	x29, sp, #16
	.cfi_def_cfa w29, 16
	.cfi_offset w30, -8
	.cfi_offset w29, -16
	stur	w0, [x29, #-4]
	ldur	w16, [x29, #-4]
	mov	w8, #1                          // =0x1
	subs	w16, w16, #32
	str	w8, [sp, #8]                    // 4-byte Folded Spill
	b.eq	.LBB24_2
	b	.LBB24_1
.LBB24_1:
	ldur	w8, [x29, #-4]
	subs	w8, w8, #9
	subs	w8, w8, #5
	cset	w8, lo
	str	w8, [sp, #8]                    // 4-byte Folded Spill
	b	.LBB24_2
.LBB24_2:
	ldr	w8, [sp, #8]                    // 4-byte Folded Reload
	and	w0, w8, #0x1
	.cfi_def_cfa wsp, 32
	ldp	x29, x30, [sp, #16]             // 16-byte Folded Reload
	add	sp, sp, #32
	.cfi_def_cfa_offset 0
	.cfi_restore w30
	.cfi_restore w29
	mov	x1, #0                          // =0x0
	mov	x2, #0                          // =0x0
	mov	x3, #0                          // =0x0
	mov	x4, #0                          // =0x0
	mov	x5, #0                          // =0x0
	mov	x6, #0                          // =0x0
	mov	x7, #0                          // =0x0
	mov	x8, #0                          // =0x0
	mov	x16, #0                         // =0x0
	mov	x17, #0                         // =0x0
	movi	v0.2d, #0000000000000000
	movi	v1.2d, #0000000000000000
	movi	v2.2d, #0000000000000000
	movi	v3.2d, #0000000000000000
	movi	v4.2d, #0000000000000000
	movi	v5.2d, #0000000000000000
	movi	v6.2d, #0000000000000000
	movi	v7.2d, #0000000000000000
	movi	v16.2d, #0000000000000000
	movi	v17.2d, #0000000000000000
	movi	v18.2d, #0000000000000000
	movi	v19.2d, #0000000000000000
	movi	v20.2d, #0000000000000000
	movi	v21.2d, #0000000000000000
	movi	v22.2d, #0000000000000000
	movi	v23.2d, #0000000000000000
	movi	v24.2d, #0000000000000000
	movi	v25.2d, #0000000000000000
	movi	v26.2d, #0000000000000000
	movi	v27.2d, #0000000000000000
	movi	v28.2d, #0000000000000000
	movi	v29.2d, #0000000000000000
	movi	v30.2d, #0000000000000000
	movi	v31.2d, #0000000000000000
	ret
	dsb	sy
	isb
.Lfunc_end24:
	.size	isspace, .Lfunc_end24-isspace
	.cfi_endproc
                                        // -- End function
	.globl	isupper                         // -- Begin function isupper
	.p2align	2
	.type	isupper,@function
isupper:                                // @isupper
	.cfi_startproc
// %bb.0:
	sub	sp, sp, #32
	.cfi_def_cfa_offset 32
	stp	x29, x30, [sp, #16]             // 16-byte Folded Spill
	add	x29, sp, #16
	.cfi_def_cfa w29, 16
	.cfi_offset w30, -8
	.cfi_offset w29, -16
	stur	w0, [x29, #-4]
	ldur	w8, [x29, #-4]
	subs	w8, w8, #65
	subs	w8, w8, #26
	cset	w0, lo
	.cfi_def_cfa wsp, 32
	ldp	x29, x30, [sp, #16]             // 16-byte Folded Reload
	add	sp, sp, #32
	.cfi_def_cfa_offset 0
	.cfi_restore w30
	.cfi_restore w29
	mov	x1, #0                          // =0x0
	mov	x2, #0                          // =0x0
	mov	x3, #0                          // =0x0
	mov	x4, #0                          // =0x0
	mov	x5, #0                          // =0x0
	mov	x6, #0                          // =0x0
	mov	x7, #0                          // =0x0
	mov	x8, #0                          // =0x0
	mov	x16, #0                         // =0x0
	mov	x17, #0                         // =0x0
	movi	v0.2d, #0000000000000000
	movi	v1.2d, #0000000000000000
	movi	v2.2d, #0000000000000000
	movi	v3.2d, #0000000000000000
	movi	v4.2d, #0000000000000000
	movi	v5.2d, #0000000000000000
	movi	v6.2d, #0000000000000000
	movi	v7.2d, #0000000000000000
	movi	v16.2d, #0000000000000000
	movi	v17.2d, #0000000000000000
	movi	v18.2d, #0000000000000000
	movi	v19.2d, #0000000000000000
	movi	v20.2d, #0000000000000000
	movi	v21.2d, #0000000000000000
	movi	v22.2d, #0000000000000000
	movi	v23.2d, #0000000000000000
	movi	v24.2d, #0000000000000000
	movi	v25.2d, #0000000000000000
	movi	v26.2d, #0000000000000000
	movi	v27.2d, #0000000000000000
	movi	v28.2d, #0000000000000000
	movi	v29.2d, #0000000000000000
	movi	v30.2d, #0000000000000000
	movi	v31.2d, #0000000000000000
	ret
	dsb	sy
	isb
.Lfunc_end25:
	.size	isupper, .Lfunc_end25-isupper
	.cfi_endproc
                                        // -- End function
	.globl	iswcntrl                        // -- Begin function iswcntrl
	.p2align	2
	.type	iswcntrl,@function
iswcntrl:                               // @iswcntrl
	.cfi_startproc
// %bb.0:
	sub	sp, sp, #32
	.cfi_def_cfa_offset 32
	stp	x29, x30, [sp, #16]             // 16-byte Folded Spill
	add	x29, sp, #16
	.cfi_def_cfa w29, 16
	.cfi_offset w30, -8
	.cfi_offset w29, -16
	stur	w0, [x29, #-4]
	ldur	w16, [x29, #-4]
	mov	w8, #1                          // =0x1
	subs	w16, w16, #32
	str	w8, [sp, #8]                    // 4-byte Folded Spill
	b.lo	.LBB26_4
	b	.LBB26_1
.LBB26_1:
	ldur	w8, [x29, #-4]
	subs	w16, w8, #127
	mov	w8, #1                          // =0x1
	subs	w16, w16, #33
	str	w8, [sp, #8]                    // 4-byte Folded Spill
	b.lo	.LBB26_4
	b	.LBB26_2
.LBB26_2:
	ldur	w8, [x29, #-4]
	mov	w16, #-8232                     // =0xffffdfd8
	add	w16, w8, w16
	mov	w8, #1                          // =0x1
	subs	w16, w16, #2
	str	w8, [sp, #8]                    // 4-byte Folded Spill
	b.lo	.LBB26_4
	b	.LBB26_3
.LBB26_3:
	ldur	w8, [x29, #-4]
	mov	w16, #-65529                    // =0xffff0007
	add	w8, w8, w16
	subs	w8, w8, #3
	cset	w8, lo
	str	w8, [sp, #8]                    // 4-byte Folded Spill
	b	.LBB26_4
.LBB26_4:
	ldr	w8, [sp, #8]                    // 4-byte Folded Reload
	and	w0, w8, #0x1
	.cfi_def_cfa wsp, 32
	ldp	x29, x30, [sp, #16]             // 16-byte Folded Reload
	add	sp, sp, #32
	.cfi_def_cfa_offset 0
	.cfi_restore w30
	.cfi_restore w29
	mov	x1, #0                          // =0x0
	mov	x2, #0                          // =0x0
	mov	x3, #0                          // =0x0
	mov	x4, #0                          // =0x0
	mov	x5, #0                          // =0x0
	mov	x6, #0                          // =0x0
	mov	x7, #0                          // =0x0
	mov	x8, #0                          // =0x0
	mov	x16, #0                         // =0x0
	mov	x17, #0                         // =0x0
	movi	v0.2d, #0000000000000000
	movi	v1.2d, #0000000000000000
	movi	v2.2d, #0000000000000000
	movi	v3.2d, #0000000000000000
	movi	v4.2d, #0000000000000000
	movi	v5.2d, #0000000000000000
	movi	v6.2d, #0000000000000000
	movi	v7.2d, #0000000000000000
	movi	v16.2d, #0000000000000000
	movi	v17.2d, #0000000000000000
	movi	v18.2d, #0000000000000000
	movi	v19.2d, #0000000000000000
	movi	v20.2d, #0000000000000000
	movi	v21.2d, #0000000000000000
	movi	v22.2d, #0000000000000000
	movi	v23.2d, #0000000000000000
	movi	v24.2d, #0000000000000000
	movi	v25.2d, #0000000000000000
	movi	v26.2d, #0000000000000000
	movi	v27.2d, #0000000000000000
	movi	v28.2d, #0000000000000000
	movi	v29.2d, #0000000000000000
	movi	v30.2d, #0000000000000000
	movi	v31.2d, #0000000000000000
	ret
	dsb	sy
	isb
.Lfunc_end26:
	.size	iswcntrl, .Lfunc_end26-iswcntrl
	.cfi_endproc
                                        // -- End function
	.globl	iswdigit                        // -- Begin function iswdigit
	.p2align	2
	.type	iswdigit,@function
iswdigit:                               // @iswdigit
	.cfi_startproc
// %bb.0:
	sub	sp, sp, #32
	.cfi_def_cfa_offset 32
	stp	x29, x30, [sp, #16]             // 16-byte Folded Spill
	add	x29, sp, #16
	.cfi_def_cfa w29, 16
	.cfi_offset w30, -8
	.cfi_offset w29, -16
	stur	w0, [x29, #-4]
	ldur	w8, [x29, #-4]
	subs	w8, w8, #48
	subs	w8, w8, #10
	cset	w0, lo
	.cfi_def_cfa wsp, 32
	ldp	x29, x30, [sp, #16]             // 16-byte Folded Reload
	add	sp, sp, #32
	.cfi_def_cfa_offset 0
	.cfi_restore w30
	.cfi_restore w29
	mov	x1, #0                          // =0x0
	mov	x2, #0                          // =0x0
	mov	x3, #0                          // =0x0
	mov	x4, #0                          // =0x0
	mov	x5, #0                          // =0x0
	mov	x6, #0                          // =0x0
	mov	x7, #0                          // =0x0
	mov	x8, #0                          // =0x0
	mov	x16, #0                         // =0x0
	mov	x17, #0                         // =0x0
	movi	v0.2d, #0000000000000000
	movi	v1.2d, #0000000000000000
	movi	v2.2d, #0000000000000000
	movi	v3.2d, #0000000000000000
	movi	v4.2d, #0000000000000000
	movi	v5.2d, #0000000000000000
	movi	v6.2d, #0000000000000000
	movi	v7.2d, #0000000000000000
	movi	v16.2d, #0000000000000000
	movi	v17.2d, #0000000000000000
	movi	v18.2d, #0000000000000000
	movi	v19.2d, #0000000000000000
	movi	v20.2d, #0000000000000000
	movi	v21.2d, #0000000000000000
	movi	v22.2d, #0000000000000000
	movi	v23.2d, #0000000000000000
	movi	v24.2d, #0000000000000000
	movi	v25.2d, #0000000000000000
	movi	v26.2d, #0000000000000000
	movi	v27.2d, #0000000000000000
	movi	v28.2d, #0000000000000000
	movi	v29.2d, #0000000000000000
	movi	v30.2d, #0000000000000000
	movi	v31.2d, #0000000000000000
	ret
	dsb	sy
	isb
.Lfunc_end27:
	.size	iswdigit, .Lfunc_end27-iswdigit
	.cfi_endproc
                                        // -- End function
	.globl	iswprint                        // -- Begin function iswprint
	.p2align	2
	.type	iswprint,@function
iswprint:                               // @iswprint
	.cfi_startproc
// %bb.0:
	sub	sp, sp, #32
	.cfi_def_cfa_offset 32
	stp	x29, x30, [sp, #16]             // 16-byte Folded Spill
	add	x29, sp, #16
	.cfi_def_cfa w29, 16
	.cfi_offset w30, -8
	.cfi_offset w29, -16
	str	w0, [sp, #8]
	ldr	w8, [sp, #8]
	subs	w8, w8, #254
	b.hi	.LBB28_2
	b	.LBB28_1
.LBB28_1:
	ldr	w8, [sp, #8]
	add	w8, w8, #1
	and	w8, w8, #0x7f
	subs	w8, w8, #32
	cset	w8, gt
	stur	w8, [x29, #-4]
	b	.LBB28_10
.LBB28_2:
	ldr	w8, [sp, #8]
	lsr	w8, w8, #3
	subs	w8, w8, #1029
	b.lo	.LBB28_5
	b	.LBB28_3
.LBB28_3:
	ldr	w8, [sp, #8]
	mov	w16, #-8234                     // =0xffffdfd6
	add	w8, w8, w16
	mov	w16, #47062                     // =0xb7d6
	subs	w8, w8, w16
	b.lo	.LBB28_5
	b	.LBB28_4
.LBB28_4:
	ldr	w8, [sp, #8]
	subs	w8, w8, #14, lsl #12            // =57344
	mov	w16, #8184                      // =0x1ff8
	subs	w8, w8, w16
	b.hi	.LBB28_6
	b	.LBB28_5
.LBB28_5:
	mov	w8, #1                          // =0x1
	stur	w8, [x29, #-4]
	b	.LBB28_10
.LBB28_6:
	ldr	w8, [sp, #8]
	mov	w16, #-65532                    // =0xffff0004
	add	w8, w8, w16
	mov	w16, #3                         // =0x3
	movk	w16, #16, lsl #16
	subs	w8, w8, w16
	b.hi	.LBB28_8
	b	.LBB28_7
.LBB28_7:
	ldr	w16, [sp, #8]
	mov	w8, #65534                      // =0xfffe
	bic	w8, w8, w16
	cbnz	w8, .LBB28_9
	b	.LBB28_8
.LBB28_8:
	mov	w8, wzr
	stur	w8, [x29, #-4]
	b	.LBB28_10
.LBB28_9:
	mov	w8, #1                          // =0x1
	stur	w8, [x29, #-4]
	b	.LBB28_10
.LBB28_10:
	ldur	w0, [x29, #-4]
	.cfi_def_cfa wsp, 32
	ldp	x29, x30, [sp, #16]             // 16-byte Folded Reload
	add	sp, sp, #32
	.cfi_def_cfa_offset 0
	.cfi_restore w30
	.cfi_restore w29
	mov	x1, #0                          // =0x0
	mov	x2, #0                          // =0x0
	mov	x3, #0                          // =0x0
	mov	x4, #0                          // =0x0
	mov	x5, #0                          // =0x0
	mov	x6, #0                          // =0x0
	mov	x7, #0                          // =0x0
	mov	x8, #0                          // =0x0
	mov	x16, #0                         // =0x0
	mov	x17, #0                         // =0x0
	movi	v0.2d, #0000000000000000
	movi	v1.2d, #0000000000000000
	movi	v2.2d, #0000000000000000
	movi	v3.2d, #0000000000000000
	movi	v4.2d, #0000000000000000
	movi	v5.2d, #0000000000000000
	movi	v6.2d, #0000000000000000
	movi	v7.2d, #0000000000000000
	movi	v16.2d, #0000000000000000
	movi	v17.2d, #0000000000000000
	movi	v18.2d, #0000000000000000
	movi	v19.2d, #0000000000000000
	movi	v20.2d, #0000000000000000
	movi	v21.2d, #0000000000000000
	movi	v22.2d, #0000000000000000
	movi	v23.2d, #0000000000000000
	movi	v24.2d, #0000000000000000
	movi	v25.2d, #0000000000000000
	movi	v26.2d, #0000000000000000
	movi	v27.2d, #0000000000000000
	movi	v28.2d, #0000000000000000
	movi	v29.2d, #0000000000000000
	movi	v30.2d, #0000000000000000
	movi	v31.2d, #0000000000000000
	ret
	dsb	sy
	isb
.Lfunc_end28:
	.size	iswprint, .Lfunc_end28-iswprint
	.cfi_endproc
                                        // -- End function
	.globl	iswxdigit                       // -- Begin function iswxdigit
	.p2align	2
	.type	iswxdigit,@function
iswxdigit:                              // @iswxdigit
	.cfi_startproc
// %bb.0:
	sub	sp, sp, #32
	.cfi_def_cfa_offset 32
	stp	x29, x30, [sp, #16]             // 16-byte Folded Spill
	add	x29, sp, #16
	.cfi_def_cfa w29, 16
	.cfi_offset w30, -8
	.cfi_offset w29, -16
	stur	w0, [x29, #-4]
	ldur	w8, [x29, #-4]
	subs	w16, w8, #48
	mov	w8, #1                          // =0x1
	subs	w16, w16, #10
	str	w8, [sp, #8]                    // 4-byte Folded Spill
	b.lo	.LBB29_2
	b	.LBB29_1
.LBB29_1:
	ldur	w8, [x29, #-4]
	orr	w8, w8, #0x20
	subs	w8, w8, #97
	subs	w8, w8, #6
	cset	w8, lo
	str	w8, [sp, #8]                    // 4-byte Folded Spill
	b	.LBB29_2
.LBB29_2:
	ldr	w8, [sp, #8]                    // 4-byte Folded Reload
	and	w0, w8, #0x1
	.cfi_def_cfa wsp, 32
	ldp	x29, x30, [sp, #16]             // 16-byte Folded Reload
	add	sp, sp, #32
	.cfi_def_cfa_offset 0
	.cfi_restore w30
	.cfi_restore w29
	mov	x1, #0                          // =0x0
	mov	x2, #0                          // =0x0
	mov	x3, #0                          // =0x0
	mov	x4, #0                          // =0x0
	mov	x5, #0                          // =0x0
	mov	x6, #0                          // =0x0
	mov	x7, #0                          // =0x0
	mov	x8, #0                          // =0x0
	mov	x16, #0                         // =0x0
	mov	x17, #0                         // =0x0
	movi	v0.2d, #0000000000000000
	movi	v1.2d, #0000000000000000
	movi	v2.2d, #0000000000000000
	movi	v3.2d, #0000000000000000
	movi	v4.2d, #0000000000000000
	movi	v5.2d, #0000000000000000
	movi	v6.2d, #0000000000000000
	movi	v7.2d, #0000000000000000
	movi	v16.2d, #0000000000000000
	movi	v17.2d, #0000000000000000
	movi	v18.2d, #0000000000000000
	movi	v19.2d, #0000000000000000
	movi	v20.2d, #0000000000000000
	movi	v21.2d, #0000000000000000
	movi	v22.2d, #0000000000000000
	movi	v23.2d, #0000000000000000
	movi	v24.2d, #0000000000000000
	movi	v25.2d, #0000000000000000
	movi	v26.2d, #0000000000000000
	movi	v27.2d, #0000000000000000
	movi	v28.2d, #0000000000000000
	movi	v29.2d, #0000000000000000
	movi	v30.2d, #0000000000000000
	movi	v31.2d, #0000000000000000
	ret
	dsb	sy
	isb
.Lfunc_end29:
	.size	iswxdigit, .Lfunc_end29-iswxdigit
	.cfi_endproc
                                        // -- End function
	.globl	toascii                         // -- Begin function toascii
	.p2align	2
	.type	toascii,@function
toascii:                                // @toascii
	.cfi_startproc
// %bb.0:
	sub	sp, sp, #32
	.cfi_def_cfa_offset 32
	stp	x29, x30, [sp, #16]             // 16-byte Folded Spill
	add	x29, sp, #16
	.cfi_def_cfa w29, 16
	.cfi_offset w30, -8
	.cfi_offset w29, -16
	stur	w0, [x29, #-4]
	ldur	w8, [x29, #-4]
	and	w0, w8, #0x7f
	.cfi_def_cfa wsp, 32
	ldp	x29, x30, [sp, #16]             // 16-byte Folded Reload
	add	sp, sp, #32
	.cfi_def_cfa_offset 0
	.cfi_restore w30
	.cfi_restore w29
	mov	x1, #0                          // =0x0
	mov	x2, #0                          // =0x0
	mov	x3, #0                          // =0x0
	mov	x4, #0                          // =0x0
	mov	x5, #0                          // =0x0
	mov	x6, #0                          // =0x0
	mov	x7, #0                          // =0x0
	mov	x8, #0                          // =0x0
	mov	x16, #0                         // =0x0
	mov	x17, #0                         // =0x0
	movi	v0.2d, #0000000000000000
	movi	v1.2d, #0000000000000000
	movi	v2.2d, #0000000000000000
	movi	v3.2d, #0000000000000000
	movi	v4.2d, #0000000000000000
	movi	v5.2d, #0000000000000000
	movi	v6.2d, #0000000000000000
	movi	v7.2d, #0000000000000000
	movi	v16.2d, #0000000000000000
	movi	v17.2d, #0000000000000000
	movi	v18.2d, #0000000000000000
	movi	v19.2d, #0000000000000000
	movi	v20.2d, #0000000000000000
	movi	v21.2d, #0000000000000000
	movi	v22.2d, #0000000000000000
	movi	v23.2d, #0000000000000000
	movi	v24.2d, #0000000000000000
	movi	v25.2d, #0000000000000000
	movi	v26.2d, #0000000000000000
	movi	v27.2d, #0000000000000000
	movi	v28.2d, #0000000000000000
	movi	v29.2d, #0000000000000000
	movi	v30.2d, #0000000000000000
	movi	v31.2d, #0000000000000000
	ret
	dsb	sy
	isb
.Lfunc_end30:
	.size	toascii, .Lfunc_end30-toascii
	.cfi_endproc
                                        // -- End function
	.globl	fdim                            // -- Begin function fdim
	.p2align	2
	.type	fdim,@function
fdim:                                   // @fdim
	.cfi_startproc
// %bb.0:
	sub	sp, sp, #48
	.cfi_def_cfa_offset 48
	stp	x29, x30, [sp, #32]             // 16-byte Folded Spill
	add	x29, sp, #32
	.cfi_def_cfa w29, 16
	.cfi_offset w30, -8
	.cfi_offset w29, -16
	str	d0, [sp, #16]
	str	d1, [sp, #8]
	ldr	d0, [sp, #16]
	fcmp	d0, d0
	b.vc	.LBB31_2
	b	.LBB31_1
.LBB31_1:
	ldr	d0, [sp, #16]
	stur	d0, [x29, #-8]
	b	.LBB31_8
.LBB31_2:
	ldr	d0, [sp, #8]
	fcmp	d0, d0
	b.vc	.LBB31_4
	b	.LBB31_3
.LBB31_3:
	ldr	d0, [sp, #8]
	stur	d0, [x29, #-8]
	b	.LBB31_8
.LBB31_4:
	ldr	d0, [sp, #16]
	ldr	d1, [sp, #8]
	fcmp	d0, d1
	b.le	.LBB31_6
	b	.LBB31_5
.LBB31_5:
	ldr	d0, [sp, #16]
	ldr	d1, [sp, #8]
	fsub	d0, d0, d1
	str	d0, [sp]                        // 8-byte Folded Spill
	b	.LBB31_7
.LBB31_6:
	fmov	d0, xzr
	str	d0, [sp]                        // 8-byte Folded Spill
	b	.LBB31_7
.LBB31_7:
	ldr	d0, [sp]                        // 8-byte Folded Reload
	stur	d0, [x29, #-8]
	b	.LBB31_8
.LBB31_8:
	ldur	d0, [x29, #-8]
	.cfi_def_cfa wsp, 48
	ldp	x29, x30, [sp, #32]             // 16-byte Folded Reload
	add	sp, sp, #48
	.cfi_def_cfa_offset 0
	.cfi_restore w30
	.cfi_restore w29
	mov	x0, #0                          // =0x0
	mov	x1, #0                          // =0x0
	mov	x2, #0                          // =0x0
	mov	x3, #0                          // =0x0
	mov	x4, #0                          // =0x0
	mov	x5, #0                          // =0x0
	mov	x6, #0                          // =0x0
	mov	x7, #0                          // =0x0
	mov	x8, #0                          // =0x0
	mov	x16, #0                         // =0x0
	mov	x17, #0                         // =0x0
	movi	v1.2d, #0000000000000000
	movi	v2.2d, #0000000000000000
	movi	v3.2d, #0000000000000000
	movi	v4.2d, #0000000000000000
	movi	v5.2d, #0000000000000000
	movi	v6.2d, #0000000000000000
	movi	v7.2d, #0000000000000000
	movi	v16.2d, #0000000000000000
	movi	v17.2d, #0000000000000000
	movi	v18.2d, #0000000000000000
	movi	v19.2d, #0000000000000000
	movi	v20.2d, #0000000000000000
	movi	v21.2d, #0000000000000000
	movi	v22.2d, #0000000000000000
	movi	v23.2d, #0000000000000000
	movi	v24.2d, #0000000000000000
	movi	v25.2d, #0000000000000000
	movi	v26.2d, #0000000000000000
	movi	v27.2d, #0000000000000000
	movi	v28.2d, #0000000000000000
	movi	v29.2d, #0000000000000000
	movi	v30.2d, #0000000000000000
	movi	v31.2d, #0000000000000000
	ret
	dsb	sy
	isb
.Lfunc_end31:
	.size	fdim, .Lfunc_end31-fdim
	.cfi_endproc
                                        // -- End function
	.globl	fdimf                           // -- Begin function fdimf
	.p2align	2
	.type	fdimf,@function
fdimf:                                  // @fdimf
	.cfi_startproc
// %bb.0:
	sub	sp, sp, #32
	.cfi_def_cfa_offset 32
	stp	x29, x30, [sp, #16]             // 16-byte Folded Spill
	add	x29, sp, #16
	.cfi_def_cfa w29, 16
	.cfi_offset w30, -8
	.cfi_offset w29, -16
	str	s0, [sp, #8]
	str	s1, [sp, #4]
	ldr	s0, [sp, #8]
	fcmp	s0, s0
	b.vc	.LBB32_2
	b	.LBB32_1
.LBB32_1:
	ldr	s0, [sp, #8]
	stur	s0, [x29, #-4]
	b	.LBB32_8
.LBB32_2:
	ldr	s0, [sp, #4]
	fcmp	s0, s0
	b.vc	.LBB32_4
	b	.LBB32_3
.LBB32_3:
	ldr	s0, [sp, #4]
	stur	s0, [x29, #-4]
	b	.LBB32_8
.LBB32_4:
	ldr	s0, [sp, #8]
	ldr	s1, [sp, #4]
	fcmp	s0, s1
	b.le	.LBB32_6
	b	.LBB32_5
.LBB32_5:
	ldr	s0, [sp, #8]
	ldr	s1, [sp, #4]
	fsub	s0, s0, s1
	str	s0, [sp]                        // 4-byte Folded Spill
	b	.LBB32_7
.LBB32_6:
	fmov	s0, wzr
	str	s0, [sp]                        // 4-byte Folded Spill
	b	.LBB32_7
.LBB32_7:
	ldr	s0, [sp]                        // 4-byte Folded Reload
	stur	s0, [x29, #-4]
	b	.LBB32_8
.LBB32_8:
	ldur	s0, [x29, #-4]
	.cfi_def_cfa wsp, 32
	ldp	x29, x30, [sp, #16]             // 16-byte Folded Reload
	add	sp, sp, #32
	.cfi_def_cfa_offset 0
	.cfi_restore w30
	.cfi_restore w29
	mov	x0, #0                          // =0x0
	mov	x1, #0                          // =0x0
	mov	x2, #0                          // =0x0
	mov	x3, #0                          // =0x0
	mov	x4, #0                          // =0x0
	mov	x5, #0                          // =0x0
	mov	x6, #0                          // =0x0
	mov	x7, #0                          // =0x0
	mov	x8, #0                          // =0x0
	mov	x16, #0                         // =0x0
	mov	x17, #0                         // =0x0
	movi	v1.2d, #0000000000000000
	movi	v2.2d, #0000000000000000
	movi	v3.2d, #0000000000000000
	movi	v4.2d, #0000000000000000
	movi	v5.2d, #0000000000000000
	movi	v6.2d, #0000000000000000
	movi	v7.2d, #0000000000000000
	movi	v16.2d, #0000000000000000
	movi	v17.2d, #0000000000000000
	movi	v18.2d, #0000000000000000
	movi	v19.2d, #0000000000000000
	movi	v20.2d, #0000000000000000
	movi	v21.2d, #0000000000000000
	movi	v22.2d, #0000000000000000
	movi	v23.2d, #0000000000000000
	movi	v24.2d, #0000000000000000
	movi	v25.2d, #0000000000000000
	movi	v26.2d, #0000000000000000
	movi	v27.2d, #0000000000000000
	movi	v28.2d, #0000000000000000
	movi	v29.2d, #0000000000000000
	movi	v30.2d, #0000000000000000
	movi	v31.2d, #0000000000000000
	ret
	dsb	sy
	isb
.Lfunc_end32:
	.size	fdimf, .Lfunc_end32-fdimf
	.cfi_endproc
                                        // -- End function
	.globl	fmax                            // -- Begin function fmax
	.p2align	2
	.type	fmax,@function
fmax:                                   // @fmax
	.cfi_startproc
// %bb.0:
	sub	sp, sp, #64
	.cfi_def_cfa_offset 64
	stp	x29, x30, [sp, #48]             // 16-byte Folded Spill
	add	x29, sp, #48
	.cfi_def_cfa w29, 16
	.cfi_offset w30, -8
	.cfi_offset w29, -16
	stur	d0, [x29, #-16]
	str	d1, [sp, #24]
	ldur	d0, [x29, #-16]
	fcmp	d0, d0
	b.vc	.LBB33_2
	b	.LBB33_1
.LBB33_1:
	ldr	d0, [sp, #24]
	stur	d0, [x29, #-8]
	b	.LBB33_13
.LBB33_2:
	ldr	d0, [sp, #24]
	fcmp	d0, d0
	b.vc	.LBB33_4
	b	.LBB33_3
.LBB33_3:
	ldur	d0, [x29, #-16]
	stur	d0, [x29, #-8]
	b	.LBB33_13
.LBB33_4:
	ldur	x8, [x29, #-16]
	lsr	x8, x8, #63
                                        // kill: def $w8 killed $w8 killed $x8
	ldr	x16, [sp, #24]
	lsr	x16, x16, #63
                                        // kill: def $w16 killed $w16 killed $x16
	subs	w8, w8, w16
	b.eq	.LBB33_9
	b	.LBB33_5
.LBB33_5:
	ldur	x8, [x29, #-16]
	tbz	x8, #63, .LBB33_7
	b	.LBB33_6
.LBB33_6:
	ldr	d0, [sp, #24]
	str	d0, [sp, #16]                   // 8-byte Folded Spill
	b	.LBB33_8
.LBB33_7:
	ldur	d0, [x29, #-16]
	str	d0, [sp, #16]                   // 8-byte Folded Spill
	b	.LBB33_8
.LBB33_8:
	ldr	d0, [sp, #16]                   // 8-byte Folded Reload
	stur	d0, [x29, #-8]
	b	.LBB33_13
.LBB33_9:
	ldur	d0, [x29, #-16]
	ldr	d1, [sp, #24]
	fcmp	d0, d1
	b.pl	.LBB33_11
	b	.LBB33_10
.LBB33_10:
	ldr	d0, [sp, #24]
	str	d0, [sp, #8]                    // 8-byte Folded Spill
	b	.LBB33_12
.LBB33_11:
	ldur	d0, [x29, #-16]
	str	d0, [sp, #8]                    // 8-byte Folded Spill
	b	.LBB33_12
.LBB33_12:
	ldr	d0, [sp, #8]                    // 8-byte Folded Reload
	stur	d0, [x29, #-8]
	b	.LBB33_13
.LBB33_13:
	ldur	d0, [x29, #-8]
	.cfi_def_cfa wsp, 64
	ldp	x29, x30, [sp, #48]             // 16-byte Folded Reload
	add	sp, sp, #64
	.cfi_def_cfa_offset 0
	.cfi_restore w30
	.cfi_restore w29
	mov	x0, #0                          // =0x0
	mov	x1, #0                          // =0x0
	mov	x2, #0                          // =0x0
	mov	x3, #0                          // =0x0
	mov	x4, #0                          // =0x0
	mov	x5, #0                          // =0x0
	mov	x6, #0                          // =0x0
	mov	x7, #0                          // =0x0
	mov	x8, #0                          // =0x0
	mov	x16, #0                         // =0x0
	mov	x17, #0                         // =0x0
	movi	v1.2d, #0000000000000000
	movi	v2.2d, #0000000000000000
	movi	v3.2d, #0000000000000000
	movi	v4.2d, #0000000000000000
	movi	v5.2d, #0000000000000000
	movi	v6.2d, #0000000000000000
	movi	v7.2d, #0000000000000000
	movi	v16.2d, #0000000000000000
	movi	v17.2d, #0000000000000000
	movi	v18.2d, #0000000000000000
	movi	v19.2d, #0000000000000000
	movi	v20.2d, #0000000000000000
	movi	v21.2d, #0000000000000000
	movi	v22.2d, #0000000000000000
	movi	v23.2d, #0000000000000000
	movi	v24.2d, #0000000000000000
	movi	v25.2d, #0000000000000000
	movi	v26.2d, #0000000000000000
	movi	v27.2d, #0000000000000000
	movi	v28.2d, #0000000000000000
	movi	v29.2d, #0000000000000000
	movi	v30.2d, #0000000000000000
	movi	v31.2d, #0000000000000000
	ret
	dsb	sy
	isb
.Lfunc_end33:
	.size	fmax, .Lfunc_end33-fmax
	.cfi_endproc
                                        // -- End function
	.globl	fmaxf                           // -- Begin function fmaxf
	.p2align	2
	.type	fmaxf,@function
fmaxf:                                  // @fmaxf
	.cfi_startproc
// %bb.0:
	sub	sp, sp, #48
	.cfi_def_cfa_offset 48
	stp	x29, x30, [sp, #32]             // 16-byte Folded Spill
	add	x29, sp, #32
	.cfi_def_cfa w29, 16
	.cfi_offset w30, -8
	.cfi_offset w29, -16
	stur	s0, [x29, #-8]
	stur	s1, [x29, #-12]
	ldur	s0, [x29, #-8]
	fcmp	s0, s0
	b.vc	.LBB34_2
	b	.LBB34_1
.LBB34_1:
	ldur	s0, [x29, #-12]
	stur	s0, [x29, #-4]
	b	.LBB34_13
.LBB34_2:
	ldur	s0, [x29, #-12]
	fcmp	s0, s0
	b.vc	.LBB34_4
	b	.LBB34_3
.LBB34_3:
	ldur	s0, [x29, #-8]
	stur	s0, [x29, #-4]
	b	.LBB34_13
.LBB34_4:
	ldur	w8, [x29, #-8]
	lsr	w8, w8, #31
	ldur	w16, [x29, #-12]
	subs	w8, w8, w16, lsr #31
	b.eq	.LBB34_9
	b	.LBB34_5
.LBB34_5:
	ldur	w8, [x29, #-8]
	tbz	w8, #31, .LBB34_7
	b	.LBB34_6
.LBB34_6:
	ldur	s0, [x29, #-12]
	str	s0, [sp, #16]                   // 4-byte Folded Spill
	b	.LBB34_8
.LBB34_7:
	ldur	s0, [x29, #-8]
	str	s0, [sp, #16]                   // 4-byte Folded Spill
	b	.LBB34_8
.LBB34_8:
	ldr	s0, [sp, #16]                   // 4-byte Folded Reload
	stur	s0, [x29, #-4]
	b	.LBB34_13
.LBB34_9:
	ldur	s0, [x29, #-8]
	ldur	s1, [x29, #-12]
	fcmp	s0, s1
	b.pl	.LBB34_11
	b	.LBB34_10
.LBB34_10:
	ldur	s0, [x29, #-12]
	str	s0, [sp, #12]                   // 4-byte Folded Spill
	b	.LBB34_12
.LBB34_11:
	ldur	s0, [x29, #-8]
	str	s0, [sp, #12]                   // 4-byte Folded Spill
	b	.LBB34_12
.LBB34_12:
	ldr	s0, [sp, #12]                   // 4-byte Folded Reload
	stur	s0, [x29, #-4]
	b	.LBB34_13
.LBB34_13:
	ldur	s0, [x29, #-4]
	.cfi_def_cfa wsp, 48
	ldp	x29, x30, [sp, #32]             // 16-byte Folded Reload
	add	sp, sp, #48
	.cfi_def_cfa_offset 0
	.cfi_restore w30
	.cfi_restore w29
	mov	x0, #0                          // =0x0
	mov	x1, #0                          // =0x0
	mov	x2, #0                          // =0x0
	mov	x3, #0                          // =0x0
	mov	x4, #0                          // =0x0
	mov	x5, #0                          // =0x0
	mov	x6, #0                          // =0x0
	mov	x7, #0                          // =0x0
	mov	x8, #0                          // =0x0
	mov	x16, #0                         // =0x0
	mov	x17, #0                         // =0x0
	movi	v1.2d, #0000000000000000
	movi	v2.2d, #0000000000000000
	movi	v3.2d, #0000000000000000
	movi	v4.2d, #0000000000000000
	movi	v5.2d, #0000000000000000
	movi	v6.2d, #0000000000000000
	movi	v7.2d, #0000000000000000
	movi	v16.2d, #0000000000000000
	movi	v17.2d, #0000000000000000
	movi	v18.2d, #0000000000000000
	movi	v19.2d, #0000000000000000
	movi	v20.2d, #0000000000000000
	movi	v21.2d, #0000000000000000
	movi	v22.2d, #0000000000000000
	movi	v23.2d, #0000000000000000
	movi	v24.2d, #0000000000000000
	movi	v25.2d, #0000000000000000
	movi	v26.2d, #0000000000000000
	movi	v27.2d, #0000000000000000
	movi	v28.2d, #0000000000000000
	movi	v29.2d, #0000000000000000
	movi	v30.2d, #0000000000000000
	movi	v31.2d, #0000000000000000
	ret
	dsb	sy
	isb
.Lfunc_end34:
	.size	fmaxf, .Lfunc_end34-fmaxf
	.cfi_endproc
                                        // -- End function
	.globl	fmaxl                           // -- Begin function fmaxl
	.p2align	2
	.type	fmaxl,@function
fmaxl:                                  // @fmaxl
	.cfi_startproc
// %bb.0:
	sub	sp, sp, #96
	.cfi_def_cfa_offset 96
	stp	x29, x30, [sp, #80]             // 16-byte Folded Spill
	add	x29, sp, #80
	.cfi_def_cfa w29, 16
	.cfi_offset w30, -8
	.cfi_offset w29, -16
	stur	q0, [x29, #-32]
	str	q1, [sp, #32]
	ldur	q1, [x29, #-32]
	str	q1, [sp, #-16]!
	ldr	q0, [sp], #16
	bl	__unordtf2
	cbz	w0, .LBB35_2
	b	.LBB35_1
.LBB35_1:
	ldr	q0, [sp, #32]
	stur	q0, [x29, #-16]
	b	.LBB35_13
.LBB35_2:
	ldr	q1, [sp, #32]
	str	q1, [sp, #-16]!
	ldr	q0, [sp], #16
	bl	__unordtf2
	cbz	w0, .LBB35_4
	b	.LBB35_3
.LBB35_3:
	ldur	q0, [x29, #-32]
	stur	q0, [x29, #-16]
	b	.LBB35_13
.LBB35_4:
	ldur	x8, [x29, #-24]
	lsr	x8, x8, #63
                                        // kill: def $w8 killed $w8 killed $x8
	ldr	x16, [sp, #40]
	lsr	x16, x16, #63
                                        // kill: def $w16 killed $w16 killed $x16
	subs	w8, w8, w16
	b.eq	.LBB35_9
	b	.LBB35_5
.LBB35_5:
	ldur	x8, [x29, #-24]
	tbz	x8, #63, .LBB35_7
	b	.LBB35_6
.LBB35_6:
	ldr	q0, [sp, #32]
	str	q0, [sp, #16]                   // 16-byte Folded Spill
	b	.LBB35_8
.LBB35_7:
	ldur	q0, [x29, #-32]
	str	q0, [sp, #16]                   // 16-byte Folded Spill
	b	.LBB35_8
.LBB35_8:
	ldr	q0, [sp, #16]                   // 16-byte Folded Reload
	stur	q0, [x29, #-16]
	b	.LBB35_13
.LBB35_9:
	ldur	q0, [x29, #-32]
	ldr	q1, [sp, #32]
	bl	__lttf2
	subs	w8, w0, #0
	b.ge	.LBB35_11
	b	.LBB35_10
.LBB35_10:
	ldr	q0, [sp, #32]
	str	q0, [sp]                        // 16-byte Folded Spill
	b	.LBB35_12
.LBB35_11:
	ldur	q0, [x29, #-32]
	str	q0, [sp]                        // 16-byte Folded Spill
	b	.LBB35_12
.LBB35_12:
	ldr	q0, [sp]                        // 16-byte Folded Reload
	stur	q0, [x29, #-16]
	b	.LBB35_13
.LBB35_13:
	ldur	q0, [x29, #-16]
	.cfi_def_cfa wsp, 96
	ldp	x29, x30, [sp, #80]             // 16-byte Folded Reload
	add	sp, sp, #96
	.cfi_def_cfa_offset 0
	.cfi_restore w30
	.cfi_restore w29
	mov	x0, #0                          // =0x0
	mov	x1, #0                          // =0x0
	mov	x2, #0                          // =0x0
	mov	x3, #0                          // =0x0
	mov	x4, #0                          // =0x0
	mov	x5, #0                          // =0x0
	mov	x6, #0                          // =0x0
	mov	x7, #0                          // =0x0
	mov	x8, #0                          // =0x0
	mov	x16, #0                         // =0x0
	mov	x17, #0                         // =0x0
	movi	v1.2d, #0000000000000000
	movi	v2.2d, #0000000000000000
	movi	v3.2d, #0000000000000000
	movi	v4.2d, #0000000000000000
	movi	v5.2d, #0000000000000000
	movi	v6.2d, #0000000000000000
	movi	v7.2d, #0000000000000000
	movi	v16.2d, #0000000000000000
	movi	v17.2d, #0000000000000000
	movi	v18.2d, #0000000000000000
	movi	v19.2d, #0000000000000000
	movi	v20.2d, #0000000000000000
	movi	v21.2d, #0000000000000000
	movi	v22.2d, #0000000000000000
	movi	v23.2d, #0000000000000000
	movi	v24.2d, #0000000000000000
	movi	v25.2d, #0000000000000000
	movi	v26.2d, #0000000000000000
	movi	v27.2d, #0000000000000000
	movi	v28.2d, #0000000000000000
	movi	v29.2d, #0000000000000000
	movi	v30.2d, #0000000000000000
	movi	v31.2d, #0000000000000000
	ret
	dsb	sy
	isb
.Lfunc_end35:
	.size	fmaxl, .Lfunc_end35-fmaxl
	.cfi_endproc
                                        // -- End function
	.globl	fmin                            // -- Begin function fmin
	.p2align	2
	.type	fmin,@function
fmin:                                   // @fmin
	.cfi_startproc
// %bb.0:
	sub	sp, sp, #64
	.cfi_def_cfa_offset 64
	stp	x29, x30, [sp, #48]             // 16-byte Folded Spill
	add	x29, sp, #48
	.cfi_def_cfa w29, 16
	.cfi_offset w30, -8
	.cfi_offset w29, -16
	stur	d0, [x29, #-16]
	str	d1, [sp, #24]
	ldur	d0, [x29, #-16]
	fcmp	d0, d0
	b.vc	.LBB36_2
	b	.LBB36_1
.LBB36_1:
	ldr	d0, [sp, #24]
	stur	d0, [x29, #-8]
	b	.LBB36_13
.LBB36_2:
	ldr	d0, [sp, #24]
	fcmp	d0, d0
	b.vc	.LBB36_4
	b	.LBB36_3
.LBB36_3:
	ldur	d0, [x29, #-16]
	stur	d0, [x29, #-8]
	b	.LBB36_13
.LBB36_4:
	ldur	x8, [x29, #-16]
	lsr	x8, x8, #63
                                        // kill: def $w8 killed $w8 killed $x8
	ldr	x16, [sp, #24]
	lsr	x16, x16, #63
                                        // kill: def $w16 killed $w16 killed $x16
	subs	w8, w8, w16
	b.eq	.LBB36_9
	b	.LBB36_5
.LBB36_5:
	ldur	x8, [x29, #-16]
	tbz	x8, #63, .LBB36_7
	b	.LBB36_6
.LBB36_6:
	ldur	d0, [x29, #-16]
	str	d0, [sp, #16]                   // 8-byte Folded Spill
	b	.LBB36_8
.LBB36_7:
	ldr	d0, [sp, #24]
	str	d0, [sp, #16]                   // 8-byte Folded Spill
	b	.LBB36_8
.LBB36_8:
	ldr	d0, [sp, #16]                   // 8-byte Folded Reload
	stur	d0, [x29, #-8]
	b	.LBB36_13
.LBB36_9:
	ldur	d0, [x29, #-16]
	ldr	d1, [sp, #24]
	fcmp	d0, d1
	b.pl	.LBB36_11
	b	.LBB36_10
.LBB36_10:
	ldur	d0, [x29, #-16]
	str	d0, [sp, #8]                    // 8-byte Folded Spill
	b	.LBB36_12
.LBB36_11:
	ldr	d0, [sp, #24]
	str	d0, [sp, #8]                    // 8-byte Folded Spill
	b	.LBB36_12
.LBB36_12:
	ldr	d0, [sp, #8]                    // 8-byte Folded Reload
	stur	d0, [x29, #-8]
	b	.LBB36_13
.LBB36_13:
	ldur	d0, [x29, #-8]
	.cfi_def_cfa wsp, 64
	ldp	x29, x30, [sp, #48]             // 16-byte Folded Reload
	add	sp, sp, #64
	.cfi_def_cfa_offset 0
	.cfi_restore w30
	.cfi_restore w29
	mov	x0, #0                          // =0x0
	mov	x1, #0                          // =0x0
	mov	x2, #0                          // =0x0
	mov	x3, #0                          // =0x0
	mov	x4, #0                          // =0x0
	mov	x5, #0                          // =0x0
	mov	x6, #0                          // =0x0
	mov	x7, #0                          // =0x0
	mov	x8, #0                          // =0x0
	mov	x16, #0                         // =0x0
	mov	x17, #0                         // =0x0
	movi	v1.2d, #0000000000000000
	movi	v2.2d, #0000000000000000
	movi	v3.2d, #0000000000000000
	movi	v4.2d, #0000000000000000
	movi	v5.2d, #0000000000000000
	movi	v6.2d, #0000000000000000
	movi	v7.2d, #0000000000000000
	movi	v16.2d, #0000000000000000
	movi	v17.2d, #0000000000000000
	movi	v18.2d, #0000000000000000
	movi	v19.2d, #0000000000000000
	movi	v20.2d, #0000000000000000
	movi	v21.2d, #0000000000000000
	movi	v22.2d, #0000000000000000
	movi	v23.2d, #0000000000000000
	movi	v24.2d, #0000000000000000
	movi	v25.2d, #0000000000000000
	movi	v26.2d, #0000000000000000
	movi	v27.2d, #0000000000000000
	movi	v28.2d, #0000000000000000
	movi	v29.2d, #0000000000000000
	movi	v30.2d, #0000000000000000
	movi	v31.2d, #0000000000000000
	ret
	dsb	sy
	isb
.Lfunc_end36:
	.size	fmin, .Lfunc_end36-fmin
	.cfi_endproc
                                        // -- End function
	.globl	fminf                           // -- Begin function fminf
	.p2align	2
	.type	fminf,@function
fminf:                                  // @fminf
	.cfi_startproc
// %bb.0:
	sub	sp, sp, #48
	.cfi_def_cfa_offset 48
	stp	x29, x30, [sp, #32]             // 16-byte Folded Spill
	add	x29, sp, #32
	.cfi_def_cfa w29, 16
	.cfi_offset w30, -8
	.cfi_offset w29, -16
	stur	s0, [x29, #-8]
	stur	s1, [x29, #-12]
	ldur	s0, [x29, #-8]
	fcmp	s0, s0
	b.vc	.LBB37_2
	b	.LBB37_1
.LBB37_1:
	ldur	s0, [x29, #-12]
	stur	s0, [x29, #-4]
	b	.LBB37_13
.LBB37_2:
	ldur	s0, [x29, #-12]
	fcmp	s0, s0
	b.vc	.LBB37_4
	b	.LBB37_3
.LBB37_3:
	ldur	s0, [x29, #-8]
	stur	s0, [x29, #-4]
	b	.LBB37_13
.LBB37_4:
	ldur	w8, [x29, #-8]
	lsr	w8, w8, #31
	ldur	w16, [x29, #-12]
	subs	w8, w8, w16, lsr #31
	b.eq	.LBB37_9
	b	.LBB37_5
.LBB37_5:
	ldur	w8, [x29, #-8]
	tbz	w8, #31, .LBB37_7
	b	.LBB37_6
.LBB37_6:
	ldur	s0, [x29, #-8]
	str	s0, [sp, #16]                   // 4-byte Folded Spill
	b	.LBB37_8
.LBB37_7:
	ldur	s0, [x29, #-12]
	str	s0, [sp, #16]                   // 4-byte Folded Spill
	b	.LBB37_8
.LBB37_8:
	ldr	s0, [sp, #16]                   // 4-byte Folded Reload
	stur	s0, [x29, #-4]
	b	.LBB37_13
.LBB37_9:
	ldur	s0, [x29, #-8]
	ldur	s1, [x29, #-12]
	fcmp	s0, s1
	b.pl	.LBB37_11
	b	.LBB37_10
.LBB37_10:
	ldur	s0, [x29, #-8]
	str	s0, [sp, #12]                   // 4-byte Folded Spill
	b	.LBB37_12
.LBB37_11:
	ldur	s0, [x29, #-12]
	str	s0, [sp, #12]                   // 4-byte Folded Spill
	b	.LBB37_12
.LBB37_12:
	ldr	s0, [sp, #12]                   // 4-byte Folded Reload
	stur	s0, [x29, #-4]
	b	.LBB37_13
.LBB37_13:
	ldur	s0, [x29, #-4]
	.cfi_def_cfa wsp, 48
	ldp	x29, x30, [sp, #32]             // 16-byte Folded Reload
	add	sp, sp, #48
	.cfi_def_cfa_offset 0
	.cfi_restore w30
	.cfi_restore w29
	mov	x0, #0                          // =0x0
	mov	x1, #0                          // =0x0
	mov	x2, #0                          // =0x0
	mov	x3, #0                          // =0x0
	mov	x4, #0                          // =0x0
	mov	x5, #0                          // =0x0
	mov	x6, #0                          // =0x0
	mov	x7, #0                          // =0x0
	mov	x8, #0                          // =0x0
	mov	x16, #0                         // =0x0
	mov	x17, #0                         // =0x0
	movi	v1.2d, #0000000000000000
	movi	v2.2d, #0000000000000000
	movi	v3.2d, #0000000000000000
	movi	v4.2d, #0000000000000000
	movi	v5.2d, #0000000000000000
	movi	v6.2d, #0000000000000000
	movi	v7.2d, #0000000000000000
	movi	v16.2d, #0000000000000000
	movi	v17.2d, #0000000000000000
	movi	v18.2d, #0000000000000000
	movi	v19.2d, #0000000000000000
	movi	v20.2d, #0000000000000000
	movi	v21.2d, #0000000000000000
	movi	v22.2d, #0000000000000000
	movi	v23.2d, #0000000000000000
	movi	v24.2d, #0000000000000000
	movi	v25.2d, #0000000000000000
	movi	v26.2d, #0000000000000000
	movi	v27.2d, #0000000000000000
	movi	v28.2d, #0000000000000000
	movi	v29.2d, #0000000000000000
	movi	v30.2d, #0000000000000000
	movi	v31.2d, #0000000000000000
	ret
	dsb	sy
	isb
.Lfunc_end37:
	.size	fminf, .Lfunc_end37-fminf
	.cfi_endproc
                                        // -- End function
	.globl	fminl                           // -- Begin function fminl
	.p2align	2
	.type	fminl,@function
fminl:                                  // @fminl
	.cfi_startproc
// %bb.0:
	sub	sp, sp, #96
	.cfi_def_cfa_offset 96
	stp	x29, x30, [sp, #80]             // 16-byte Folded Spill
	add	x29, sp, #80
	.cfi_def_cfa w29, 16
	.cfi_offset w30, -8
	.cfi_offset w29, -16
	stur	q0, [x29, #-32]
	str	q1, [sp, #32]
	ldur	q1, [x29, #-32]
	str	q1, [sp, #-16]!
	ldr	q0, [sp], #16
	bl	__unordtf2
	cbz	w0, .LBB38_2
	b	.LBB38_1
.LBB38_1:
	ldr	q0, [sp, #32]
	stur	q0, [x29, #-16]
	b	.LBB38_13
.LBB38_2:
	ldr	q1, [sp, #32]
	str	q1, [sp, #-16]!
	ldr	q0, [sp], #16
	bl	__unordtf2
	cbz	w0, .LBB38_4
	b	.LBB38_3
.LBB38_3:
	ldur	q0, [x29, #-32]
	stur	q0, [x29, #-16]
	b	.LBB38_13
.LBB38_4:
	ldur	x8, [x29, #-24]
	lsr	x8, x8, #63
                                        // kill: def $w8 killed $w8 killed $x8
	ldr	x16, [sp, #40]
	lsr	x16, x16, #63
                                        // kill: def $w16 killed $w16 killed $x16
	subs	w8, w8, w16
	b.eq	.LBB38_9
	b	.LBB38_5
.LBB38_5:
	ldur	x8, [x29, #-24]
	tbz	x8, #63, .LBB38_7
	b	.LBB38_6
.LBB38_6:
	ldur	q0, [x29, #-32]
	str	q0, [sp, #16]                   // 16-byte Folded Spill
	b	.LBB38_8
.LBB38_7:
	ldr	q0, [sp, #32]
	str	q0, [sp, #16]                   // 16-byte Folded Spill
	b	.LBB38_8
.LBB38_8:
	ldr	q0, [sp, #16]                   // 16-byte Folded Reload
	stur	q0, [x29, #-16]
	b	.LBB38_13
.LBB38_9:
	ldur	q0, [x29, #-32]
	ldr	q1, [sp, #32]
	bl	__lttf2
	subs	w8, w0, #0
	b.ge	.LBB38_11
	b	.LBB38_10
.LBB38_10:
	ldur	q0, [x29, #-32]
	str	q0, [sp]                        // 16-byte Folded Spill
	b	.LBB38_12
.LBB38_11:
	ldr	q0, [sp, #32]
	str	q0, [sp]                        // 16-byte Folded Spill
	b	.LBB38_12
.LBB38_12:
	ldr	q0, [sp]                        // 16-byte Folded Reload
	stur	q0, [x29, #-16]
	b	.LBB38_13
.LBB38_13:
	ldur	q0, [x29, #-16]
	.cfi_def_cfa wsp, 96
	ldp	x29, x30, [sp, #80]             // 16-byte Folded Reload
	add	sp, sp, #96
	.cfi_def_cfa_offset 0
	.cfi_restore w30
	.cfi_restore w29
	mov	x0, #0                          // =0x0
	mov	x1, #0                          // =0x0
	mov	x2, #0                          // =0x0
	mov	x3, #0                          // =0x0
	mov	x4, #0                          // =0x0
	mov	x5, #0                          // =0x0
	mov	x6, #0                          // =0x0
	mov	x7, #0                          // =0x0
	mov	x8, #0                          // =0x0
	mov	x16, #0                         // =0x0
	mov	x17, #0                         // =0x0
	movi	v1.2d, #0000000000000000
	movi	v2.2d, #0000000000000000
	movi	v3.2d, #0000000000000000
	movi	v4.2d, #0000000000000000
	movi	v5.2d, #0000000000000000
	movi	v6.2d, #0000000000000000
	movi	v7.2d, #0000000000000000
	movi	v16.2d, #0000000000000000
	movi	v17.2d, #0000000000000000
	movi	v18.2d, #0000000000000000
	movi	v19.2d, #0000000000000000
	movi	v20.2d, #0000000000000000
	movi	v21.2d, #0000000000000000
	movi	v22.2d, #0000000000000000
	movi	v23.2d, #0000000000000000
	movi	v24.2d, #0000000000000000
	movi	v25.2d, #0000000000000000
	movi	v26.2d, #0000000000000000
	movi	v27.2d, #0000000000000000
	movi	v28.2d, #0000000000000000
	movi	v29.2d, #0000000000000000
	movi	v30.2d, #0000000000000000
	movi	v31.2d, #0000000000000000
	ret
	dsb	sy
	isb
.Lfunc_end38:
	.size	fminl, .Lfunc_end38-fminl
	.cfi_endproc
                                        // -- End function
	.globl	l64a                            // -- Begin function l64a
	.p2align	2
	.type	l64a,@function
l64a:                                   // @l64a
	.cfi_startproc
// %bb.0:
	sub	sp, sp, #48
	.cfi_def_cfa_offset 48
	stp	x29, x30, [sp, #32]             // 16-byte Folded Spill
	add	x29, sp, #32
	.cfi_def_cfa w29, 16
	.cfi_offset w30, -8
	.cfi_offset w29, -16
	stur	x0, [x29, #-8]
	ldur	x8, [x29, #-8]
                                        // kill: def $w8 killed $w8 killed $x8
	str	w8, [sp, #12]
	movz	x8, #:abs_g0_nc:l64a.s
	movk	x8, #:abs_g1_nc:l64a.s
	movk	x8, #:abs_g2_nc:l64a.s
	movk	x8, #:abs_g3:l64a.s
	str	x8, [sp, #16]
	b	.LBB39_1
.LBB39_1:                               // =>This Inner Loop Header: Depth=1
	ldr	w8, [sp, #12]
	cbz	w8, .LBB39_4
	b	.LBB39_2
.LBB39_2:                               //   in Loop: Header=BB39_1 Depth=1
	ldr	w8, [sp, #12]
	and	w16, w8, #0x3f
	movz	x8, #:abs_g0_nc:digits
	movk	x8, #:abs_g1_nc:digits
	movk	x8, #:abs_g2_nc:digits
	movk	x8, #:abs_g3:digits
	ldrb	w8, [x8, w16, uxtw]
	ldr	x16, [sp, #16]
	strb	w8, [x16]
	b	.LBB39_3
.LBB39_3:                               //   in Loop: Header=BB39_1 Depth=1
	ldr	x8, [sp, #16]
	add	x8, x8, #1
	str	x8, [sp, #16]
	ldr	w8, [sp, #12]
	lsr	w8, w8, #6
	str	w8, [sp, #12]
	b	.LBB39_1
.LBB39_4:
	ldr	x16, [sp, #16]
	mov	w8, wzr
	strb	w8, [x16]
	movz	x0, #:abs_g0_nc:l64a.s
	movk	x0, #:abs_g1_nc:l64a.s
	movk	x0, #:abs_g2_nc:l64a.s
	movk	x0, #:abs_g3:l64a.s
	.cfi_def_cfa wsp, 48
	ldp	x29, x30, [sp, #32]             // 16-byte Folded Reload
	add	sp, sp, #48
	.cfi_def_cfa_offset 0
	.cfi_restore w30
	.cfi_restore w29
	mov	x1, #0                          // =0x0
	mov	x2, #0                          // =0x0
	mov	x3, #0                          // =0x0
	mov	x4, #0                          // =0x0
	mov	x5, #0                          // =0x0
	mov	x6, #0                          // =0x0
	mov	x7, #0                          // =0x0
	mov	x8, #0                          // =0x0
	mov	x16, #0                         // =0x0
	mov	x17, #0                         // =0x0
	movi	v0.2d, #0000000000000000
	movi	v1.2d, #0000000000000000
	movi	v2.2d, #0000000000000000
	movi	v3.2d, #0000000000000000
	movi	v4.2d, #0000000000000000
	movi	v5.2d, #0000000000000000
	movi	v6.2d, #0000000000000000
	movi	v7.2d, #0000000000000000
	movi	v16.2d, #0000000000000000
	movi	v17.2d, #0000000000000000
	movi	v18.2d, #0000000000000000
	movi	v19.2d, #0000000000000000
	movi	v20.2d, #0000000000000000
	movi	v21.2d, #0000000000000000
	movi	v22.2d, #0000000000000000
	movi	v23.2d, #0000000000000000
	movi	v24.2d, #0000000000000000
	movi	v25.2d, #0000000000000000
	movi	v26.2d, #0000000000000000
	movi	v27.2d, #0000000000000000
	movi	v28.2d, #0000000000000000
	movi	v29.2d, #0000000000000000
	movi	v30.2d, #0000000000000000
	movi	v31.2d, #0000000000000000
	ret
	dsb	sy
	isb
.Lfunc_end39:
	.size	l64a, .Lfunc_end39-l64a
	.cfi_endproc
                                        // -- End function
	.globl	srand                           // -- Begin function srand
	.p2align	2
	.type	srand,@function
srand:                                  // @srand
	.cfi_startproc
// %bb.0:
	sub	sp, sp, #32
	.cfi_def_cfa_offset 32
	stp	x29, x30, [sp, #16]             // 16-byte Folded Spill
	add	x29, sp, #16
	.cfi_def_cfa w29, 16
	.cfi_offset w30, -8
	.cfi_offset w29, -16
	stur	w0, [x29, #-4]
	ldur	w8, [x29, #-4]
	subs	w8, w8, #1
	mov	w8, w8
                                        // kill: def $x8 killed $w8
	movz	x16, #:abs_g0_nc:seed
	movk	x16, #:abs_g1_nc:seed
	movk	x16, #:abs_g2_nc:seed
	movk	x16, #:abs_g3:seed
	str	x8, [x16]
	.cfi_def_cfa wsp, 32
	ldp	x29, x30, [sp, #16]             // 16-byte Folded Reload
	add	sp, sp, #32
	.cfi_def_cfa_offset 0
	.cfi_restore w30
	.cfi_restore w29
	mov	x0, #0                          // =0x0
	mov	x1, #0                          // =0x0
	mov	x2, #0                          // =0x0
	mov	x3, #0                          // =0x0
	mov	x4, #0                          // =0x0
	mov	x5, #0                          // =0x0
	mov	x6, #0                          // =0x0
	mov	x7, #0                          // =0x0
	mov	x8, #0                          // =0x0
	mov	x16, #0                         // =0x0
	mov	x17, #0                         // =0x0
	movi	v0.2d, #0000000000000000
	movi	v1.2d, #0000000000000000
	movi	v2.2d, #0000000000000000
	movi	v3.2d, #0000000000000000
	movi	v4.2d, #0000000000000000
	movi	v5.2d, #0000000000000000
	movi	v6.2d, #0000000000000000
	movi	v7.2d, #0000000000000000
	movi	v16.2d, #0000000000000000
	movi	v17.2d, #0000000000000000
	movi	v18.2d, #0000000000000000
	movi	v19.2d, #0000000000000000
	movi	v20.2d, #0000000000000000
	movi	v21.2d, #0000000000000000
	movi	v22.2d, #0000000000000000
	movi	v23.2d, #0000000000000000
	movi	v24.2d, #0000000000000000
	movi	v25.2d, #0000000000000000
	movi	v26.2d, #0000000000000000
	movi	v27.2d, #0000000000000000
	movi	v28.2d, #0000000000000000
	movi	v29.2d, #0000000000000000
	movi	v30.2d, #0000000000000000
	movi	v31.2d, #0000000000000000
	ret
	dsb	sy
	isb
.Lfunc_end40:
	.size	srand, .Lfunc_end40-srand
	.cfi_endproc
                                        // -- End function
	.globl	rand                            // -- Begin function rand
	.p2align	2
	.type	rand,@function
rand:                                   // @rand
	.cfi_startproc
// %bb.0:
	stp	x29, x30, [sp, #-16]!           // 16-byte Folded Spill
	.cfi_def_cfa_offset 16
	mov	x29, sp
	.cfi_def_cfa w29, 16
	.cfi_offset w30, -8
	.cfi_offset w29, -16
	movz	x8, #:abs_g0_nc:seed
	movk	x8, #:abs_g1_nc:seed
	movk	x8, #:abs_g2_nc:seed
	movk	x8, #:abs_g3:seed
	ldr	x16, [x8]
	mov	x17, #32557                     // =0x7f2d
	movk	x17, #19605, lsl #16
	movk	x17, #62509, lsl #32
	movk	x17, #22609, lsl #48
	mul	x16, x16, x17
	add	x16, x16, #1
	str	x16, [x8]
	ldr	x8, [x8]
	lsr	x8, x8, #33
	mov	w0, w8
	.cfi_def_cfa wsp, 16
	ldp	x29, x30, [sp], #16             // 16-byte Folded Reload
	.cfi_def_cfa_offset 0
	.cfi_restore w30
	.cfi_restore w29
	mov	x1, #0                          // =0x0
	mov	x2, #0                          // =0x0
	mov	x3, #0                          // =0x0
	mov	x4, #0                          // =0x0
	mov	x5, #0                          // =0x0
	mov	x6, #0                          // =0x0
	mov	x7, #0                          // =0x0
	mov	x8, #0                          // =0x0
	mov	x16, #0                         // =0x0
	mov	x17, #0                         // =0x0
	movi	v0.2d, #0000000000000000
	movi	v1.2d, #0000000000000000
	movi	v2.2d, #0000000000000000
	movi	v3.2d, #0000000000000000
	movi	v4.2d, #0000000000000000
	movi	v5.2d, #0000000000000000
	movi	v6.2d, #0000000000000000
	movi	v7.2d, #0000000000000000
	movi	v16.2d, #0000000000000000
	movi	v17.2d, #0000000000000000
	movi	v18.2d, #0000000000000000
	movi	v19.2d, #0000000000000000
	movi	v20.2d, #0000000000000000
	movi	v21.2d, #0000000000000000
	movi	v22.2d, #0000000000000000
	movi	v23.2d, #0000000000000000
	movi	v24.2d, #0000000000000000
	movi	v25.2d, #0000000000000000
	movi	v26.2d, #0000000000000000
	movi	v27.2d, #0000000000000000
	movi	v28.2d, #0000000000000000
	movi	v29.2d, #0000000000000000
	movi	v30.2d, #0000000000000000
	movi	v31.2d, #0000000000000000
	ret
	dsb	sy
	isb
.Lfunc_end41:
	.size	rand, .Lfunc_end41-rand
	.cfi_endproc
                                        // -- End function
	.globl	insque                          // -- Begin function insque
	.p2align	2
	.type	insque,@function
insque:                                 // @insque
	.cfi_startproc
// %bb.0:
	sub	sp, sp, #48
	.cfi_def_cfa_offset 48
	stp	x29, x30, [sp, #32]             // 16-byte Folded Spill
	add	x29, sp, #32
	.cfi_def_cfa w29, 16
	.cfi_offset w30, -8
	.cfi_offset w29, -16
	stur	x0, [x29, #-8]
	str	x1, [sp, #16]
	ldur	x8, [x29, #-8]
	str	x8, [sp, #8]
	ldr	x8, [sp, #16]
	str	x8, [sp]
	ldr	x8, [sp]
	cbnz	x8, .LBB42_2
	b	.LBB42_1
.LBB42_1:
	ldr	x16, [sp, #8]
	mov	x8, xzr
	str	x8, [x16, #8]
	ldr	x16, [sp, #8]
	str	x8, [x16]
	b	.LBB42_4
.LBB42_2:
	ldr	x8, [sp]
	ldr	x8, [x8]
	ldr	x16, [sp, #8]
	str	x8, [x16]
	ldr	x8, [sp]
	ldr	x16, [sp, #8]
	str	x8, [x16, #8]
	ldr	x8, [sp, #8]
	ldr	x16, [sp]
	str	x8, [x16]
	ldr	x8, [sp, #8]
	ldr	x8, [x8]
	cbz	x8, .LBB42_4
	b	.LBB42_3
.LBB42_3:
	ldr	x8, [sp, #8]
	ldr	x16, [x8]
	str	x8, [x16, #8]
	b	.LBB42_4
.LBB42_4:
	.cfi_def_cfa wsp, 48
	ldp	x29, x30, [sp, #32]             // 16-byte Folded Reload
	add	sp, sp, #48
	.cfi_def_cfa_offset 0
	.cfi_restore w30
	.cfi_restore w29
	mov	x0, #0                          // =0x0
	mov	x1, #0                          // =0x0
	mov	x2, #0                          // =0x0
	mov	x3, #0                          // =0x0
	mov	x4, #0                          // =0x0
	mov	x5, #0                          // =0x0
	mov	x6, #0                          // =0x0
	mov	x7, #0                          // =0x0
	mov	x8, #0                          // =0x0
	mov	x16, #0                         // =0x0
	mov	x17, #0                         // =0x0
	movi	v0.2d, #0000000000000000
	movi	v1.2d, #0000000000000000
	movi	v2.2d, #0000000000000000
	movi	v3.2d, #0000000000000000
	movi	v4.2d, #0000000000000000
	movi	v5.2d, #0000000000000000
	movi	v6.2d, #0000000000000000
	movi	v7.2d, #0000000000000000
	movi	v16.2d, #0000000000000000
	movi	v17.2d, #0000000000000000
	movi	v18.2d, #0000000000000000
	movi	v19.2d, #0000000000000000
	movi	v20.2d, #0000000000000000
	movi	v21.2d, #0000000000000000
	movi	v22.2d, #0000000000000000
	movi	v23.2d, #0000000000000000
	movi	v24.2d, #0000000000000000
	movi	v25.2d, #0000000000000000
	movi	v26.2d, #0000000000000000
	movi	v27.2d, #0000000000000000
	movi	v28.2d, #0000000000000000
	movi	v29.2d, #0000000000000000
	movi	v30.2d, #0000000000000000
	movi	v31.2d, #0000000000000000
	ret
	dsb	sy
	isb
.Lfunc_end42:
	.size	insque, .Lfunc_end42-insque
	.cfi_endproc
                                        // -- End function
	.globl	remque                          // -- Begin function remque
	.p2align	2
	.type	remque,@function
remque:                                 // @remque
	.cfi_startproc
// %bb.0:
	sub	sp, sp, #32
	.cfi_def_cfa_offset 32
	stp	x29, x30, [sp, #16]             // 16-byte Folded Spill
	add	x29, sp, #16
	.cfi_def_cfa w29, 16
	.cfi_offset w30, -8
	.cfi_offset w29, -16
	str	x0, [sp, #8]
	ldr	x8, [sp, #8]
	str	x8, [sp]
	ldr	x8, [sp]
	ldr	x8, [x8]
	cbz	x8, .LBB43_2
	b	.LBB43_1
.LBB43_1:
	ldr	x16, [sp]
	ldr	x8, [x16, #8]
	ldr	x16, [x16]
	str	x8, [x16, #8]
	b	.LBB43_2
.LBB43_2:
	ldr	x8, [sp]
	ldr	x8, [x8, #8]
	cbz	x8, .LBB43_4
	b	.LBB43_3
.LBB43_3:
	ldr	x16, [sp]
	ldr	x8, [x16]
	ldr	x16, [x16, #8]
	str	x8, [x16]
	b	.LBB43_4
.LBB43_4:
	.cfi_def_cfa wsp, 32
	ldp	x29, x30, [sp, #16]             // 16-byte Folded Reload
	add	sp, sp, #32
	.cfi_def_cfa_offset 0
	.cfi_restore w30
	.cfi_restore w29
	mov	x0, #0                          // =0x0
	mov	x1, #0                          // =0x0
	mov	x2, #0                          // =0x0
	mov	x3, #0                          // =0x0
	mov	x4, #0                          // =0x0
	mov	x5, #0                          // =0x0
	mov	x6, #0                          // =0x0
	mov	x7, #0                          // =0x0
	mov	x8, #0                          // =0x0
	mov	x16, #0                         // =0x0
	mov	x17, #0                         // =0x0
	movi	v0.2d, #0000000000000000
	movi	v1.2d, #0000000000000000
	movi	v2.2d, #0000000000000000
	movi	v3.2d, #0000000000000000
	movi	v4.2d, #0000000000000000
	movi	v5.2d, #0000000000000000
	movi	v6.2d, #0000000000000000
	movi	v7.2d, #0000000000000000
	movi	v16.2d, #0000000000000000
	movi	v17.2d, #0000000000000000
	movi	v18.2d, #0000000000000000
	movi	v19.2d, #0000000000000000
	movi	v20.2d, #0000000000000000
	movi	v21.2d, #0000000000000000
	movi	v22.2d, #0000000000000000
	movi	v23.2d, #0000000000000000
	movi	v24.2d, #0000000000000000
	movi	v25.2d, #0000000000000000
	movi	v26.2d, #0000000000000000
	movi	v27.2d, #0000000000000000
	movi	v28.2d, #0000000000000000
	movi	v29.2d, #0000000000000000
	movi	v30.2d, #0000000000000000
	movi	v31.2d, #0000000000000000
	ret
	dsb	sy
	isb
.Lfunc_end43:
	.size	remque, .Lfunc_end43-remque
	.cfi_endproc
                                        // -- End function
	.globl	lsearch                         // -- Begin function lsearch
	.p2align	2
	.type	lsearch,@function
lsearch:                                // @lsearch
	.cfi_startproc
// %bb.0:
	sub	sp, sp, #112
	.cfi_def_cfa_offset 112
	stp	x29, x30, [sp, #96]             // 16-byte Folded Spill
	add	x29, sp, #96
	.cfi_def_cfa w29, 16
	.cfi_offset w30, -8
	.cfi_offset w29, -16
	stur	x0, [x29, #-16]
	stur	x1, [x29, #-24]
	stur	x2, [x29, #-32]
	stur	x3, [x29, #-40]
	str	x4, [sp, #48]
	ldur	x8, [x29, #-40]
	str	x8, [sp, #16]                   // 8-byte Folded Spill
	ldur	x8, [x29, #-24]
	str	x8, [sp, #40]
	ldur	x8, [x29, #-32]
	ldr	x8, [x8]
	str	x8, [sp, #32]
	mov	x8, xzr
	str	x8, [sp, #24]
	b	.LBB44_1
.LBB44_1:                               // =>This Inner Loop Header: Depth=1
	ldr	x8, [sp, #24]
	ldr	x16, [sp, #32]
	subs	x8, x8, x16
	b.hs	.LBB44_6
	b	.LBB44_2
.LBB44_2:                               //   in Loop: Header=BB44_1 Depth=1
	ldr	x1, [sp, #16]                   // 8-byte Folded Reload
	ldr	x8, [sp, #48]
	ldur	x0, [x29, #-16]
	ldr	x16, [sp, #40]
	ldr	x17, [sp, #24]
	mul	x17, x17, x1
	add	x1, x16, x17
	bl	__llvm_slsblr_thunk_x8
	cbnz	w0, .LBB44_4
	b	.LBB44_3
.LBB44_3:
	ldr	x17, [sp, #16]                  // 8-byte Folded Reload
	ldr	x8, [sp, #40]
	ldr	x16, [sp, #24]
	mul	x16, x16, x17
	add	x8, x8, x16
	stur	x8, [x29, #-8]
	b	.LBB44_7
.LBB44_4:                               //   in Loop: Header=BB44_1 Depth=1
	b	.LBB44_5
.LBB44_5:                               //   in Loop: Header=BB44_1 Depth=1
	ldr	x8, [sp, #24]
	add	x8, x8, #1
	str	x8, [sp, #24]
	b	.LBB44_1
.LBB44_6:
	ldr	x17, [sp, #16]                  // 8-byte Folded Reload
	ldr	x8, [sp, #32]
	add	x8, x8, #1
	ldur	x16, [x29, #-32]
	str	x8, [x16]
	ldr	x8, [sp, #40]
	ldr	x16, [sp, #32]
	mul	x16, x16, x17
	add	x0, x8, x16
	str	x0, [sp, #8]                    // 8-byte Folded Spill
	ldur	x1, [x29, #-16]
	ldur	x2, [x29, #-40]
	bl	memcpy
	ldr	x8, [sp, #8]                    // 8-byte Folded Reload
	stur	x8, [x29, #-8]
	b	.LBB44_7
.LBB44_7:
	ldur	x0, [x29, #-8]
	.cfi_def_cfa wsp, 112
	ldp	x29, x30, [sp, #96]             // 16-byte Folded Reload
	add	sp, sp, #112
	.cfi_def_cfa_offset 0
	.cfi_restore w30
	.cfi_restore w29
	mov	x1, #0                          // =0x0
	mov	x2, #0                          // =0x0
	mov	x3, #0                          // =0x0
	mov	x4, #0                          // =0x0
	mov	x5, #0                          // =0x0
	mov	x6, #0                          // =0x0
	mov	x7, #0                          // =0x0
	mov	x8, #0                          // =0x0
	mov	x16, #0                         // =0x0
	mov	x17, #0                         // =0x0
	movi	v0.2d, #0000000000000000
	movi	v1.2d, #0000000000000000
	movi	v2.2d, #0000000000000000
	movi	v3.2d, #0000000000000000
	movi	v4.2d, #0000000000000000
	movi	v5.2d, #0000000000000000
	movi	v6.2d, #0000000000000000
	movi	v7.2d, #0000000000000000
	movi	v16.2d, #0000000000000000
	movi	v17.2d, #0000000000000000
	movi	v18.2d, #0000000000000000
	movi	v19.2d, #0000000000000000
	movi	v20.2d, #0000000000000000
	movi	v21.2d, #0000000000000000
	movi	v22.2d, #0000000000000000
	movi	v23.2d, #0000000000000000
	movi	v24.2d, #0000000000000000
	movi	v25.2d, #0000000000000000
	movi	v26.2d, #0000000000000000
	movi	v27.2d, #0000000000000000
	movi	v28.2d, #0000000000000000
	movi	v29.2d, #0000000000000000
	movi	v30.2d, #0000000000000000
	movi	v31.2d, #0000000000000000
	ret
	dsb	sy
	isb
.Lfunc_end44:
	.size	lsearch, .Lfunc_end44-lsearch
	.cfi_endproc
                                        // -- End function
	.globl	lfind                           // -- Begin function lfind
	.p2align	2
	.type	lfind,@function
lfind:                                  // @lfind
	.cfi_startproc
// %bb.0:
	sub	sp, sp, #96
	.cfi_def_cfa_offset 96
	stp	x29, x30, [sp, #80]             // 16-byte Folded Spill
	add	x29, sp, #80
	.cfi_def_cfa w29, 16
	.cfi_offset w30, -8
	.cfi_offset w29, -16
	stur	x0, [x29, #-16]
	stur	x1, [x29, #-24]
	stur	x2, [x29, #-32]
	str	x3, [sp, #40]
	str	x4, [sp, #32]
	ldr	x8, [sp, #40]
	str	x8, [sp]                        // 8-byte Folded Spill
	ldur	x8, [x29, #-24]
	str	x8, [sp, #24]
	ldur	x8, [x29, #-32]
	ldr	x8, [x8]
	str	x8, [sp, #16]
	mov	x8, xzr
	str	x8, [sp, #8]
	b	.LBB46_1
.LBB46_1:                               // =>This Inner Loop Header: Depth=1
	ldr	x8, [sp, #8]
	ldr	x16, [sp, #16]
	subs	x8, x8, x16
	b.hs	.LBB46_6
	b	.LBB46_2
.LBB46_2:                               //   in Loop: Header=BB46_1 Depth=1
	ldr	x1, [sp]                        // 8-byte Folded Reload
	ldr	x8, [sp, #32]
	ldur	x0, [x29, #-16]
	ldr	x16, [sp, #24]
	ldr	x17, [sp, #8]
	mul	x17, x17, x1
	add	x1, x16, x17
	bl	__llvm_slsblr_thunk_x8
	cbnz	w0, .LBB46_4
	b	.LBB46_3
.LBB46_3:
	ldr	x17, [sp]                       // 8-byte Folded Reload
	ldr	x8, [sp, #24]
	ldr	x16, [sp, #8]
	mul	x16, x16, x17
	add	x8, x8, x16
	stur	x8, [x29, #-8]
	b	.LBB46_7
.LBB46_4:                               //   in Loop: Header=BB46_1 Depth=1
	b	.LBB46_5
.LBB46_5:                               //   in Loop: Header=BB46_1 Depth=1
	ldr	x8, [sp, #8]
	add	x8, x8, #1
	str	x8, [sp, #8]
	b	.LBB46_1
.LBB46_6:
	mov	x8, xzr
	stur	x8, [x29, #-8]
	b	.LBB46_7
.LBB46_7:
	ldur	x0, [x29, #-8]
	.cfi_def_cfa wsp, 96
	ldp	x29, x30, [sp, #80]             // 16-byte Folded Reload
	add	sp, sp, #96
	.cfi_def_cfa_offset 0
	.cfi_restore w30
	.cfi_restore w29
	mov	x1, #0                          // =0x0
	mov	x2, #0                          // =0x0
	mov	x3, #0                          // =0x0
	mov	x4, #0                          // =0x0
	mov	x5, #0                          // =0x0
	mov	x6, #0                          // =0x0
	mov	x7, #0                          // =0x0
	mov	x8, #0                          // =0x0
	mov	x16, #0                         // =0x0
	mov	x17, #0                         // =0x0
	movi	v0.2d, #0000000000000000
	movi	v1.2d, #0000000000000000
	movi	v2.2d, #0000000000000000
	movi	v3.2d, #0000000000000000
	movi	v4.2d, #0000000000000000
	movi	v5.2d, #0000000000000000
	movi	v6.2d, #0000000000000000
	movi	v7.2d, #0000000000000000
	movi	v16.2d, #0000000000000000
	movi	v17.2d, #0000000000000000
	movi	v18.2d, #0000000000000000
	movi	v19.2d, #0000000000000000
	movi	v20.2d, #0000000000000000
	movi	v21.2d, #0000000000000000
	movi	v22.2d, #0000000000000000
	movi	v23.2d, #0000000000000000
	movi	v24.2d, #0000000000000000
	movi	v25.2d, #0000000000000000
	movi	v26.2d, #0000000000000000
	movi	v27.2d, #0000000000000000
	movi	v28.2d, #0000000000000000
	movi	v29.2d, #0000000000000000
	movi	v30.2d, #0000000000000000
	movi	v31.2d, #0000000000000000
	ret
	dsb	sy
	isb
.Lfunc_end45:
	.size	lfind, .Lfunc_end45-lfind
	.cfi_endproc
                                        // -- End function
	.globl	abs                             // -- Begin function abs
	.p2align	2
	.type	abs,@function
abs:                                    // @abs
	.cfi_startproc
// %bb.0:
	sub	sp, sp, #32
	.cfi_def_cfa_offset 32
	stp	x29, x30, [sp, #16]             // 16-byte Folded Spill
	add	x29, sp, #16
	.cfi_def_cfa w29, 16
	.cfi_offset w30, -8
	.cfi_offset w29, -16
	stur	w0, [x29, #-4]
	ldur	w8, [x29, #-4]
	subs	w8, w8, #1
	b.lt	.LBB47_2
	b	.LBB47_1
.LBB47_1:
	ldur	w0, [x29, #-4]
	str	w0, [sp, #8]                    // 4-byte Folded Spill
	b	.LBB47_3
.LBB47_2:
	ldur	w16, [x29, #-4]
	mov	w8, wzr
	subs	w0, w8, w16
	str	w0, [sp, #8]                    // 4-byte Folded Spill
	b	.LBB47_3
.LBB47_3:
	ldr	w0, [sp, #8]                    // 4-byte Folded Reload
	.cfi_def_cfa wsp, 32
	ldp	x29, x30, [sp, #16]             // 16-byte Folded Reload
	add	sp, sp, #32
	.cfi_def_cfa_offset 0
	.cfi_restore w30
	.cfi_restore w29
	mov	x1, #0                          // =0x0
	mov	x2, #0                          // =0x0
	mov	x3, #0                          // =0x0
	mov	x4, #0                          // =0x0
	mov	x5, #0                          // =0x0
	mov	x6, #0                          // =0x0
	mov	x7, #0                          // =0x0
	mov	x8, #0                          // =0x0
	mov	x16, #0                         // =0x0
	mov	x17, #0                         // =0x0
	movi	v0.2d, #0000000000000000
	movi	v1.2d, #0000000000000000
	movi	v2.2d, #0000000000000000
	movi	v3.2d, #0000000000000000
	movi	v4.2d, #0000000000000000
	movi	v5.2d, #0000000000000000
	movi	v6.2d, #0000000000000000
	movi	v7.2d, #0000000000000000
	movi	v16.2d, #0000000000000000
	movi	v17.2d, #0000000000000000
	movi	v18.2d, #0000000000000000
	movi	v19.2d, #0000000000000000
	movi	v20.2d, #0000000000000000
	movi	v21.2d, #0000000000000000
	movi	v22.2d, #0000000000000000
	movi	v23.2d, #0000000000000000
	movi	v24.2d, #0000000000000000
	movi	v25.2d, #0000000000000000
	movi	v26.2d, #0000000000000000
	movi	v27.2d, #0000000000000000
	movi	v28.2d, #0000000000000000
	movi	v29.2d, #0000000000000000
	movi	v30.2d, #0000000000000000
	movi	v31.2d, #0000000000000000
	ret
	dsb	sy
	isb
.Lfunc_end46:
	.size	abs, .Lfunc_end46-abs
	.cfi_endproc
                                        // -- End function
	.globl	atoi                            // -- Begin function atoi
	.p2align	2
	.type	atoi,@function
atoi:                                   // @atoi
	.cfi_startproc
// %bb.0:
	sub	sp, sp, #48
	.cfi_def_cfa_offset 48
	stp	x29, x30, [sp, #32]             // 16-byte Folded Spill
	add	x29, sp, #32
	.cfi_def_cfa w29, 16
	.cfi_offset w30, -8
	.cfi_offset w29, -16
	stur	x0, [x29, #-8]
	mov	w8, wzr
	stur	w8, [x29, #-12]
	str	w8, [sp, #16]
	b	.LBB48_1
.LBB48_1:                               // =>This Inner Loop Header: Depth=1
	ldur	x8, [x29, #-8]
	ldrb	w0, [x8]
	bl	isspace
	cbz	w0, .LBB48_3
	b	.LBB48_2
.LBB48_2:                               //   in Loop: Header=BB48_1 Depth=1
	ldur	x8, [x29, #-8]
	add	x8, x8, #1
	stur	x8, [x29, #-8]
	b	.LBB48_1
.LBB48_3:
	ldur	x8, [x29, #-8]
	ldrb	w8, [x8]
	mov	w16, w8
	str	w16, [sp, #12]                  // 4-byte Folded Spill
	subs	w8, w8, #43
	b.eq	.LBB48_6
	b	.LBB48_4
.LBB48_4:
	ldr	w8, [sp, #12]                   // 4-byte Folded Reload
	subs	w8, w8, #45
	b.ne	.LBB48_7
	b	.LBB48_5
.LBB48_5:
	mov	w8, #1                          // =0x1
	str	w8, [sp, #16]
	b	.LBB48_6
.LBB48_6:
	ldur	x8, [x29, #-8]
	add	x8, x8, #1
	stur	x8, [x29, #-8]
	b	.LBB48_7
.LBB48_7:
	b	.LBB48_8
.LBB48_8:                               // =>This Inner Loop Header: Depth=1
	ldur	x8, [x29, #-8]
	ldrb	w0, [x8]
	bl	isdigit
	cbz	w0, .LBB48_10
	b	.LBB48_9
.LBB48_9:                               //   in Loop: Header=BB48_8 Depth=1
	ldur	w8, [x29, #-12]
	mov	w16, #10                        // =0xa
	mul	w8, w8, w16
	ldur	x16, [x29, #-8]
	add	x17, x16, #1
	stur	x17, [x29, #-8]
	ldrb	w16, [x16]
	subs	w8, w8, w16
	add	w8, w8, #48
	stur	w8, [x29, #-12]
	b	.LBB48_8
.LBB48_10:
	ldr	w8, [sp, #16]
	cbz	w8, .LBB48_12
	b	.LBB48_11
.LBB48_11:
	ldur	w0, [x29, #-12]
	str	w0, [sp, #8]                    // 4-byte Folded Spill
	b	.LBB48_13
.LBB48_12:
	ldur	w16, [x29, #-12]
	mov	w8, wzr
	subs	w0, w8, w16
	str	w0, [sp, #8]                    // 4-byte Folded Spill
	b	.LBB48_13
.LBB48_13:
	ldr	w0, [sp, #8]                    // 4-byte Folded Reload
	.cfi_def_cfa wsp, 48
	ldp	x29, x30, [sp, #32]             // 16-byte Folded Reload
	add	sp, sp, #48
	.cfi_def_cfa_offset 0
	.cfi_restore w30
	.cfi_restore w29
	mov	x1, #0                          // =0x0
	mov	x2, #0                          // =0x0
	mov	x3, #0                          // =0x0
	mov	x4, #0                          // =0x0
	mov	x5, #0                          // =0x0
	mov	x6, #0                          // =0x0
	mov	x7, #0                          // =0x0
	mov	x8, #0                          // =0x0
	mov	x16, #0                         // =0x0
	mov	x17, #0                         // =0x0
	movi	v0.2d, #0000000000000000
	movi	v1.2d, #0000000000000000
	movi	v2.2d, #0000000000000000
	movi	v3.2d, #0000000000000000
	movi	v4.2d, #0000000000000000
	movi	v5.2d, #0000000000000000
	movi	v6.2d, #0000000000000000
	movi	v7.2d, #0000000000000000
	movi	v16.2d, #0000000000000000
	movi	v17.2d, #0000000000000000
	movi	v18.2d, #0000000000000000
	movi	v19.2d, #0000000000000000
	movi	v20.2d, #0000000000000000
	movi	v21.2d, #0000000000000000
	movi	v22.2d, #0000000000000000
	movi	v23.2d, #0000000000000000
	movi	v24.2d, #0000000000000000
	movi	v25.2d, #0000000000000000
	movi	v26.2d, #0000000000000000
	movi	v27.2d, #0000000000000000
	movi	v28.2d, #0000000000000000
	movi	v29.2d, #0000000000000000
	movi	v30.2d, #0000000000000000
	movi	v31.2d, #0000000000000000
	ret
	dsb	sy
	isb
.Lfunc_end47:
	.size	atoi, .Lfunc_end47-atoi
	.cfi_endproc
                                        // -- End function
	.globl	atol                            // -- Begin function atol
	.p2align	2
	.type	atol,@function
atol:                                   // @atol
	.cfi_startproc
// %bb.0:
	sub	sp, sp, #48
	.cfi_def_cfa_offset 48
	stp	x29, x30, [sp, #32]             // 16-byte Folded Spill
	add	x29, sp, #32
	.cfi_def_cfa w29, 16
	.cfi_offset w30, -8
	.cfi_offset w29, -16
	stur	x0, [x29, #-8]
	mov	x8, xzr
	str	x8, [sp, #16]
	mov	w8, wzr
	str	w8, [sp, #12]
	b	.LBB49_1
.LBB49_1:                               // =>This Inner Loop Header: Depth=1
	ldur	x8, [x29, #-8]
	ldrb	w0, [x8]
	bl	isspace
	cbz	w0, .LBB49_3
	b	.LBB49_2
.LBB49_2:                               //   in Loop: Header=BB49_1 Depth=1
	ldur	x8, [x29, #-8]
	add	x8, x8, #1
	stur	x8, [x29, #-8]
	b	.LBB49_1
.LBB49_3:
	ldur	x8, [x29, #-8]
	ldrb	w8, [x8]
	mov	w16, w8
	str	w16, [sp, #8]                   // 4-byte Folded Spill
	subs	w8, w8, #43
	b.eq	.LBB49_6
	b	.LBB49_4
.LBB49_4:
	ldr	w8, [sp, #8]                    // 4-byte Folded Reload
	subs	w8, w8, #45
	b.ne	.LBB49_7
	b	.LBB49_5
.LBB49_5:
	mov	w8, #1                          // =0x1
	str	w8, [sp, #12]
	b	.LBB49_6
.LBB49_6:
	ldur	x8, [x29, #-8]
	add	x8, x8, #1
	stur	x8, [x29, #-8]
	b	.LBB49_7
.LBB49_7:
	b	.LBB49_8
.LBB49_8:                               // =>This Inner Loop Header: Depth=1
	ldur	x8, [x29, #-8]
	ldrb	w0, [x8]
	bl	isdigit
	cbz	w0, .LBB49_10
	b	.LBB49_9
.LBB49_9:                               //   in Loop: Header=BB49_8 Depth=1
	ldr	x8, [sp, #16]
	mov	w16, #10                        // =0xa
                                        // kill: def $x16 killed $w16
	mul	x8, x8, x16
	ldur	x16, [x29, #-8]
	add	x17, x16, #1
	stur	x17, [x29, #-8]
	ldrb	w16, [x16]
	subs	w16, w16, #48
	subs	x8, x8, w16, sxtw
	str	x8, [sp, #16]
	b	.LBB49_8
.LBB49_10:
	ldr	w8, [sp, #12]
	cbz	w8, .LBB49_12
	b	.LBB49_11
.LBB49_11:
	ldr	x0, [sp, #16]
	str	x0, [sp]                        // 8-byte Folded Spill
	b	.LBB49_13
.LBB49_12:
	ldr	x16, [sp, #16]
	mov	x8, xzr
	subs	x0, x8, x16
	str	x0, [sp]                        // 8-byte Folded Spill
	b	.LBB49_13
.LBB49_13:
	ldr	x0, [sp]                        // 8-byte Folded Reload
	.cfi_def_cfa wsp, 48
	ldp	x29, x30, [sp, #32]             // 16-byte Folded Reload
	add	sp, sp, #48
	.cfi_def_cfa_offset 0
	.cfi_restore w30
	.cfi_restore w29
	mov	x1, #0                          // =0x0
	mov	x2, #0                          // =0x0
	mov	x3, #0                          // =0x0
	mov	x4, #0                          // =0x0
	mov	x5, #0                          // =0x0
	mov	x6, #0                          // =0x0
	mov	x7, #0                          // =0x0
	mov	x8, #0                          // =0x0
	mov	x16, #0                         // =0x0
	mov	x17, #0                         // =0x0
	movi	v0.2d, #0000000000000000
	movi	v1.2d, #0000000000000000
	movi	v2.2d, #0000000000000000
	movi	v3.2d, #0000000000000000
	movi	v4.2d, #0000000000000000
	movi	v5.2d, #0000000000000000
	movi	v6.2d, #0000000000000000
	movi	v7.2d, #0000000000000000
	movi	v16.2d, #0000000000000000
	movi	v17.2d, #0000000000000000
	movi	v18.2d, #0000000000000000
	movi	v19.2d, #0000000000000000
	movi	v20.2d, #0000000000000000
	movi	v21.2d, #0000000000000000
	movi	v22.2d, #0000000000000000
	movi	v23.2d, #0000000000000000
	movi	v24.2d, #0000000000000000
	movi	v25.2d, #0000000000000000
	movi	v26.2d, #0000000000000000
	movi	v27.2d, #0000000000000000
	movi	v28.2d, #0000000000000000
	movi	v29.2d, #0000000000000000
	movi	v30.2d, #0000000000000000
	movi	v31.2d, #0000000000000000
	ret
	dsb	sy
	isb
.Lfunc_end48:
	.size	atol, .Lfunc_end48-atol
	.cfi_endproc
                                        // -- End function
	.globl	atoll                           // -- Begin function atoll
	.p2align	2
	.type	atoll,@function
atoll:                                  // @atoll
	.cfi_startproc
// %bb.0:
	sub	sp, sp, #48
	.cfi_def_cfa_offset 48
	stp	x29, x30, [sp, #32]             // 16-byte Folded Spill
	add	x29, sp, #32
	.cfi_def_cfa w29, 16
	.cfi_offset w30, -8
	.cfi_offset w29, -16
	stur	x0, [x29, #-8]
	mov	x8, xzr
	str	x8, [sp, #16]
	mov	w8, wzr
	str	w8, [sp, #12]
	b	.LBB50_1
.LBB50_1:                               // =>This Inner Loop Header: Depth=1
	ldur	x8, [x29, #-8]
	ldrb	w0, [x8]
	bl	isspace
	cbz	w0, .LBB50_3
	b	.LBB50_2
.LBB50_2:                               //   in Loop: Header=BB50_1 Depth=1
	ldur	x8, [x29, #-8]
	add	x8, x8, #1
	stur	x8, [x29, #-8]
	b	.LBB50_1
.LBB50_3:
	ldur	x8, [x29, #-8]
	ldrb	w8, [x8]
	mov	w16, w8
	str	w16, [sp, #8]                   // 4-byte Folded Spill
	subs	w8, w8, #43
	b.eq	.LBB50_6
	b	.LBB50_4
.LBB50_4:
	ldr	w8, [sp, #8]                    // 4-byte Folded Reload
	subs	w8, w8, #45
	b.ne	.LBB50_7
	b	.LBB50_5
.LBB50_5:
	mov	w8, #1                          // =0x1
	str	w8, [sp, #12]
	b	.LBB50_6
.LBB50_6:
	ldur	x8, [x29, #-8]
	add	x8, x8, #1
	stur	x8, [x29, #-8]
	b	.LBB50_7
.LBB50_7:
	b	.LBB50_8
.LBB50_8:                               // =>This Inner Loop Header: Depth=1
	ldur	x8, [x29, #-8]
	ldrb	w0, [x8]
	bl	isdigit
	cbz	w0, .LBB50_10
	b	.LBB50_9
.LBB50_9:                               //   in Loop: Header=BB50_8 Depth=1
	ldr	x8, [sp, #16]
	mov	w16, #10                        // =0xa
                                        // kill: def $x16 killed $w16
	mul	x8, x8, x16
	ldur	x16, [x29, #-8]
	add	x17, x16, #1
	stur	x17, [x29, #-8]
	ldrb	w16, [x16]
	subs	w16, w16, #48
	subs	x8, x8, w16, sxtw
	str	x8, [sp, #16]
	b	.LBB50_8
.LBB50_10:
	ldr	w8, [sp, #12]
	cbz	w8, .LBB50_12
	b	.LBB50_11
.LBB50_11:
	ldr	x0, [sp, #16]
	str	x0, [sp]                        // 8-byte Folded Spill
	b	.LBB50_13
.LBB50_12:
	ldr	x16, [sp, #16]
	mov	x8, xzr
	subs	x0, x8, x16
	str	x0, [sp]                        // 8-byte Folded Spill
	b	.LBB50_13
.LBB50_13:
	ldr	x0, [sp]                        // 8-byte Folded Reload
	.cfi_def_cfa wsp, 48
	ldp	x29, x30, [sp, #32]             // 16-byte Folded Reload
	add	sp, sp, #48
	.cfi_def_cfa_offset 0
	.cfi_restore w30
	.cfi_restore w29
	mov	x1, #0                          // =0x0
	mov	x2, #0                          // =0x0
	mov	x3, #0                          // =0x0
	mov	x4, #0                          // =0x0
	mov	x5, #0                          // =0x0
	mov	x6, #0                          // =0x0
	mov	x7, #0                          // =0x0
	mov	x8, #0                          // =0x0
	mov	x16, #0                         // =0x0
	mov	x17, #0                         // =0x0
	movi	v0.2d, #0000000000000000
	movi	v1.2d, #0000000000000000
	movi	v2.2d, #0000000000000000
	movi	v3.2d, #0000000000000000
	movi	v4.2d, #0000000000000000
	movi	v5.2d, #0000000000000000
	movi	v6.2d, #0000000000000000
	movi	v7.2d, #0000000000000000
	movi	v16.2d, #0000000000000000
	movi	v17.2d, #0000000000000000
	movi	v18.2d, #0000000000000000
	movi	v19.2d, #0000000000000000
	movi	v20.2d, #0000000000000000
	movi	v21.2d, #0000000000000000
	movi	v22.2d, #0000000000000000
	movi	v23.2d, #0000000000000000
	movi	v24.2d, #0000000000000000
	movi	v25.2d, #0000000000000000
	movi	v26.2d, #0000000000000000
	movi	v27.2d, #0000000000000000
	movi	v28.2d, #0000000000000000
	movi	v29.2d, #0000000000000000
	movi	v30.2d, #0000000000000000
	movi	v31.2d, #0000000000000000
	ret
	dsb	sy
	isb
.Lfunc_end49:
	.size	atoll, .Lfunc_end49-atoll
	.cfi_endproc
                                        // -- End function
	.globl	bsearch                         // -- Begin function bsearch
	.p2align	2
	.type	bsearch,@function
bsearch:                                // @bsearch
	.cfi_startproc
// %bb.0:
	sub	sp, sp, #80
	.cfi_def_cfa_offset 80
	stp	x29, x30, [sp, #64]             // 16-byte Folded Spill
	add	x29, sp, #64
	.cfi_def_cfa w29, 16
	.cfi_offset w30, -8
	.cfi_offset w29, -16
	stur	x0, [x29, #-16]
	stur	x1, [x29, #-24]
	str	x2, [sp, #32]
	str	x3, [sp, #24]
	str	x4, [sp, #16]
	b	.LBB51_1
.LBB51_1:                               // =>This Inner Loop Header: Depth=1
	ldr	x8, [sp, #32]
	cbz	x8, .LBB51_9
	b	.LBB51_2
.LBB51_2:                               //   in Loop: Header=BB51_1 Depth=1
	ldur	x8, [x29, #-24]
	ldr	x16, [sp, #24]
	ldr	x17, [sp, #32]
	lsr	x17, x17, #1
	mul	x16, x16, x17
	add	x8, x8, x16
	str	x8, [sp, #8]
	ldr	x8, [sp, #16]
	ldur	x0, [x29, #-16]
	ldr	x1, [sp, #8]
	bl	__llvm_slsblr_thunk_x8
	str	w0, [sp, #4]
	ldr	w8, [sp, #4]
	tbz	w8, #31, .LBB51_4
	b	.LBB51_3
.LBB51_3:                               //   in Loop: Header=BB51_1 Depth=1
	ldr	x8, [sp, #32]
	lsr	x8, x8, #1
	str	x8, [sp, #32]
	b	.LBB51_8
.LBB51_4:                               //   in Loop: Header=BB51_1 Depth=1
	ldr	w8, [sp, #4]
	subs	w8, w8, #1
	b.lt	.LBB51_6
	b	.LBB51_5
.LBB51_5:                               //   in Loop: Header=BB51_1 Depth=1
	ldr	x8, [sp, #8]
	ldr	x16, [sp, #24]
	add	x8, x8, x16
	stur	x8, [x29, #-24]
	ldr	x16, [sp, #32]
	mov	x8, #-1                         // =0xffffffffffffffff
	eor	x8, x8, x16, lsr #1
	add	x8, x8, x16
	str	x8, [sp, #32]
	b	.LBB51_7
.LBB51_6:
	ldr	x8, [sp, #8]
	stur	x8, [x29, #-8]
	b	.LBB51_10
.LBB51_7:                               //   in Loop: Header=BB51_1 Depth=1
	b	.LBB51_8
.LBB51_8:                               //   in Loop: Header=BB51_1 Depth=1
	b	.LBB51_1
.LBB51_9:
	mov	x8, xzr
	stur	x8, [x29, #-8]
	b	.LBB51_10
.LBB51_10:
	ldur	x0, [x29, #-8]
	.cfi_def_cfa wsp, 80
	ldp	x29, x30, [sp, #64]             // 16-byte Folded Reload
	add	sp, sp, #80
	.cfi_def_cfa_offset 0
	.cfi_restore w30
	.cfi_restore w29
	mov	x1, #0                          // =0x0
	mov	x2, #0                          // =0x0
	mov	x3, #0                          // =0x0
	mov	x4, #0                          // =0x0
	mov	x5, #0                          // =0x0
	mov	x6, #0                          // =0x0
	mov	x7, #0                          // =0x0
	mov	x8, #0                          // =0x0
	mov	x16, #0                         // =0x0
	mov	x17, #0                         // =0x0
	movi	v0.2d, #0000000000000000
	movi	v1.2d, #0000000000000000
	movi	v2.2d, #0000000000000000
	movi	v3.2d, #0000000000000000
	movi	v4.2d, #0000000000000000
	movi	v5.2d, #0000000000000000
	movi	v6.2d, #0000000000000000
	movi	v7.2d, #0000000000000000
	movi	v16.2d, #0000000000000000
	movi	v17.2d, #0000000000000000
	movi	v18.2d, #0000000000000000
	movi	v19.2d, #0000000000000000
	movi	v20.2d, #0000000000000000
	movi	v21.2d, #0000000000000000
	movi	v22.2d, #0000000000000000
	movi	v23.2d, #0000000000000000
	movi	v24.2d, #0000000000000000
	movi	v25.2d, #0000000000000000
	movi	v26.2d, #0000000000000000
	movi	v27.2d, #0000000000000000
	movi	v28.2d, #0000000000000000
	movi	v29.2d, #0000000000000000
	movi	v30.2d, #0000000000000000
	movi	v31.2d, #0000000000000000
	ret
	dsb	sy
	isb
.Lfunc_end50:
	.size	bsearch, .Lfunc_end50-bsearch
	.cfi_endproc
                                        // -- End function
	.globl	bsearch_r                       // -- Begin function bsearch_r
	.p2align	2
	.type	bsearch_r,@function
bsearch_r:                              // @bsearch_r
	.cfi_startproc
// %bb.0:
	sub	sp, sp, #96
	.cfi_def_cfa_offset 96
	stp	x29, x30, [sp, #80]             // 16-byte Folded Spill
	add	x29, sp, #80
	.cfi_def_cfa w29, 16
	.cfi_offset w30, -8
	.cfi_offset w29, -16
	stur	x0, [x29, #-16]
	stur	x1, [x29, #-24]
	stur	x2, [x29, #-32]
	str	x3, [sp, #40]
	str	x4, [sp, #32]
	str	x5, [sp, #24]
	ldur	x8, [x29, #-24]
	str	x8, [sp, #16]
	ldur	x8, [x29, #-32]
                                        // kill: def $w8 killed $w8 killed $x8
	str	w8, [sp, #12]
	b	.LBB52_1
.LBB52_1:                               // =>This Inner Loop Header: Depth=1
	ldr	w8, [sp, #12]
	cbz	w8, .LBB52_8
	b	.LBB52_2
.LBB52_2:                               //   in Loop: Header=BB52_1 Depth=1
	ldr	x8, [sp, #16]
	ldr	w17, [sp, #12]
                                        // implicit-def: $x16
	mov	w16, w17
	sbfx	x16, x16, #1, #31
	ldr	x17, [sp, #40]
	mul	x16, x16, x17
	add	x8, x8, x16
	str	x8, [sp]
	ldr	x8, [sp, #32]
	ldur	x0, [x29, #-16]
	ldr	x1, [sp]
	ldr	x2, [sp, #24]
	bl	__llvm_slsblr_thunk_x8
	str	w0, [sp, #8]
	ldr	w8, [sp, #8]
	cbnz	w8, .LBB52_4
	b	.LBB52_3
.LBB52_3:
	ldr	x8, [sp]
	stur	x8, [x29, #-8]
	b	.LBB52_9
.LBB52_4:                               //   in Loop: Header=BB52_1 Depth=1
	ldr	w8, [sp, #8]
	subs	w8, w8, #1
	b.lt	.LBB52_6
	b	.LBB52_5
.LBB52_5:                               //   in Loop: Header=BB52_1 Depth=1
	ldr	x8, [sp]
	ldr	x16, [sp, #40]
	add	x8, x8, x16
	str	x8, [sp, #16]
	ldr	w8, [sp, #12]
	subs	w8, w8, #1
	str	w8, [sp, #12]
	b	.LBB52_6
.LBB52_6:                               //   in Loop: Header=BB52_1 Depth=1
	b	.LBB52_7
.LBB52_7:                               //   in Loop: Header=BB52_1 Depth=1
	ldr	w8, [sp, #12]
	asr	w8, w8, #1
	str	w8, [sp, #12]
	b	.LBB52_1
.LBB52_8:
	mov	x8, xzr
	stur	x8, [x29, #-8]
	b	.LBB52_9
.LBB52_9:
	ldur	x0, [x29, #-8]
	.cfi_def_cfa wsp, 96
	ldp	x29, x30, [sp, #80]             // 16-byte Folded Reload
	add	sp, sp, #96
	.cfi_def_cfa_offset 0
	.cfi_restore w30
	.cfi_restore w29
	mov	x1, #0                          // =0x0
	mov	x2, #0                          // =0x0
	mov	x3, #0                          // =0x0
	mov	x4, #0                          // =0x0
	mov	x5, #0                          // =0x0
	mov	x6, #0                          // =0x0
	mov	x7, #0                          // =0x0
	mov	x8, #0                          // =0x0
	mov	x16, #0                         // =0x0
	mov	x17, #0                         // =0x0
	movi	v0.2d, #0000000000000000
	movi	v1.2d, #0000000000000000
	movi	v2.2d, #0000000000000000
	movi	v3.2d, #0000000000000000
	movi	v4.2d, #0000000000000000
	movi	v5.2d, #0000000000000000
	movi	v6.2d, #0000000000000000
	movi	v7.2d, #0000000000000000
	movi	v16.2d, #0000000000000000
	movi	v17.2d, #0000000000000000
	movi	v18.2d, #0000000000000000
	movi	v19.2d, #0000000000000000
	movi	v20.2d, #0000000000000000
	movi	v21.2d, #0000000000000000
	movi	v22.2d, #0000000000000000
	movi	v23.2d, #0000000000000000
	movi	v24.2d, #0000000000000000
	movi	v25.2d, #0000000000000000
	movi	v26.2d, #0000000000000000
	movi	v27.2d, #0000000000000000
	movi	v28.2d, #0000000000000000
	movi	v29.2d, #0000000000000000
	movi	v30.2d, #0000000000000000
	movi	v31.2d, #0000000000000000
	ret
	dsb	sy
	isb
.Lfunc_end51:
	.size	bsearch_r, .Lfunc_end51-bsearch_r
	.cfi_endproc
                                        // -- End function
	.globl	div                             // -- Begin function div
	.p2align	2
	.type	div,@function
div:                                    // @div
	.cfi_startproc
// %bb.0:
	sub	sp, sp, #32
	.cfi_def_cfa_offset 32
	stp	x29, x30, [sp, #16]             // 16-byte Folded Spill
	add	x29, sp, #16
	.cfi_def_cfa w29, 16
	.cfi_offset w30, -8
	.cfi_offset w29, -16
	str	w0, [sp, #4]
	str	w1, [sp]
	ldr	w8, [sp, #4]
	ldr	w16, [sp]
	sdiv	w8, w8, w16
	str	w8, [sp, #8]
	ldr	w8, [sp, #4]
	ldr	w17, [sp]
	sdiv	w16, w8, w17
	mul	w16, w16, w17
	subs	w8, w8, w16
	str	w8, [sp, #12]
	ldr	w8, [sp, #12]
	mov	w16, w8
	ldr	w8, [sp, #8]
                                        // kill: def $x8 killed $w8
	orr	x0, x8, x16, lsl #32
	.cfi_def_cfa wsp, 32
	ldp	x29, x30, [sp, #16]             // 16-byte Folded Reload
	add	sp, sp, #32
	.cfi_def_cfa_offset 0
	.cfi_restore w30
	.cfi_restore w29
	mov	x1, #0                          // =0x0
	mov	x2, #0                          // =0x0
	mov	x3, #0                          // =0x0
	mov	x4, #0                          // =0x0
	mov	x5, #0                          // =0x0
	mov	x6, #0                          // =0x0
	mov	x7, #0                          // =0x0
	mov	x8, #0                          // =0x0
	mov	x16, #0                         // =0x0
	mov	x17, #0                         // =0x0
	movi	v0.2d, #0000000000000000
	movi	v1.2d, #0000000000000000
	movi	v2.2d, #0000000000000000
	movi	v3.2d, #0000000000000000
	movi	v4.2d, #0000000000000000
	movi	v5.2d, #0000000000000000
	movi	v6.2d, #0000000000000000
	movi	v7.2d, #0000000000000000
	movi	v16.2d, #0000000000000000
	movi	v17.2d, #0000000000000000
	movi	v18.2d, #0000000000000000
	movi	v19.2d, #0000000000000000
	movi	v20.2d, #0000000000000000
	movi	v21.2d, #0000000000000000
	movi	v22.2d, #0000000000000000
	movi	v23.2d, #0000000000000000
	movi	v24.2d, #0000000000000000
	movi	v25.2d, #0000000000000000
	movi	v26.2d, #0000000000000000
	movi	v27.2d, #0000000000000000
	movi	v28.2d, #0000000000000000
	movi	v29.2d, #0000000000000000
	movi	v30.2d, #0000000000000000
	movi	v31.2d, #0000000000000000
	ret
	dsb	sy
	isb
.Lfunc_end52:
	.size	div, .Lfunc_end52-div
	.cfi_endproc
                                        // -- End function
	.globl	imaxabs                         // -- Begin function imaxabs
	.p2align	2
	.type	imaxabs,@function
imaxabs:                                // @imaxabs
	.cfi_startproc
// %bb.0:
	sub	sp, sp, #32
	.cfi_def_cfa_offset 32
	stp	x29, x30, [sp, #16]             // 16-byte Folded Spill
	add	x29, sp, #16
	.cfi_def_cfa w29, 16
	.cfi_offset w30, -8
	.cfi_offset w29, -16
	str	x0, [sp, #8]
	ldr	x8, [sp, #8]
	subs	x8, x8, #1
	b.lt	.LBB54_2
	b	.LBB54_1
.LBB54_1:
	ldr	x0, [sp, #8]
	str	x0, [sp]                        // 8-byte Folded Spill
	b	.LBB54_3
.LBB54_2:
	ldr	x16, [sp, #8]
	mov	x8, xzr
	subs	x0, x8, x16
	str	x0, [sp]                        // 8-byte Folded Spill
	b	.LBB54_3
.LBB54_3:
	ldr	x0, [sp]                        // 8-byte Folded Reload
	.cfi_def_cfa wsp, 32
	ldp	x29, x30, [sp, #16]             // 16-byte Folded Reload
	add	sp, sp, #32
	.cfi_def_cfa_offset 0
	.cfi_restore w30
	.cfi_restore w29
	mov	x1, #0                          // =0x0
	mov	x2, #0                          // =0x0
	mov	x3, #0                          // =0x0
	mov	x4, #0                          // =0x0
	mov	x5, #0                          // =0x0
	mov	x6, #0                          // =0x0
	mov	x7, #0                          // =0x0
	mov	x8, #0                          // =0x0
	mov	x16, #0                         // =0x0
	mov	x17, #0                         // =0x0
	movi	v0.2d, #0000000000000000
	movi	v1.2d, #0000000000000000
	movi	v2.2d, #0000000000000000
	movi	v3.2d, #0000000000000000
	movi	v4.2d, #0000000000000000
	movi	v5.2d, #0000000000000000
	movi	v6.2d, #0000000000000000
	movi	v7.2d, #0000000000000000
	movi	v16.2d, #0000000000000000
	movi	v17.2d, #0000000000000000
	movi	v18.2d, #0000000000000000
	movi	v19.2d, #0000000000000000
	movi	v20.2d, #0000000000000000
	movi	v21.2d, #0000000000000000
	movi	v22.2d, #0000000000000000
	movi	v23.2d, #0000000000000000
	movi	v24.2d, #0000000000000000
	movi	v25.2d, #0000000000000000
	movi	v26.2d, #0000000000000000
	movi	v27.2d, #0000000000000000
	movi	v28.2d, #0000000000000000
	movi	v29.2d, #0000000000000000
	movi	v30.2d, #0000000000000000
	movi	v31.2d, #0000000000000000
	ret
	dsb	sy
	isb
.Lfunc_end53:
	.size	imaxabs, .Lfunc_end53-imaxabs
	.cfi_endproc
                                        // -- End function
	.globl	imaxdiv                         // -- Begin function imaxdiv
	.p2align	2
	.type	imaxdiv,@function
imaxdiv:                                // @imaxdiv
	.cfi_startproc
// %bb.0:
	sub	sp, sp, #48
	.cfi_def_cfa_offset 48
	stp	x29, x30, [sp, #32]             // 16-byte Folded Spill
	add	x29, sp, #32
	.cfi_def_cfa w29, 16
	.cfi_offset w30, -8
	.cfi_offset w29, -16
	str	x0, [sp, #8]
	str	x1, [sp]
	ldr	x8, [sp, #8]
	ldr	x16, [sp]
	sdiv	x8, x8, x16
	str	x8, [sp, #16]
	ldr	x8, [sp, #8]
	ldr	x17, [sp]
	sdiv	x16, x8, x17
	mul	x16, x16, x17
	subs	x8, x8, x16
	str	x8, [sp, #24]
	ldr	x0, [sp, #16]
	ldr	x1, [sp, #24]
	.cfi_def_cfa wsp, 48
	ldp	x29, x30, [sp, #32]             // 16-byte Folded Reload
	add	sp, sp, #48
	.cfi_def_cfa_offset 0
	.cfi_restore w30
	.cfi_restore w29
	mov	x2, #0                          // =0x0
	mov	x3, #0                          // =0x0
	mov	x4, #0                          // =0x0
	mov	x5, #0                          // =0x0
	mov	x6, #0                          // =0x0
	mov	x7, #0                          // =0x0
	mov	x8, #0                          // =0x0
	mov	x16, #0                         // =0x0
	mov	x17, #0                         // =0x0
	movi	v0.2d, #0000000000000000
	movi	v1.2d, #0000000000000000
	movi	v2.2d, #0000000000000000
	movi	v3.2d, #0000000000000000
	movi	v4.2d, #0000000000000000
	movi	v5.2d, #0000000000000000
	movi	v6.2d, #0000000000000000
	movi	v7.2d, #0000000000000000
	movi	v16.2d, #0000000000000000
	movi	v17.2d, #0000000000000000
	movi	v18.2d, #0000000000000000
	movi	v19.2d, #0000000000000000
	movi	v20.2d, #0000000000000000
	movi	v21.2d, #0000000000000000
	movi	v22.2d, #0000000000000000
	movi	v23.2d, #0000000000000000
	movi	v24.2d, #0000000000000000
	movi	v25.2d, #0000000000000000
	movi	v26.2d, #0000000000000000
	movi	v27.2d, #0000000000000000
	movi	v28.2d, #0000000000000000
	movi	v29.2d, #0000000000000000
	movi	v30.2d, #0000000000000000
	movi	v31.2d, #0000000000000000
	ret
	dsb	sy
	isb
.Lfunc_end54:
	.size	imaxdiv, .Lfunc_end54-imaxdiv
	.cfi_endproc
                                        // -- End function
	.globl	labs                            // -- Begin function labs
	.p2align	2
	.type	labs,@function
labs:                                   // @labs
	.cfi_startproc
// %bb.0:
	sub	sp, sp, #32
	.cfi_def_cfa_offset 32
	stp	x29, x30, [sp, #16]             // 16-byte Folded Spill
	add	x29, sp, #16
	.cfi_def_cfa w29, 16
	.cfi_offset w30, -8
	.cfi_offset w29, -16
	str	x0, [sp, #8]
	ldr	x8, [sp, #8]
	subs	x8, x8, #1
	b.lt	.LBB56_2
	b	.LBB56_1
.LBB56_1:
	ldr	x0, [sp, #8]
	str	x0, [sp]                        // 8-byte Folded Spill
	b	.LBB56_3
.LBB56_2:
	ldr	x16, [sp, #8]
	mov	x8, xzr
	subs	x0, x8, x16
	str	x0, [sp]                        // 8-byte Folded Spill
	b	.LBB56_3
.LBB56_3:
	ldr	x0, [sp]                        // 8-byte Folded Reload
	.cfi_def_cfa wsp, 32
	ldp	x29, x30, [sp, #16]             // 16-byte Folded Reload
	add	sp, sp, #32
	.cfi_def_cfa_offset 0
	.cfi_restore w30
	.cfi_restore w29
	mov	x1, #0                          // =0x0
	mov	x2, #0                          // =0x0
	mov	x3, #0                          // =0x0
	mov	x4, #0                          // =0x0
	mov	x5, #0                          // =0x0
	mov	x6, #0                          // =0x0
	mov	x7, #0                          // =0x0
	mov	x8, #0                          // =0x0
	mov	x16, #0                         // =0x0
	mov	x17, #0                         // =0x0
	movi	v0.2d, #0000000000000000
	movi	v1.2d, #0000000000000000
	movi	v2.2d, #0000000000000000
	movi	v3.2d, #0000000000000000
	movi	v4.2d, #0000000000000000
	movi	v5.2d, #0000000000000000
	movi	v6.2d, #0000000000000000
	movi	v7.2d, #0000000000000000
	movi	v16.2d, #0000000000000000
	movi	v17.2d, #0000000000000000
	movi	v18.2d, #0000000000000000
	movi	v19.2d, #0000000000000000
	movi	v20.2d, #0000000000000000
	movi	v21.2d, #0000000000000000
	movi	v22.2d, #0000000000000000
	movi	v23.2d, #0000000000000000
	movi	v24.2d, #0000000000000000
	movi	v25.2d, #0000000000000000
	movi	v26.2d, #0000000000000000
	movi	v27.2d, #0000000000000000
	movi	v28.2d, #0000000000000000
	movi	v29.2d, #0000000000000000
	movi	v30.2d, #0000000000000000
	movi	v31.2d, #0000000000000000
	ret
	dsb	sy
	isb
.Lfunc_end55:
	.size	labs, .Lfunc_end55-labs
	.cfi_endproc
                                        // -- End function
	.globl	ldiv                            // -- Begin function ldiv
	.p2align	2
	.type	ldiv,@function
ldiv:                                   // @ldiv
	.cfi_startproc
// %bb.0:
	sub	sp, sp, #48
	.cfi_def_cfa_offset 48
	stp	x29, x30, [sp, #32]             // 16-byte Folded Spill
	add	x29, sp, #32
	.cfi_def_cfa w29, 16
	.cfi_offset w30, -8
	.cfi_offset w29, -16
	str	x0, [sp, #8]
	str	x1, [sp]
	ldr	x8, [sp, #8]
	ldr	x16, [sp]
	sdiv	x8, x8, x16
	str	x8, [sp, #16]
	ldr	x8, [sp, #8]
	ldr	x17, [sp]
	sdiv	x16, x8, x17
	mul	x16, x16, x17
	subs	x8, x8, x16
	str	x8, [sp, #24]
	ldr	x0, [sp, #16]
	ldr	x1, [sp, #24]
	.cfi_def_cfa wsp, 48
	ldp	x29, x30, [sp, #32]             // 16-byte Folded Reload
	add	sp, sp, #48
	.cfi_def_cfa_offset 0
	.cfi_restore w30
	.cfi_restore w29
	mov	x2, #0                          // =0x0
	mov	x3, #0                          // =0x0
	mov	x4, #0                          // =0x0
	mov	x5, #0                          // =0x0
	mov	x6, #0                          // =0x0
	mov	x7, #0                          // =0x0
	mov	x8, #0                          // =0x0
	mov	x16, #0                         // =0x0
	mov	x17, #0                         // =0x0
	movi	v0.2d, #0000000000000000
	movi	v1.2d, #0000000000000000
	movi	v2.2d, #0000000000000000
	movi	v3.2d, #0000000000000000
	movi	v4.2d, #0000000000000000
	movi	v5.2d, #0000000000000000
	movi	v6.2d, #0000000000000000
	movi	v7.2d, #0000000000000000
	movi	v16.2d, #0000000000000000
	movi	v17.2d, #0000000000000000
	movi	v18.2d, #0000000000000000
	movi	v19.2d, #0000000000000000
	movi	v20.2d, #0000000000000000
	movi	v21.2d, #0000000000000000
	movi	v22.2d, #0000000000000000
	movi	v23.2d, #0000000000000000
	movi	v24.2d, #0000000000000000
	movi	v25.2d, #0000000000000000
	movi	v26.2d, #0000000000000000
	movi	v27.2d, #0000000000000000
	movi	v28.2d, #0000000000000000
	movi	v29.2d, #0000000000000000
	movi	v30.2d, #0000000000000000
	movi	v31.2d, #0000000000000000
	ret
	dsb	sy
	isb
.Lfunc_end56:
	.size	ldiv, .Lfunc_end56-ldiv
	.cfi_endproc
                                        // -- End function
	.globl	llabs                           // -- Begin function llabs
	.p2align	2
	.type	llabs,@function
llabs:                                  // @llabs
	.cfi_startproc
// %bb.0:
	sub	sp, sp, #32
	.cfi_def_cfa_offset 32
	stp	x29, x30, [sp, #16]             // 16-byte Folded Spill
	add	x29, sp, #16
	.cfi_def_cfa w29, 16
	.cfi_offset w30, -8
	.cfi_offset w29, -16
	str	x0, [sp, #8]
	ldr	x8, [sp, #8]
	subs	x8, x8, #1
	b.lt	.LBB58_2
	b	.LBB58_1
.LBB58_1:
	ldr	x0, [sp, #8]
	str	x0, [sp]                        // 8-byte Folded Spill
	b	.LBB58_3
.LBB58_2:
	ldr	x16, [sp, #8]
	mov	x8, xzr
	subs	x0, x8, x16
	str	x0, [sp]                        // 8-byte Folded Spill
	b	.LBB58_3
.LBB58_3:
	ldr	x0, [sp]                        // 8-byte Folded Reload
	.cfi_def_cfa wsp, 32
	ldp	x29, x30, [sp, #16]             // 16-byte Folded Reload
	add	sp, sp, #32
	.cfi_def_cfa_offset 0
	.cfi_restore w30
	.cfi_restore w29
	mov	x1, #0                          // =0x0
	mov	x2, #0                          // =0x0
	mov	x3, #0                          // =0x0
	mov	x4, #0                          // =0x0
	mov	x5, #0                          // =0x0
	mov	x6, #0                          // =0x0
	mov	x7, #0                          // =0x0
	mov	x8, #0                          // =0x0
	mov	x16, #0                         // =0x0
	mov	x17, #0                         // =0x0
	movi	v0.2d, #0000000000000000
	movi	v1.2d, #0000000000000000
	movi	v2.2d, #0000000000000000
	movi	v3.2d, #0000000000000000
	movi	v4.2d, #0000000000000000
	movi	v5.2d, #0000000000000000
	movi	v6.2d, #0000000000000000
	movi	v7.2d, #0000000000000000
	movi	v16.2d, #0000000000000000
	movi	v17.2d, #0000000000000000
	movi	v18.2d, #0000000000000000
	movi	v19.2d, #0000000000000000
	movi	v20.2d, #0000000000000000
	movi	v21.2d, #0000000000000000
	movi	v22.2d, #0000000000000000
	movi	v23.2d, #0000000000000000
	movi	v24.2d, #0000000000000000
	movi	v25.2d, #0000000000000000
	movi	v26.2d, #0000000000000000
	movi	v27.2d, #0000000000000000
	movi	v28.2d, #0000000000000000
	movi	v29.2d, #0000000000000000
	movi	v30.2d, #0000000000000000
	movi	v31.2d, #0000000000000000
	ret
	dsb	sy
	isb
.Lfunc_end57:
	.size	llabs, .Lfunc_end57-llabs
	.cfi_endproc
                                        // -- End function
	.globl	lldiv                           // -- Begin function lldiv
	.p2align	2
	.type	lldiv,@function
lldiv:                                  // @lldiv
	.cfi_startproc
// %bb.0:
	sub	sp, sp, #48
	.cfi_def_cfa_offset 48
	stp	x29, x30, [sp, #32]             // 16-byte Folded Spill
	add	x29, sp, #32
	.cfi_def_cfa w29, 16
	.cfi_offset w30, -8
	.cfi_offset w29, -16
	str	x0, [sp, #8]
	str	x1, [sp]
	ldr	x8, [sp, #8]
	ldr	x16, [sp]
	sdiv	x8, x8, x16
	str	x8, [sp, #16]
	ldr	x8, [sp, #8]
	ldr	x17, [sp]
	sdiv	x16, x8, x17
	mul	x16, x16, x17
	subs	x8, x8, x16
	str	x8, [sp, #24]
	ldr	x0, [sp, #16]
	ldr	x1, [sp, #24]
	.cfi_def_cfa wsp, 48
	ldp	x29, x30, [sp, #32]             // 16-byte Folded Reload
	add	sp, sp, #48
	.cfi_def_cfa_offset 0
	.cfi_restore w30
	.cfi_restore w29
	mov	x2, #0                          // =0x0
	mov	x3, #0                          // =0x0
	mov	x4, #0                          // =0x0
	mov	x5, #0                          // =0x0
	mov	x6, #0                          // =0x0
	mov	x7, #0                          // =0x0
	mov	x8, #0                          // =0x0
	mov	x16, #0                         // =0x0
	mov	x17, #0                         // =0x0
	movi	v0.2d, #0000000000000000
	movi	v1.2d, #0000000000000000
	movi	v2.2d, #0000000000000000
	movi	v3.2d, #0000000000000000
	movi	v4.2d, #0000000000000000
	movi	v5.2d, #0000000000000000
	movi	v6.2d, #0000000000000000
	movi	v7.2d, #0000000000000000
	movi	v16.2d, #0000000000000000
	movi	v17.2d, #0000000000000000
	movi	v18.2d, #0000000000000000
	movi	v19.2d, #0000000000000000
	movi	v20.2d, #0000000000000000
	movi	v21.2d, #0000000000000000
	movi	v22.2d, #0000000000000000
	movi	v23.2d, #0000000000000000
	movi	v24.2d, #0000000000000000
	movi	v25.2d, #0000000000000000
	movi	v26.2d, #0000000000000000
	movi	v27.2d, #0000000000000000
	movi	v28.2d, #0000000000000000
	movi	v29.2d, #0000000000000000
	movi	v30.2d, #0000000000000000
	movi	v31.2d, #0000000000000000
	ret
	dsb	sy
	isb
.Lfunc_end58:
	.size	lldiv, .Lfunc_end58-lldiv
	.cfi_endproc
                                        // -- End function
	.globl	wcschr                          // -- Begin function wcschr
	.p2align	2
	.type	wcschr,@function
wcschr:                                 // @wcschr
	.cfi_startproc
// %bb.0:
	sub	sp, sp, #48
	.cfi_def_cfa_offset 48
	stp	x29, x30, [sp, #32]             // 16-byte Folded Spill
	add	x29, sp, #32
	.cfi_def_cfa w29, 16
	.cfi_offset w30, -8
	.cfi_offset w29, -16
	stur	x0, [x29, #-8]
	stur	w1, [x29, #-12]
	b	.LBB60_1
.LBB60_1:                               // =>This Inner Loop Header: Depth=1
	ldur	x8, [x29, #-8]
	ldr	w8, [x8]
	mov	w16, wzr
	str	w16, [sp, #16]                  // 4-byte Folded Spill
	cbz	w8, .LBB60_3
	b	.LBB60_2
.LBB60_2:                               //   in Loop: Header=BB60_1 Depth=1
	ldur	x8, [x29, #-8]
	ldr	w8, [x8]
	ldur	w16, [x29, #-12]
	subs	w8, w8, w16
	cset	w8, ne
	str	w8, [sp, #16]                   // 4-byte Folded Spill
	b	.LBB60_3
.LBB60_3:                               //   in Loop: Header=BB60_1 Depth=1
	ldr	w8, [sp, #16]                   // 4-byte Folded Reload
	tbz	w8, #0, .LBB60_6
	b	.LBB60_4
.LBB60_4:                               //   in Loop: Header=BB60_1 Depth=1
	b	.LBB60_5
.LBB60_5:                               //   in Loop: Header=BB60_1 Depth=1
	ldur	x8, [x29, #-8]
	add	x8, x8, #4
	stur	x8, [x29, #-8]
	b	.LBB60_1
.LBB60_6:
	ldur	x8, [x29, #-8]
	ldr	w8, [x8]
	cbz	w8, .LBB60_8
	b	.LBB60_7
.LBB60_7:
	ldur	x0, [x29, #-8]
	str	x0, [sp, #8]                    // 8-byte Folded Spill
	b	.LBB60_9
.LBB60_8:
	mov	x0, xzr
	str	x0, [sp, #8]                    // 8-byte Folded Spill
	b	.LBB60_9
.LBB60_9:
	ldr	x0, [sp, #8]                    // 8-byte Folded Reload
	.cfi_def_cfa wsp, 48
	ldp	x29, x30, [sp, #32]             // 16-byte Folded Reload
	add	sp, sp, #48
	.cfi_def_cfa_offset 0
	.cfi_restore w30
	.cfi_restore w29
	mov	x1, #0                          // =0x0
	mov	x2, #0                          // =0x0
	mov	x3, #0                          // =0x0
	mov	x4, #0                          // =0x0
	mov	x5, #0                          // =0x0
	mov	x6, #0                          // =0x0
	mov	x7, #0                          // =0x0
	mov	x8, #0                          // =0x0
	mov	x16, #0                         // =0x0
	mov	x17, #0                         // =0x0
	movi	v0.2d, #0000000000000000
	movi	v1.2d, #0000000000000000
	movi	v2.2d, #0000000000000000
	movi	v3.2d, #0000000000000000
	movi	v4.2d, #0000000000000000
	movi	v5.2d, #0000000000000000
	movi	v6.2d, #0000000000000000
	movi	v7.2d, #0000000000000000
	movi	v16.2d, #0000000000000000
	movi	v17.2d, #0000000000000000
	movi	v18.2d, #0000000000000000
	movi	v19.2d, #0000000000000000
	movi	v20.2d, #0000000000000000
	movi	v21.2d, #0000000000000000
	movi	v22.2d, #0000000000000000
	movi	v23.2d, #0000000000000000
	movi	v24.2d, #0000000000000000
	movi	v25.2d, #0000000000000000
	movi	v26.2d, #0000000000000000
	movi	v27.2d, #0000000000000000
	movi	v28.2d, #0000000000000000
	movi	v29.2d, #0000000000000000
	movi	v30.2d, #0000000000000000
	movi	v31.2d, #0000000000000000
	ret
	dsb	sy
	isb
.Lfunc_end59:
	.size	wcschr, .Lfunc_end59-wcschr
	.cfi_endproc
                                        // -- End function
	.globl	wcscmp                          // -- Begin function wcscmp
	.p2align	2
	.type	wcscmp,@function
wcscmp:                                 // @wcscmp
	.cfi_startproc
// %bb.0:
	sub	sp, sp, #48
	.cfi_def_cfa_offset 48
	stp	x29, x30, [sp, #32]             // 16-byte Folded Spill
	add	x29, sp, #32
	.cfi_def_cfa w29, 16
	.cfi_offset w30, -8
	.cfi_offset w29, -16
	stur	x0, [x29, #-8]
	str	x1, [sp, #16]
	b	.LBB61_1
.LBB61_1:                               // =>This Inner Loop Header: Depth=1
	ldur	x8, [x29, #-8]
	ldr	w16, [x8]
	ldr	x8, [sp, #16]
	ldr	w17, [x8]
	mov	w8, wzr
	subs	w16, w16, w17
	str	w8, [sp, #12]                   // 4-byte Folded Spill
	b.ne	.LBB61_4
	b	.LBB61_2
.LBB61_2:                               //   in Loop: Header=BB61_1 Depth=1
	ldur	x8, [x29, #-8]
	ldr	w8, [x8]
	mov	w16, wzr
	str	w16, [sp, #12]                  // 4-byte Folded Spill
	cbz	w8, .LBB61_4
	b	.LBB61_3
.LBB61_3:                               //   in Loop: Header=BB61_1 Depth=1
	ldr	x8, [sp, #16]
	ldr	w8, [x8]
	subs	w8, w8, #0
	cset	w8, ne
	str	w8, [sp, #12]                   // 4-byte Folded Spill
	b	.LBB61_4
.LBB61_4:                               //   in Loop: Header=BB61_1 Depth=1
	ldr	w8, [sp, #12]                   // 4-byte Folded Reload
	tbz	w8, #0, .LBB61_7
	b	.LBB61_5
.LBB61_5:                               //   in Loop: Header=BB61_1 Depth=1
	b	.LBB61_6
.LBB61_6:                               //   in Loop: Header=BB61_1 Depth=1
	ldur	x8, [x29, #-8]
	add	x8, x8, #4
	stur	x8, [x29, #-8]
	ldr	x8, [sp, #16]
	add	x8, x8, #4
	str	x8, [sp, #16]
	b	.LBB61_1
.LBB61_7:
	ldur	x8, [x29, #-8]
	ldr	w8, [x8]
	ldr	x16, [sp, #16]
	ldr	w16, [x16]
	subs	w8, w8, w16
	b.hs	.LBB61_9
	b	.LBB61_8
.LBB61_8:
	mov	w0, #-1                         // =0xffffffff
	str	w0, [sp, #8]                    // 4-byte Folded Spill
	b	.LBB61_10
.LBB61_9:
	ldur	x8, [x29, #-8]
	ldr	w8, [x8]
	ldr	x16, [sp, #16]
	ldr	w16, [x16]
	subs	w8, w8, w16
	cset	w0, hi
	str	w0, [sp, #8]                    // 4-byte Folded Spill
	b	.LBB61_10
.LBB61_10:
	ldr	w0, [sp, #8]                    // 4-byte Folded Reload
	.cfi_def_cfa wsp, 48
	ldp	x29, x30, [sp, #32]             // 16-byte Folded Reload
	add	sp, sp, #48
	.cfi_def_cfa_offset 0
	.cfi_restore w30
	.cfi_restore w29
	mov	x1, #0                          // =0x0
	mov	x2, #0                          // =0x0
	mov	x3, #0                          // =0x0
	mov	x4, #0                          // =0x0
	mov	x5, #0                          // =0x0
	mov	x6, #0                          // =0x0
	mov	x7, #0                          // =0x0
	mov	x8, #0                          // =0x0
	mov	x16, #0                         // =0x0
	mov	x17, #0                         // =0x0
	movi	v0.2d, #0000000000000000
	movi	v1.2d, #0000000000000000
	movi	v2.2d, #0000000000000000
	movi	v3.2d, #0000000000000000
	movi	v4.2d, #0000000000000000
	movi	v5.2d, #0000000000000000
	movi	v6.2d, #0000000000000000
	movi	v7.2d, #0000000000000000
	movi	v16.2d, #0000000000000000
	movi	v17.2d, #0000000000000000
	movi	v18.2d, #0000000000000000
	movi	v19.2d, #0000000000000000
	movi	v20.2d, #0000000000000000
	movi	v21.2d, #0000000000000000
	movi	v22.2d, #0000000000000000
	movi	v23.2d, #0000000000000000
	movi	v24.2d, #0000000000000000
	movi	v25.2d, #0000000000000000
	movi	v26.2d, #0000000000000000
	movi	v27.2d, #0000000000000000
	movi	v28.2d, #0000000000000000
	movi	v29.2d, #0000000000000000
	movi	v30.2d, #0000000000000000
	movi	v31.2d, #0000000000000000
	ret
	dsb	sy
	isb
.Lfunc_end60:
	.size	wcscmp, .Lfunc_end60-wcscmp
	.cfi_endproc
                                        // -- End function
	.globl	wcscpy                          // -- Begin function wcscpy
	.p2align	2
	.type	wcscpy,@function
wcscpy:                                 // @wcscpy
	.cfi_startproc
// %bb.0:
	sub	sp, sp, #48
	.cfi_def_cfa_offset 48
	stp	x29, x30, [sp, #32]             // 16-byte Folded Spill
	add	x29, sp, #32
	.cfi_def_cfa w29, 16
	.cfi_offset w30, -8
	.cfi_offset w29, -16
	stur	x0, [x29, #-8]
	str	x1, [sp, #16]
	ldur	x8, [x29, #-8]
	str	x8, [sp, #8]
	b	.LBB62_1
.LBB62_1:                               // =>This Inner Loop Header: Depth=1
	ldr	x8, [sp, #16]
	add	x16, x8, #4
	str	x16, [sp, #16]
	ldr	w8, [x8]
	ldur	x16, [x29, #-8]
	add	x17, x16, #4
	stur	x17, [x29, #-8]
	str	w8, [x16]
	cbz	w8, .LBB62_3
	b	.LBB62_2
.LBB62_2:                               //   in Loop: Header=BB62_1 Depth=1
	b	.LBB62_1
.LBB62_3:
	ldr	x0, [sp, #8]
	.cfi_def_cfa wsp, 48
	ldp	x29, x30, [sp, #32]             // 16-byte Folded Reload
	add	sp, sp, #48
	.cfi_def_cfa_offset 0
	.cfi_restore w30
	.cfi_restore w29
	mov	x1, #0                          // =0x0
	mov	x2, #0                          // =0x0
	mov	x3, #0                          // =0x0
	mov	x4, #0                          // =0x0
	mov	x5, #0                          // =0x0
	mov	x6, #0                          // =0x0
	mov	x7, #0                          // =0x0
	mov	x8, #0                          // =0x0
	mov	x16, #0                         // =0x0
	mov	x17, #0                         // =0x0
	movi	v0.2d, #0000000000000000
	movi	v1.2d, #0000000000000000
	movi	v2.2d, #0000000000000000
	movi	v3.2d, #0000000000000000
	movi	v4.2d, #0000000000000000
	movi	v5.2d, #0000000000000000
	movi	v6.2d, #0000000000000000
	movi	v7.2d, #0000000000000000
	movi	v16.2d, #0000000000000000
	movi	v17.2d, #0000000000000000
	movi	v18.2d, #0000000000000000
	movi	v19.2d, #0000000000000000
	movi	v20.2d, #0000000000000000
	movi	v21.2d, #0000000000000000
	movi	v22.2d, #0000000000000000
	movi	v23.2d, #0000000000000000
	movi	v24.2d, #0000000000000000
	movi	v25.2d, #0000000000000000
	movi	v26.2d, #0000000000000000
	movi	v27.2d, #0000000000000000
	movi	v28.2d, #0000000000000000
	movi	v29.2d, #0000000000000000
	movi	v30.2d, #0000000000000000
	movi	v31.2d, #0000000000000000
	ret
	dsb	sy
	isb
.Lfunc_end61:
	.size	wcscpy, .Lfunc_end61-wcscpy
	.cfi_endproc
                                        // -- End function
	.globl	wcslen                          // -- Begin function wcslen
	.p2align	2
	.type	wcslen,@function
wcslen:                                 // @wcslen
	.cfi_startproc
// %bb.0:
	sub	sp, sp, #32
	.cfi_def_cfa_offset 32
	stp	x29, x30, [sp, #16]             // 16-byte Folded Spill
	add	x29, sp, #16
	.cfi_def_cfa w29, 16
	.cfi_offset w30, -8
	.cfi_offset w29, -16
	str	x0, [sp, #8]
	ldr	x8, [sp, #8]
	str	x8, [sp]
	b	.LBB63_1
.LBB63_1:                               // =>This Inner Loop Header: Depth=1
	ldr	x8, [sp, #8]
	ldr	w8, [x8]
	cbz	w8, .LBB63_4
	b	.LBB63_2
.LBB63_2:                               //   in Loop: Header=BB63_1 Depth=1
	b	.LBB63_3
.LBB63_3:                               //   in Loop: Header=BB63_1 Depth=1
	ldr	x8, [sp, #8]
	add	x8, x8, #4
	str	x8, [sp, #8]
	b	.LBB63_1
.LBB63_4:
	ldr	x8, [sp, #8]
	ldr	x16, [sp]
	subs	x8, x8, x16
	asr	x0, x8, #2
	.cfi_def_cfa wsp, 32
	ldp	x29, x30, [sp, #16]             // 16-byte Folded Reload
	add	sp, sp, #32
	.cfi_def_cfa_offset 0
	.cfi_restore w30
	.cfi_restore w29
	mov	x1, #0                          // =0x0
	mov	x2, #0                          // =0x0
	mov	x3, #0                          // =0x0
	mov	x4, #0                          // =0x0
	mov	x5, #0                          // =0x0
	mov	x6, #0                          // =0x0
	mov	x7, #0                          // =0x0
	mov	x8, #0                          // =0x0
	mov	x16, #0                         // =0x0
	mov	x17, #0                         // =0x0
	movi	v0.2d, #0000000000000000
	movi	v1.2d, #0000000000000000
	movi	v2.2d, #0000000000000000
	movi	v3.2d, #0000000000000000
	movi	v4.2d, #0000000000000000
	movi	v5.2d, #0000000000000000
	movi	v6.2d, #0000000000000000
	movi	v7.2d, #0000000000000000
	movi	v16.2d, #0000000000000000
	movi	v17.2d, #0000000000000000
	movi	v18.2d, #0000000000000000
	movi	v19.2d, #0000000000000000
	movi	v20.2d, #0000000000000000
	movi	v21.2d, #0000000000000000
	movi	v22.2d, #0000000000000000
	movi	v23.2d, #0000000000000000
	movi	v24.2d, #0000000000000000
	movi	v25.2d, #0000000000000000
	movi	v26.2d, #0000000000000000
	movi	v27.2d, #0000000000000000
	movi	v28.2d, #0000000000000000
	movi	v29.2d, #0000000000000000
	movi	v30.2d, #0000000000000000
	movi	v31.2d, #0000000000000000
	ret
	dsb	sy
	isb
.Lfunc_end62:
	.size	wcslen, .Lfunc_end62-wcslen
	.cfi_endproc
                                        // -- End function
	.globl	wcsncmp                         // -- Begin function wcsncmp
	.p2align	2
	.type	wcsncmp,@function
wcsncmp:                                // @wcsncmp
	.cfi_startproc
// %bb.0:
	sub	sp, sp, #64
	.cfi_def_cfa_offset 64
	stp	x29, x30, [sp, #48]             // 16-byte Folded Spill
	add	x29, sp, #48
	.cfi_def_cfa w29, 16
	.cfi_offset w30, -8
	.cfi_offset w29, -16
	stur	x0, [x29, #-8]
	stur	x1, [x29, #-16]
	str	x2, [sp, #24]
	b	.LBB64_1
.LBB64_1:                               // =>This Inner Loop Header: Depth=1
	ldr	x8, [sp, #24]
	mov	w16, wzr
	str	w16, [sp, #20]                  // 4-byte Folded Spill
	cbz	x8, .LBB64_5
	b	.LBB64_2
.LBB64_2:                               //   in Loop: Header=BB64_1 Depth=1
	ldur	x8, [x29, #-8]
	ldr	w16, [x8]
	ldur	x8, [x29, #-16]
	ldr	w17, [x8]
	mov	w8, wzr
	subs	w16, w16, w17
	str	w8, [sp, #20]                   // 4-byte Folded Spill
	b.ne	.LBB64_5
	b	.LBB64_3
.LBB64_3:                               //   in Loop: Header=BB64_1 Depth=1
	ldur	x8, [x29, #-8]
	ldr	w8, [x8]
	mov	w16, wzr
	str	w16, [sp, #20]                  // 4-byte Folded Spill
	cbz	w8, .LBB64_5
	b	.LBB64_4
.LBB64_4:                               //   in Loop: Header=BB64_1 Depth=1
	ldur	x8, [x29, #-16]
	ldr	w8, [x8]
	subs	w8, w8, #0
	cset	w8, ne
	str	w8, [sp, #20]                   // 4-byte Folded Spill
	b	.LBB64_5
.LBB64_5:                               //   in Loop: Header=BB64_1 Depth=1
	ldr	w8, [sp, #20]                   // 4-byte Folded Reload
	tbz	w8, #0, .LBB64_8
	b	.LBB64_6
.LBB64_6:                               //   in Loop: Header=BB64_1 Depth=1
	b	.LBB64_7
.LBB64_7:                               //   in Loop: Header=BB64_1 Depth=1
	ldr	x8, [sp, #24]
	subs	x8, x8, #1
	str	x8, [sp, #24]
	ldur	x8, [x29, #-8]
	add	x8, x8, #4
	stur	x8, [x29, #-8]
	ldur	x8, [x29, #-16]
	add	x8, x8, #4
	stur	x8, [x29, #-16]
	b	.LBB64_1
.LBB64_8:
	ldr	x8, [sp, #24]
	cbz	x8, .LBB64_13
	b	.LBB64_9
.LBB64_9:
	ldur	x8, [x29, #-8]
	ldr	w8, [x8]
	ldur	x16, [x29, #-16]
	ldr	w16, [x16]
	subs	w8, w8, w16
	b.hs	.LBB64_11
	b	.LBB64_10
.LBB64_10:
	mov	w0, #-1                         // =0xffffffff
	str	w0, [sp, #16]                   // 4-byte Folded Spill
	b	.LBB64_12
.LBB64_11:
	ldur	x8, [x29, #-8]
	ldr	w8, [x8]
	ldur	x16, [x29, #-16]
	ldr	w16, [x16]
	subs	w8, w8, w16
	cset	w0, hi
	str	w0, [sp, #16]                   // 4-byte Folded Spill
	b	.LBB64_12
.LBB64_12:
	ldr	w0, [sp, #16]                   // 4-byte Folded Reload
	str	w0, [sp, #12]                   // 4-byte Folded Spill
	b	.LBB64_14
.LBB64_13:
	mov	w0, wzr
	str	w0, [sp, #12]                   // 4-byte Folded Spill
	b	.LBB64_14
.LBB64_14:
	ldr	w0, [sp, #12]                   // 4-byte Folded Reload
	.cfi_def_cfa wsp, 64
	ldp	x29, x30, [sp, #48]             // 16-byte Folded Reload
	add	sp, sp, #64
	.cfi_def_cfa_offset 0
	.cfi_restore w30
	.cfi_restore w29
	mov	x1, #0                          // =0x0
	mov	x2, #0                          // =0x0
	mov	x3, #0                          // =0x0
	mov	x4, #0                          // =0x0
	mov	x5, #0                          // =0x0
	mov	x6, #0                          // =0x0
	mov	x7, #0                          // =0x0
	mov	x8, #0                          // =0x0
	mov	x16, #0                         // =0x0
	mov	x17, #0                         // =0x0
	movi	v0.2d, #0000000000000000
	movi	v1.2d, #0000000000000000
	movi	v2.2d, #0000000000000000
	movi	v3.2d, #0000000000000000
	movi	v4.2d, #0000000000000000
	movi	v5.2d, #0000000000000000
	movi	v6.2d, #0000000000000000
	movi	v7.2d, #0000000000000000
	movi	v16.2d, #0000000000000000
	movi	v17.2d, #0000000000000000
	movi	v18.2d, #0000000000000000
	movi	v19.2d, #0000000000000000
	movi	v20.2d, #0000000000000000
	movi	v21.2d, #0000000000000000
	movi	v22.2d, #0000000000000000
	movi	v23.2d, #0000000000000000
	movi	v24.2d, #0000000000000000
	movi	v25.2d, #0000000000000000
	movi	v26.2d, #0000000000000000
	movi	v27.2d, #0000000000000000
	movi	v28.2d, #0000000000000000
	movi	v29.2d, #0000000000000000
	movi	v30.2d, #0000000000000000
	movi	v31.2d, #0000000000000000
	ret
	dsb	sy
	isb
.Lfunc_end63:
	.size	wcsncmp, .Lfunc_end63-wcsncmp
	.cfi_endproc
                                        // -- End function
	.globl	wmemchr                         // -- Begin function wmemchr
	.p2align	2
	.type	wmemchr,@function
wmemchr:                                // @wmemchr
	.cfi_startproc
// %bb.0:
	sub	sp, sp, #64
	.cfi_def_cfa_offset 64
	stp	x29, x30, [sp, #48]             // 16-byte Folded Spill
	add	x29, sp, #48
	.cfi_def_cfa w29, 16
	.cfi_offset w30, -8
	.cfi_offset w29, -16
	stur	x0, [x29, #-8]
	stur	w1, [x29, #-12]
	str	x2, [sp, #24]
	b	.LBB65_1
.LBB65_1:                               // =>This Inner Loop Header: Depth=1
	ldr	x8, [sp, #24]
	mov	w16, wzr
	str	w16, [sp, #20]                  // 4-byte Folded Spill
	cbz	x8, .LBB65_3
	b	.LBB65_2
.LBB65_2:                               //   in Loop: Header=BB65_1 Depth=1
	ldur	x8, [x29, #-8]
	ldr	w8, [x8]
	ldur	w16, [x29, #-12]
	subs	w8, w8, w16
	cset	w8, ne
	str	w8, [sp, #20]                   // 4-byte Folded Spill
	b	.LBB65_3
.LBB65_3:                               //   in Loop: Header=BB65_1 Depth=1
	ldr	w8, [sp, #20]                   // 4-byte Folded Reload
	tbz	w8, #0, .LBB65_6
	b	.LBB65_4
.LBB65_4:                               //   in Loop: Header=BB65_1 Depth=1
	b	.LBB65_5
.LBB65_5:                               //   in Loop: Header=BB65_1 Depth=1
	ldr	x8, [sp, #24]
	subs	x8, x8, #1
	str	x8, [sp, #24]
	ldur	x8, [x29, #-8]
	add	x8, x8, #4
	stur	x8, [x29, #-8]
	b	.LBB65_1
.LBB65_6:
	ldr	x8, [sp, #24]
	cbz	x8, .LBB65_8
	b	.LBB65_7
.LBB65_7:
	ldur	x0, [x29, #-8]
	str	x0, [sp, #8]                    // 8-byte Folded Spill
	b	.LBB65_9
.LBB65_8:
	mov	x0, xzr
	str	x0, [sp, #8]                    // 8-byte Folded Spill
	b	.LBB65_9
.LBB65_9:
	ldr	x0, [sp, #8]                    // 8-byte Folded Reload
	.cfi_def_cfa wsp, 64
	ldp	x29, x30, [sp, #48]             // 16-byte Folded Reload
	add	sp, sp, #64
	.cfi_def_cfa_offset 0
	.cfi_restore w30
	.cfi_restore w29
	mov	x1, #0                          // =0x0
	mov	x2, #0                          // =0x0
	mov	x3, #0                          // =0x0
	mov	x4, #0                          // =0x0
	mov	x5, #0                          // =0x0
	mov	x6, #0                          // =0x0
	mov	x7, #0                          // =0x0
	mov	x8, #0                          // =0x0
	mov	x16, #0                         // =0x0
	mov	x17, #0                         // =0x0
	movi	v0.2d, #0000000000000000
	movi	v1.2d, #0000000000000000
	movi	v2.2d, #0000000000000000
	movi	v3.2d, #0000000000000000
	movi	v4.2d, #0000000000000000
	movi	v5.2d, #0000000000000000
	movi	v6.2d, #0000000000000000
	movi	v7.2d, #0000000000000000
	movi	v16.2d, #0000000000000000
	movi	v17.2d, #0000000000000000
	movi	v18.2d, #0000000000000000
	movi	v19.2d, #0000000000000000
	movi	v20.2d, #0000000000000000
	movi	v21.2d, #0000000000000000
	movi	v22.2d, #0000000000000000
	movi	v23.2d, #0000000000000000
	movi	v24.2d, #0000000000000000
	movi	v25.2d, #0000000000000000
	movi	v26.2d, #0000000000000000
	movi	v27.2d, #0000000000000000
	movi	v28.2d, #0000000000000000
	movi	v29.2d, #0000000000000000
	movi	v30.2d, #0000000000000000
	movi	v31.2d, #0000000000000000
	ret
	dsb	sy
	isb
.Lfunc_end64:
	.size	wmemchr, .Lfunc_end64-wmemchr
	.cfi_endproc
                                        // -- End function
	.globl	wmemcmp                         // -- Begin function wmemcmp
	.p2align	2
	.type	wmemcmp,@function
wmemcmp:                                // @wmemcmp
	.cfi_startproc
// %bb.0:
	sub	sp, sp, #64
	.cfi_def_cfa_offset 64
	stp	x29, x30, [sp, #48]             // 16-byte Folded Spill
	add	x29, sp, #48
	.cfi_def_cfa w29, 16
	.cfi_offset w30, -8
	.cfi_offset w29, -16
	stur	x0, [x29, #-8]
	stur	x1, [x29, #-16]
	str	x2, [sp, #24]
	b	.LBB66_1
.LBB66_1:                               // =>This Inner Loop Header: Depth=1
	ldr	x8, [sp, #24]
	mov	w16, wzr
	str	w16, [sp, #20]                  // 4-byte Folded Spill
	cbz	x8, .LBB66_3
	b	.LBB66_2
.LBB66_2:                               //   in Loop: Header=BB66_1 Depth=1
	ldur	x8, [x29, #-8]
	ldr	w8, [x8]
	ldur	x16, [x29, #-16]
	ldr	w16, [x16]
	subs	w8, w8, w16
	cset	w8, eq
	str	w8, [sp, #20]                   // 4-byte Folded Spill
	b	.LBB66_3
.LBB66_3:                               //   in Loop: Header=BB66_1 Depth=1
	ldr	w8, [sp, #20]                   // 4-byte Folded Reload
	tbz	w8, #0, .LBB66_6
	b	.LBB66_4
.LBB66_4:                               //   in Loop: Header=BB66_1 Depth=1
	b	.LBB66_5
.LBB66_5:                               //   in Loop: Header=BB66_1 Depth=1
	ldr	x8, [sp, #24]
	subs	x8, x8, #1
	str	x8, [sp, #24]
	ldur	x8, [x29, #-8]
	add	x8, x8, #4
	stur	x8, [x29, #-8]
	ldur	x8, [x29, #-16]
	add	x8, x8, #4
	stur	x8, [x29, #-16]
	b	.LBB66_1
.LBB66_6:
	ldr	x8, [sp, #24]
	cbz	x8, .LBB66_11
	b	.LBB66_7
.LBB66_7:
	ldur	x8, [x29, #-8]
	ldr	w8, [x8]
	ldur	x16, [x29, #-16]
	ldr	w16, [x16]
	subs	w8, w8, w16
	b.hs	.LBB66_9
	b	.LBB66_8
.LBB66_8:
	mov	w0, #-1                         // =0xffffffff
	str	w0, [sp, #16]                   // 4-byte Folded Spill
	b	.LBB66_10
.LBB66_9:
	ldur	x8, [x29, #-8]
	ldr	w8, [x8]
	ldur	x16, [x29, #-16]
	ldr	w16, [x16]
	subs	w8, w8, w16
	cset	w0, hi
	str	w0, [sp, #16]                   // 4-byte Folded Spill
	b	.LBB66_10
.LBB66_10:
	ldr	w0, [sp, #16]                   // 4-byte Folded Reload
	str	w0, [sp, #12]                   // 4-byte Folded Spill
	b	.LBB66_12
.LBB66_11:
	mov	w0, wzr
	str	w0, [sp, #12]                   // 4-byte Folded Spill
	b	.LBB66_12
.LBB66_12:
	ldr	w0, [sp, #12]                   // 4-byte Folded Reload
	.cfi_def_cfa wsp, 64
	ldp	x29, x30, [sp, #48]             // 16-byte Folded Reload
	add	sp, sp, #64
	.cfi_def_cfa_offset 0
	.cfi_restore w30
	.cfi_restore w29
	mov	x1, #0                          // =0x0
	mov	x2, #0                          // =0x0
	mov	x3, #0                          // =0x0
	mov	x4, #0                          // =0x0
	mov	x5, #0                          // =0x0
	mov	x6, #0                          // =0x0
	mov	x7, #0                          // =0x0
	mov	x8, #0                          // =0x0
	mov	x16, #0                         // =0x0
	mov	x17, #0                         // =0x0
	movi	v0.2d, #0000000000000000
	movi	v1.2d, #0000000000000000
	movi	v2.2d, #0000000000000000
	movi	v3.2d, #0000000000000000
	movi	v4.2d, #0000000000000000
	movi	v5.2d, #0000000000000000
	movi	v6.2d, #0000000000000000
	movi	v7.2d, #0000000000000000
	movi	v16.2d, #0000000000000000
	movi	v17.2d, #0000000000000000
	movi	v18.2d, #0000000000000000
	movi	v19.2d, #0000000000000000
	movi	v20.2d, #0000000000000000
	movi	v21.2d, #0000000000000000
	movi	v22.2d, #0000000000000000
	movi	v23.2d, #0000000000000000
	movi	v24.2d, #0000000000000000
	movi	v25.2d, #0000000000000000
	movi	v26.2d, #0000000000000000
	movi	v27.2d, #0000000000000000
	movi	v28.2d, #0000000000000000
	movi	v29.2d, #0000000000000000
	movi	v30.2d, #0000000000000000
	movi	v31.2d, #0000000000000000
	ret
	dsb	sy
	isb
.Lfunc_end65:
	.size	wmemcmp, .Lfunc_end65-wmemcmp
	.cfi_endproc
                                        // -- End function
	.globl	wmemcpy                         // -- Begin function wmemcpy
	.p2align	2
	.type	wmemcpy,@function
wmemcpy:                                // @wmemcpy
	.cfi_startproc
// %bb.0:
	sub	sp, sp, #48
	.cfi_def_cfa_offset 48
	stp	x29, x30, [sp, #32]             // 16-byte Folded Spill
	add	x29, sp, #32
	.cfi_def_cfa w29, 16
	.cfi_offset w30, -8
	.cfi_offset w29, -16
	stur	x0, [x29, #-8]
	str	x1, [sp, #16]
	str	x2, [sp, #8]
	ldur	x8, [x29, #-8]
	str	x8, [sp]
	b	.LBB67_1
.LBB67_1:                               // =>This Inner Loop Header: Depth=1
	ldr	x8, [sp, #8]
	subs	x16, x8, #1
	str	x16, [sp, #8]
	cbz	x8, .LBB67_3
	b	.LBB67_2
.LBB67_2:                               //   in Loop: Header=BB67_1 Depth=1
	ldr	x8, [sp, #16]
	add	x16, x8, #4
	str	x16, [sp, #16]
	ldr	w8, [x8]
	ldur	x16, [x29, #-8]
	add	x17, x16, #4
	stur	x17, [x29, #-8]
	str	w8, [x16]
	b	.LBB67_1
.LBB67_3:
	ldr	x0, [sp]
	.cfi_def_cfa wsp, 48
	ldp	x29, x30, [sp, #32]             // 16-byte Folded Reload
	add	sp, sp, #48
	.cfi_def_cfa_offset 0
	.cfi_restore w30
	.cfi_restore w29
	mov	x1, #0                          // =0x0
	mov	x2, #0                          // =0x0
	mov	x3, #0                          // =0x0
	mov	x4, #0                          // =0x0
	mov	x5, #0                          // =0x0
	mov	x6, #0                          // =0x0
	mov	x7, #0                          // =0x0
	mov	x8, #0                          // =0x0
	mov	x16, #0                         // =0x0
	mov	x17, #0                         // =0x0
	movi	v0.2d, #0000000000000000
	movi	v1.2d, #0000000000000000
	movi	v2.2d, #0000000000000000
	movi	v3.2d, #0000000000000000
	movi	v4.2d, #0000000000000000
	movi	v5.2d, #0000000000000000
	movi	v6.2d, #0000000000000000
	movi	v7.2d, #0000000000000000
	movi	v16.2d, #0000000000000000
	movi	v17.2d, #0000000000000000
	movi	v18.2d, #0000000000000000
	movi	v19.2d, #0000000000000000
	movi	v20.2d, #0000000000000000
	movi	v21.2d, #0000000000000000
	movi	v22.2d, #0000000000000000
	movi	v23.2d, #0000000000000000
	movi	v24.2d, #0000000000000000
	movi	v25.2d, #0000000000000000
	movi	v26.2d, #0000000000000000
	movi	v27.2d, #0000000000000000
	movi	v28.2d, #0000000000000000
	movi	v29.2d, #0000000000000000
	movi	v30.2d, #0000000000000000
	movi	v31.2d, #0000000000000000
	ret
	dsb	sy
	isb
.Lfunc_end66:
	.size	wmemcpy, .Lfunc_end66-wmemcpy
	.cfi_endproc
                                        // -- End function
	.globl	wmemmove                        // -- Begin function wmemmove
	.p2align	2
	.type	wmemmove,@function
wmemmove:                               // @wmemmove
	.cfi_startproc
// %bb.0:
	sub	sp, sp, #64
	.cfi_def_cfa_offset 64
	stp	x29, x30, [sp, #48]             // 16-byte Folded Spill
	add	x29, sp, #48
	.cfi_def_cfa w29, 16
	.cfi_offset w30, -8
	.cfi_offset w29, -16
	stur	x0, [x29, #-16]
	str	x1, [sp, #24]
	str	x2, [sp, #16]
	ldur	x8, [x29, #-16]
	str	x8, [sp, #8]
	ldur	x8, [x29, #-16]
	ldr	x16, [sp, #24]
	subs	x8, x8, x16
	b.ne	.LBB68_2
	b	.LBB68_1
.LBB68_1:
	ldur	x8, [x29, #-16]
	stur	x8, [x29, #-8]
	b	.LBB68_12
.LBB68_2:
	ldur	x8, [x29, #-16]
	ldr	x16, [sp, #24]
	subs	x8, x8, x16
	ldr	x16, [sp, #16]
	subs	x8, x8, x16, lsl #2
	b.hs	.LBB68_7
	b	.LBB68_3
.LBB68_3:
	b	.LBB68_4
.LBB68_4:                               // =>This Inner Loop Header: Depth=1
	ldr	x8, [sp, #16]
	subs	x16, x8, #1
	str	x16, [sp, #16]
	cbz	x8, .LBB68_6
	b	.LBB68_5
.LBB68_5:                               //   in Loop: Header=BB68_4 Depth=1
	ldr	x8, [sp, #24]
	ldr	x17, [sp, #16]
	ldr	w8, [x8, x17, lsl #2]
	ldur	x16, [x29, #-16]
	str	w8, [x16, x17, lsl #2]
	b	.LBB68_4
.LBB68_6:
	b	.LBB68_11
.LBB68_7:
	b	.LBB68_8
.LBB68_8:                               // =>This Inner Loop Header: Depth=1
	ldr	x8, [sp, #16]
	subs	x16, x8, #1
	str	x16, [sp, #16]
	cbz	x8, .LBB68_10
	b	.LBB68_9
.LBB68_9:                               //   in Loop: Header=BB68_8 Depth=1
	ldr	x8, [sp, #24]
	add	x16, x8, #4
	str	x16, [sp, #24]
	ldr	w8, [x8]
	ldur	x16, [x29, #-16]
	add	x17, x16, #4
	stur	x17, [x29, #-16]
	str	w8, [x16]
	b	.LBB68_8
.LBB68_10:
	b	.LBB68_11
.LBB68_11:
	ldr	x8, [sp, #8]
	stur	x8, [x29, #-8]
	b	.LBB68_12
.LBB68_12:
	ldur	x0, [x29, #-8]
	.cfi_def_cfa wsp, 64
	ldp	x29, x30, [sp, #48]             // 16-byte Folded Reload
	add	sp, sp, #64
	.cfi_def_cfa_offset 0
	.cfi_restore w30
	.cfi_restore w29
	mov	x1, #0                          // =0x0
	mov	x2, #0                          // =0x0
	mov	x3, #0                          // =0x0
	mov	x4, #0                          // =0x0
	mov	x5, #0                          // =0x0
	mov	x6, #0                          // =0x0
	mov	x7, #0                          // =0x0
	mov	x8, #0                          // =0x0
	mov	x16, #0                         // =0x0
	mov	x17, #0                         // =0x0
	movi	v0.2d, #0000000000000000
	movi	v1.2d, #0000000000000000
	movi	v2.2d, #0000000000000000
	movi	v3.2d, #0000000000000000
	movi	v4.2d, #0000000000000000
	movi	v5.2d, #0000000000000000
	movi	v6.2d, #0000000000000000
	movi	v7.2d, #0000000000000000
	movi	v16.2d, #0000000000000000
	movi	v17.2d, #0000000000000000
	movi	v18.2d, #0000000000000000
	movi	v19.2d, #0000000000000000
	movi	v20.2d, #0000000000000000
	movi	v21.2d, #0000000000000000
	movi	v22.2d, #0000000000000000
	movi	v23.2d, #0000000000000000
	movi	v24.2d, #0000000000000000
	movi	v25.2d, #0000000000000000
	movi	v26.2d, #0000000000000000
	movi	v27.2d, #0000000000000000
	movi	v28.2d, #0000000000000000
	movi	v29.2d, #0000000000000000
	movi	v30.2d, #0000000000000000
	movi	v31.2d, #0000000000000000
	ret
	dsb	sy
	isb
.Lfunc_end67:
	.size	wmemmove, .Lfunc_end67-wmemmove
	.cfi_endproc
                                        // -- End function
	.globl	wmemset                         // -- Begin function wmemset
	.p2align	2
	.type	wmemset,@function
wmemset:                                // @wmemset
	.cfi_startproc
// %bb.0:
	sub	sp, sp, #48
	.cfi_def_cfa_offset 48
	stp	x29, x30, [sp, #32]             // 16-byte Folded Spill
	add	x29, sp, #32
	.cfi_def_cfa w29, 16
	.cfi_offset w30, -8
	.cfi_offset w29, -16
	stur	x0, [x29, #-8]
	stur	w1, [x29, #-12]
	str	x2, [sp, #8]
	ldur	x8, [x29, #-8]
	str	x8, [sp]
	b	.LBB69_1
.LBB69_1:                               // =>This Inner Loop Header: Depth=1
	ldr	x8, [sp, #8]
	subs	x16, x8, #1
	str	x16, [sp, #8]
	cbz	x8, .LBB69_3
	b	.LBB69_2
.LBB69_2:                               //   in Loop: Header=BB69_1 Depth=1
	ldur	w8, [x29, #-12]
	ldur	x16, [x29, #-8]
	add	x17, x16, #4
	stur	x17, [x29, #-8]
	str	w8, [x16]
	b	.LBB69_1
.LBB69_3:
	ldr	x0, [sp]
	.cfi_def_cfa wsp, 48
	ldp	x29, x30, [sp, #32]             // 16-byte Folded Reload
	add	sp, sp, #48
	.cfi_def_cfa_offset 0
	.cfi_restore w30
	.cfi_restore w29
	mov	x1, #0                          // =0x0
	mov	x2, #0                          // =0x0
	mov	x3, #0                          // =0x0
	mov	x4, #0                          // =0x0
	mov	x5, #0                          // =0x0
	mov	x6, #0                          // =0x0
	mov	x7, #0                          // =0x0
	mov	x8, #0                          // =0x0
	mov	x16, #0                         // =0x0
	mov	x17, #0                         // =0x0
	movi	v0.2d, #0000000000000000
	movi	v1.2d, #0000000000000000
	movi	v2.2d, #0000000000000000
	movi	v3.2d, #0000000000000000
	movi	v4.2d, #0000000000000000
	movi	v5.2d, #0000000000000000
	movi	v6.2d, #0000000000000000
	movi	v7.2d, #0000000000000000
	movi	v16.2d, #0000000000000000
	movi	v17.2d, #0000000000000000
	movi	v18.2d, #0000000000000000
	movi	v19.2d, #0000000000000000
	movi	v20.2d, #0000000000000000
	movi	v21.2d, #0000000000000000
	movi	v22.2d, #0000000000000000
	movi	v23.2d, #0000000000000000
	movi	v24.2d, #0000000000000000
	movi	v25.2d, #0000000000000000
	movi	v26.2d, #0000000000000000
	movi	v27.2d, #0000000000000000
	movi	v28.2d, #0000000000000000
	movi	v29.2d, #0000000000000000
	movi	v30.2d, #0000000000000000
	movi	v31.2d, #0000000000000000
	ret
	dsb	sy
	isb
.Lfunc_end68:
	.size	wmemset, .Lfunc_end68-wmemset
	.cfi_endproc
                                        // -- End function
	.globl	bcopy                           // -- Begin function bcopy
	.p2align	2
	.type	bcopy,@function
bcopy:                                  // @bcopy
	.cfi_startproc
// %bb.0:
	sub	sp, sp, #64
	.cfi_def_cfa_offset 64
	stp	x29, x30, [sp, #48]             // 16-byte Folded Spill
	add	x29, sp, #48
	.cfi_def_cfa w29, 16
	.cfi_offset w30, -8
	.cfi_offset w29, -16
	stur	x0, [x29, #-8]
	stur	x1, [x29, #-16]
	str	x2, [sp, #24]
	ldur	x8, [x29, #-8]
	str	x8, [sp, #16]
	ldur	x8, [x29, #-16]
	str	x8, [sp, #8]
	ldr	x8, [sp, #16]
	ldr	x16, [sp, #8]
	subs	x8, x8, x16
	b.hs	.LBB70_6
	b	.LBB70_1
.LBB70_1:
	ldr	x16, [sp, #24]
	ldr	x8, [sp, #16]
	add	x8, x8, x16
	str	x8, [sp, #16]
	ldr	x16, [sp, #24]
	ldr	x8, [sp, #8]
	add	x8, x8, x16
	str	x8, [sp, #8]
	b	.LBB70_2
.LBB70_2:                               // =>This Inner Loop Header: Depth=1
	ldr	x8, [sp, #24]
	cbz	x8, .LBB70_5
	b	.LBB70_3
.LBB70_3:                               //   in Loop: Header=BB70_2 Depth=1
	ldr	x8, [sp, #16]
	subs	x16, x8, #1
	str	x16, [sp, #16]
	ldurb	w8, [x8, #-1]
	ldr	x16, [sp, #8]
	subs	x17, x16, #1
	str	x17, [sp, #8]
	sturb	w8, [x16, #-1]
	b	.LBB70_4
.LBB70_4:                               //   in Loop: Header=BB70_2 Depth=1
	ldr	x8, [sp, #24]
	subs	x8, x8, #1
	str	x8, [sp, #24]
	b	.LBB70_2
.LBB70_5:
	b	.LBB70_13
.LBB70_6:
	ldr	x8, [sp, #16]
	ldr	x16, [sp, #8]
	subs	x8, x8, x16
	b.eq	.LBB70_12
	b	.LBB70_7
.LBB70_7:
	b	.LBB70_8
.LBB70_8:                               // =>This Inner Loop Header: Depth=1
	ldr	x8, [sp, #24]
	cbz	x8, .LBB70_11
	b	.LBB70_9
.LBB70_9:                               //   in Loop: Header=BB70_8 Depth=1
	ldr	x8, [sp, #16]
	add	x16, x8, #1
	str	x16, [sp, #16]
	ldrb	w8, [x8]
	ldr	x16, [sp, #8]
	add	x17, x16, #1
	str	x17, [sp, #8]
	strb	w8, [x16]
	b	.LBB70_10
.LBB70_10:                              //   in Loop: Header=BB70_8 Depth=1
	ldr	x8, [sp, #24]
	subs	x8, x8, #1
	str	x8, [sp, #24]
	b	.LBB70_8
.LBB70_11:
	b	.LBB70_12
.LBB70_12:
	b	.LBB70_13
.LBB70_13:
	.cfi_def_cfa wsp, 64
	ldp	x29, x30, [sp, #48]             // 16-byte Folded Reload
	add	sp, sp, #64
	.cfi_def_cfa_offset 0
	.cfi_restore w30
	.cfi_restore w29
	mov	x0, #0                          // =0x0
	mov	x1, #0                          // =0x0
	mov	x2, #0                          // =0x0
	mov	x3, #0                          // =0x0
	mov	x4, #0                          // =0x0
	mov	x5, #0                          // =0x0
	mov	x6, #0                          // =0x0
	mov	x7, #0                          // =0x0
	mov	x8, #0                          // =0x0
	mov	x16, #0                         // =0x0
	mov	x17, #0                         // =0x0
	movi	v0.2d, #0000000000000000
	movi	v1.2d, #0000000000000000
	movi	v2.2d, #0000000000000000
	movi	v3.2d, #0000000000000000
	movi	v4.2d, #0000000000000000
	movi	v5.2d, #0000000000000000
	movi	v6.2d, #0000000000000000
	movi	v7.2d, #0000000000000000
	movi	v16.2d, #0000000000000000
	movi	v17.2d, #0000000000000000
	movi	v18.2d, #0000000000000000
	movi	v19.2d, #0000000000000000
	movi	v20.2d, #0000000000000000
	movi	v21.2d, #0000000000000000
	movi	v22.2d, #0000000000000000
	movi	v23.2d, #0000000000000000
	movi	v24.2d, #0000000000000000
	movi	v25.2d, #0000000000000000
	movi	v26.2d, #0000000000000000
	movi	v27.2d, #0000000000000000
	movi	v28.2d, #0000000000000000
	movi	v29.2d, #0000000000000000
	movi	v30.2d, #0000000000000000
	movi	v31.2d, #0000000000000000
	ret
	dsb	sy
	isb
.Lfunc_end69:
	.size	bcopy, .Lfunc_end69-bcopy
	.cfi_endproc
                                        // -- End function
	.globl	rotl64                          // -- Begin function rotl64
	.p2align	2
	.type	rotl64,@function
rotl64:                                 // @rotl64
	.cfi_startproc
// %bb.0:
	sub	sp, sp, #32
	.cfi_def_cfa_offset 32
	stp	x29, x30, [sp, #16]             // 16-byte Folded Spill
	add	x29, sp, #16
	.cfi_def_cfa w29, 16
	.cfi_offset w30, -8
	.cfi_offset w29, -16
	str	x0, [sp, #8]
	str	w1, [sp, #4]
	ldr	x8, [sp, #8]
	ldr	w17, [sp, #4]
	mov	w16, wzr
	sub	w16, w16, w17
                                        // kill: def $x16 killed $w16
	ror	x0, x8, x16
	.cfi_def_cfa wsp, 32
	ldp	x29, x30, [sp, #16]             // 16-byte Folded Reload
	add	sp, sp, #32
	.cfi_def_cfa_offset 0
	.cfi_restore w30
	.cfi_restore w29
	mov	x1, #0                          // =0x0
	mov	x2, #0                          // =0x0
	mov	x3, #0                          // =0x0
	mov	x4, #0                          // =0x0
	mov	x5, #0                          // =0x0
	mov	x6, #0                          // =0x0
	mov	x7, #0                          // =0x0
	mov	x8, #0                          // =0x0
	mov	x16, #0                         // =0x0
	mov	x17, #0                         // =0x0
	movi	v0.2d, #0000000000000000
	movi	v1.2d, #0000000000000000
	movi	v2.2d, #0000000000000000
	movi	v3.2d, #0000000000000000
	movi	v4.2d, #0000000000000000
	movi	v5.2d, #0000000000000000
	movi	v6.2d, #0000000000000000
	movi	v7.2d, #0000000000000000
	movi	v16.2d, #0000000000000000
	movi	v17.2d, #0000000000000000
	movi	v18.2d, #0000000000000000
	movi	v19.2d, #0000000000000000
	movi	v20.2d, #0000000000000000
	movi	v21.2d, #0000000000000000
	movi	v22.2d, #0000000000000000
	movi	v23.2d, #0000000000000000
	movi	v24.2d, #0000000000000000
	movi	v25.2d, #0000000000000000
	movi	v26.2d, #0000000000000000
	movi	v27.2d, #0000000000000000
	movi	v28.2d, #0000000000000000
	movi	v29.2d, #0000000000000000
	movi	v30.2d, #0000000000000000
	movi	v31.2d, #0000000000000000
	ret
	dsb	sy
	isb
.Lfunc_end70:
	.size	rotl64, .Lfunc_end70-rotl64
	.cfi_endproc
                                        // -- End function
	.globl	rotr64                          // -- Begin function rotr64
	.p2align	2
	.type	rotr64,@function
rotr64:                                 // @rotr64
	.cfi_startproc
// %bb.0:
	sub	sp, sp, #32
	.cfi_def_cfa_offset 32
	stp	x29, x30, [sp, #16]             // 16-byte Folded Spill
	add	x29, sp, #16
	.cfi_def_cfa w29, 16
	.cfi_offset w30, -8
	.cfi_offset w29, -16
	str	x0, [sp, #8]
	str	w1, [sp, #4]
	ldr	x8, [sp, #8]
	ldr	w16, [sp, #4]
                                        // kill: def $x16 killed $w16
	ror	x0, x8, x16
	.cfi_def_cfa wsp, 32
	ldp	x29, x30, [sp, #16]             // 16-byte Folded Reload
	add	sp, sp, #32
	.cfi_def_cfa_offset 0
	.cfi_restore w30
	.cfi_restore w29
	mov	x1, #0                          // =0x0
	mov	x2, #0                          // =0x0
	mov	x3, #0                          // =0x0
	mov	x4, #0                          // =0x0
	mov	x5, #0                          // =0x0
	mov	x6, #0                          // =0x0
	mov	x7, #0                          // =0x0
	mov	x8, #0                          // =0x0
	mov	x16, #0                         // =0x0
	mov	x17, #0                         // =0x0
	movi	v0.2d, #0000000000000000
	movi	v1.2d, #0000000000000000
	movi	v2.2d, #0000000000000000
	movi	v3.2d, #0000000000000000
	movi	v4.2d, #0000000000000000
	movi	v5.2d, #0000000000000000
	movi	v6.2d, #0000000000000000
	movi	v7.2d, #0000000000000000
	movi	v16.2d, #0000000000000000
	movi	v17.2d, #0000000000000000
	movi	v18.2d, #0000000000000000
	movi	v19.2d, #0000000000000000
	movi	v20.2d, #0000000000000000
	movi	v21.2d, #0000000000000000
	movi	v22.2d, #0000000000000000
	movi	v23.2d, #0000000000000000
	movi	v24.2d, #0000000000000000
	movi	v25.2d, #0000000000000000
	movi	v26.2d, #0000000000000000
	movi	v27.2d, #0000000000000000
	movi	v28.2d, #0000000000000000
	movi	v29.2d, #0000000000000000
	movi	v30.2d, #0000000000000000
	movi	v31.2d, #0000000000000000
	ret
	dsb	sy
	isb
.Lfunc_end71:
	.size	rotr64, .Lfunc_end71-rotr64
	.cfi_endproc
                                        // -- End function
	.globl	rotl32                          // -- Begin function rotl32
	.p2align	2
	.type	rotl32,@function
rotl32:                                 // @rotl32
	.cfi_startproc
// %bb.0:
	sub	sp, sp, #32
	.cfi_def_cfa_offset 32
	stp	x29, x30, [sp, #16]             // 16-byte Folded Spill
	add	x29, sp, #16
	.cfi_def_cfa w29, 16
	.cfi_offset w30, -8
	.cfi_offset w29, -16
	stur	w0, [x29, #-4]
	str	w1, [sp, #8]
	ldur	w8, [x29, #-4]
	ldr	w17, [sp, #8]
	mov	w16, wzr
	sub	w16, w16, w17
	ror	w0, w8, w16
	.cfi_def_cfa wsp, 32
	ldp	x29, x30, [sp, #16]             // 16-byte Folded Reload
	add	sp, sp, #32
	.cfi_def_cfa_offset 0
	.cfi_restore w30
	.cfi_restore w29
	mov	x1, #0                          // =0x0
	mov	x2, #0                          // =0x0
	mov	x3, #0                          // =0x0
	mov	x4, #0                          // =0x0
	mov	x5, #0                          // =0x0
	mov	x6, #0                          // =0x0
	mov	x7, #0                          // =0x0
	mov	x8, #0                          // =0x0
	mov	x16, #0                         // =0x0
	mov	x17, #0                         // =0x0
	movi	v0.2d, #0000000000000000
	movi	v1.2d, #0000000000000000
	movi	v2.2d, #0000000000000000
	movi	v3.2d, #0000000000000000
	movi	v4.2d, #0000000000000000
	movi	v5.2d, #0000000000000000
	movi	v6.2d, #0000000000000000
	movi	v7.2d, #0000000000000000
	movi	v16.2d, #0000000000000000
	movi	v17.2d, #0000000000000000
	movi	v18.2d, #0000000000000000
	movi	v19.2d, #0000000000000000
	movi	v20.2d, #0000000000000000
	movi	v21.2d, #0000000000000000
	movi	v22.2d, #0000000000000000
	movi	v23.2d, #0000000000000000
	movi	v24.2d, #0000000000000000
	movi	v25.2d, #0000000000000000
	movi	v26.2d, #0000000000000000
	movi	v27.2d, #0000000000000000
	movi	v28.2d, #0000000000000000
	movi	v29.2d, #0000000000000000
	movi	v30.2d, #0000000000000000
	movi	v31.2d, #0000000000000000
	ret
	dsb	sy
	isb
.Lfunc_end72:
	.size	rotl32, .Lfunc_end72-rotl32
	.cfi_endproc
                                        // -- End function
	.globl	rotr32                          // -- Begin function rotr32
	.p2align	2
	.type	rotr32,@function
rotr32:                                 // @rotr32
	.cfi_startproc
// %bb.0:
	sub	sp, sp, #32
	.cfi_def_cfa_offset 32
	stp	x29, x30, [sp, #16]             // 16-byte Folded Spill
	add	x29, sp, #16
	.cfi_def_cfa w29, 16
	.cfi_offset w30, -8
	.cfi_offset w29, -16
	stur	w0, [x29, #-4]
	str	w1, [sp, #8]
	ldur	w8, [x29, #-4]
	ldr	w16, [sp, #8]
	mov	w0, w16
	mov	w16, w0
	ror	w0, w8, w16
	.cfi_def_cfa wsp, 32
	ldp	x29, x30, [sp, #16]             // 16-byte Folded Reload
	add	sp, sp, #32
	.cfi_def_cfa_offset 0
	.cfi_restore w30
	.cfi_restore w29
	mov	x1, #0                          // =0x0
	mov	x2, #0                          // =0x0
	mov	x3, #0                          // =0x0
	mov	x4, #0                          // =0x0
	mov	x5, #0                          // =0x0
	mov	x6, #0                          // =0x0
	mov	x7, #0                          // =0x0
	mov	x8, #0                          // =0x0
	mov	x16, #0                         // =0x0
	mov	x17, #0                         // =0x0
	movi	v0.2d, #0000000000000000
	movi	v1.2d, #0000000000000000
	movi	v2.2d, #0000000000000000
	movi	v3.2d, #0000000000000000
	movi	v4.2d, #0000000000000000
	movi	v5.2d, #0000000000000000
	movi	v6.2d, #0000000000000000
	movi	v7.2d, #0000000000000000
	movi	v16.2d, #0000000000000000
	movi	v17.2d, #0000000000000000
	movi	v18.2d, #0000000000000000
	movi	v19.2d, #0000000000000000
	movi	v20.2d, #0000000000000000
	movi	v21.2d, #0000000000000000
	movi	v22.2d, #0000000000000000
	movi	v23.2d, #0000000000000000
	movi	v24.2d, #0000000000000000
	movi	v25.2d, #0000000000000000
	movi	v26.2d, #0000000000000000
	movi	v27.2d, #0000000000000000
	movi	v28.2d, #0000000000000000
	movi	v29.2d, #0000000000000000
	movi	v30.2d, #0000000000000000
	movi	v31.2d, #0000000000000000
	ret
	dsb	sy
	isb
.Lfunc_end73:
	.size	rotr32, .Lfunc_end73-rotr32
	.cfi_endproc
                                        // -- End function
	.globl	rotl_sz                         // -- Begin function rotl_sz
	.p2align	2
	.type	rotl_sz,@function
rotl_sz:                                // @rotl_sz
	.cfi_startproc
// %bb.0:
	sub	sp, sp, #32
	.cfi_def_cfa_offset 32
	stp	x29, x30, [sp, #16]             // 16-byte Folded Spill
	add	x29, sp, #16
	.cfi_def_cfa w29, 16
	.cfi_offset w30, -8
	.cfi_offset w29, -16
	str	x0, [sp, #8]
	str	w1, [sp, #4]
	ldr	x16, [sp, #8]
	ldrsw	x0, [sp, #4]
	lsl	x8, x16, x0
	mov	x17, xzr
	sub	x17, x17, x0
	lsr	x16, x16, x17
	orr	x0, x8, x16
	.cfi_def_cfa wsp, 32
	ldp	x29, x30, [sp, #16]             // 16-byte Folded Reload
	add	sp, sp, #32
	.cfi_def_cfa_offset 0
	.cfi_restore w30
	.cfi_restore w29
	mov	x1, #0                          // =0x0
	mov	x2, #0                          // =0x0
	mov	x3, #0                          // =0x0
	mov	x4, #0                          // =0x0
	mov	x5, #0                          // =0x0
	mov	x6, #0                          // =0x0
	mov	x7, #0                          // =0x0
	mov	x8, #0                          // =0x0
	mov	x16, #0                         // =0x0
	mov	x17, #0                         // =0x0
	movi	v0.2d, #0000000000000000
	movi	v1.2d, #0000000000000000
	movi	v2.2d, #0000000000000000
	movi	v3.2d, #0000000000000000
	movi	v4.2d, #0000000000000000
	movi	v5.2d, #0000000000000000
	movi	v6.2d, #0000000000000000
	movi	v7.2d, #0000000000000000
	movi	v16.2d, #0000000000000000
	movi	v17.2d, #0000000000000000
	movi	v18.2d, #0000000000000000
	movi	v19.2d, #0000000000000000
	movi	v20.2d, #0000000000000000
	movi	v21.2d, #0000000000000000
	movi	v22.2d, #0000000000000000
	movi	v23.2d, #0000000000000000
	movi	v24.2d, #0000000000000000
	movi	v25.2d, #0000000000000000
	movi	v26.2d, #0000000000000000
	movi	v27.2d, #0000000000000000
	movi	v28.2d, #0000000000000000
	movi	v29.2d, #0000000000000000
	movi	v30.2d, #0000000000000000
	movi	v31.2d, #0000000000000000
	ret
	dsb	sy
	isb
.Lfunc_end74:
	.size	rotl_sz, .Lfunc_end74-rotl_sz
	.cfi_endproc
                                        // -- End function
	.globl	rotr_sz                         // -- Begin function rotr_sz
	.p2align	2
	.type	rotr_sz,@function
rotr_sz:                                // @rotr_sz
	.cfi_startproc
// %bb.0:
	sub	sp, sp, #32
	.cfi_def_cfa_offset 32
	stp	x29, x30, [sp, #16]             // 16-byte Folded Spill
	add	x29, sp, #16
	.cfi_def_cfa w29, 16
	.cfi_offset w30, -8
	.cfi_offset w29, -16
	str	x0, [sp, #8]
	str	w1, [sp, #4]
	ldr	x16, [sp, #8]
	ldrsw	x0, [sp, #4]
	lsr	x8, x16, x0
	mov	x17, xzr
	sub	x17, x17, x0
	lsl	x16, x16, x17
	orr	x0, x8, x16
	.cfi_def_cfa wsp, 32
	ldp	x29, x30, [sp, #16]             // 16-byte Folded Reload
	add	sp, sp, #32
	.cfi_def_cfa_offset 0
	.cfi_restore w30
	.cfi_restore w29
	mov	x1, #0                          // =0x0
	mov	x2, #0                          // =0x0
	mov	x3, #0                          // =0x0
	mov	x4, #0                          // =0x0
	mov	x5, #0                          // =0x0
	mov	x6, #0                          // =0x0
	mov	x7, #0                          // =0x0
	mov	x8, #0                          // =0x0
	mov	x16, #0                         // =0x0
	mov	x17, #0                         // =0x0
	movi	v0.2d, #0000000000000000
	movi	v1.2d, #0000000000000000
	movi	v2.2d, #0000000000000000
	movi	v3.2d, #0000000000000000
	movi	v4.2d, #0000000000000000
	movi	v5.2d, #0000000000000000
	movi	v6.2d, #0000000000000000
	movi	v7.2d, #0000000000000000
	movi	v16.2d, #0000000000000000
	movi	v17.2d, #0000000000000000
	movi	v18.2d, #0000000000000000
	movi	v19.2d, #0000000000000000
	movi	v20.2d, #0000000000000000
	movi	v21.2d, #0000000000000000
	movi	v22.2d, #0000000000000000
	movi	v23.2d, #0000000000000000
	movi	v24.2d, #0000000000000000
	movi	v25.2d, #0000000000000000
	movi	v26.2d, #0000000000000000
	movi	v27.2d, #0000000000000000
	movi	v28.2d, #0000000000000000
	movi	v29.2d, #0000000000000000
	movi	v30.2d, #0000000000000000
	movi	v31.2d, #0000000000000000
	ret
	dsb	sy
	isb
.Lfunc_end75:
	.size	rotr_sz, .Lfunc_end75-rotr_sz
	.cfi_endproc
                                        // -- End function
	.globl	rotl16                          // -- Begin function rotl16
	.p2align	2
	.type	rotl16,@function
rotl16:                                 // @rotl16
	.cfi_startproc
// %bb.0:
	sub	sp, sp, #32
	.cfi_def_cfa_offset 32
	stp	x29, x30, [sp, #16]             // 16-byte Folded Spill
	add	x29, sp, #16
	.cfi_def_cfa w29, 16
	.cfi_offset w30, -8
	.cfi_offset w29, -16
	sturh	w0, [x29, #-2]
	str	w1, [sp, #8]
	ldurh	w16, [x29, #-2]
	ldr	w8, [sp, #8]
	mov	w0, w8
                                        // kill: def $w0 killed $w0 killed $x0
	lsl	w8, w16, w0
	mov	w17, #16                        // =0x10
	subs	w17, w17, w0
	lsr	w16, w16, w17
	orr	w8, w8, w16
	and	w0, w8, #0xffff
	.cfi_def_cfa wsp, 32
	ldp	x29, x30, [sp, #16]             // 16-byte Folded Reload
	add	sp, sp, #32
	.cfi_def_cfa_offset 0
	.cfi_restore w30
	.cfi_restore w29
	mov	x1, #0                          // =0x0
	mov	x2, #0                          // =0x0
	mov	x3, #0                          // =0x0
	mov	x4, #0                          // =0x0
	mov	x5, #0                          // =0x0
	mov	x6, #0                          // =0x0
	mov	x7, #0                          // =0x0
	mov	x8, #0                          // =0x0
	mov	x16, #0                         // =0x0
	mov	x17, #0                         // =0x0
	movi	v0.2d, #0000000000000000
	movi	v1.2d, #0000000000000000
	movi	v2.2d, #0000000000000000
	movi	v3.2d, #0000000000000000
	movi	v4.2d, #0000000000000000
	movi	v5.2d, #0000000000000000
	movi	v6.2d, #0000000000000000
	movi	v7.2d, #0000000000000000
	movi	v16.2d, #0000000000000000
	movi	v17.2d, #0000000000000000
	movi	v18.2d, #0000000000000000
	movi	v19.2d, #0000000000000000
	movi	v20.2d, #0000000000000000
	movi	v21.2d, #0000000000000000
	movi	v22.2d, #0000000000000000
	movi	v23.2d, #0000000000000000
	movi	v24.2d, #0000000000000000
	movi	v25.2d, #0000000000000000
	movi	v26.2d, #0000000000000000
	movi	v27.2d, #0000000000000000
	movi	v28.2d, #0000000000000000
	movi	v29.2d, #0000000000000000
	movi	v30.2d, #0000000000000000
	movi	v31.2d, #0000000000000000
	ret
	dsb	sy
	isb
.Lfunc_end76:
	.size	rotl16, .Lfunc_end76-rotl16
	.cfi_endproc
                                        // -- End function
	.globl	rotr16                          // -- Begin function rotr16
	.p2align	2
	.type	rotr16,@function
rotr16:                                 // @rotr16
	.cfi_startproc
// %bb.0:
	sub	sp, sp, #32
	.cfi_def_cfa_offset 32
	stp	x29, x30, [sp, #16]             // 16-byte Folded Spill
	add	x29, sp, #16
	.cfi_def_cfa w29, 16
	.cfi_offset w30, -8
	.cfi_offset w29, -16
	sturh	w0, [x29, #-2]
	str	w1, [sp, #8]
	ldurh	w16, [x29, #-2]
	ldr	w8, [sp, #8]
	mov	w0, w8
                                        // kill: def $w0 killed $w0 killed $x0
	lsr	w8, w16, w0
	mov	w17, #16                        // =0x10
	subs	w17, w17, w0
	lsl	w16, w16, w17
	orr	w8, w8, w16
	and	w0, w8, #0xffff
	.cfi_def_cfa wsp, 32
	ldp	x29, x30, [sp, #16]             // 16-byte Folded Reload
	add	sp, sp, #32
	.cfi_def_cfa_offset 0
	.cfi_restore w30
	.cfi_restore w29
	mov	x1, #0                          // =0x0
	mov	x2, #0                          // =0x0
	mov	x3, #0                          // =0x0
	mov	x4, #0                          // =0x0
	mov	x5, #0                          // =0x0
	mov	x6, #0                          // =0x0
	mov	x7, #0                          // =0x0
	mov	x8, #0                          // =0x0
	mov	x16, #0                         // =0x0
	mov	x17, #0                         // =0x0
	movi	v0.2d, #0000000000000000
	movi	v1.2d, #0000000000000000
	movi	v2.2d, #0000000000000000
	movi	v3.2d, #0000000000000000
	movi	v4.2d, #0000000000000000
	movi	v5.2d, #0000000000000000
	movi	v6.2d, #0000000000000000
	movi	v7.2d, #0000000000000000
	movi	v16.2d, #0000000000000000
	movi	v17.2d, #0000000000000000
	movi	v18.2d, #0000000000000000
	movi	v19.2d, #0000000000000000
	movi	v20.2d, #0000000000000000
	movi	v21.2d, #0000000000000000
	movi	v22.2d, #0000000000000000
	movi	v23.2d, #0000000000000000
	movi	v24.2d, #0000000000000000
	movi	v25.2d, #0000000000000000
	movi	v26.2d, #0000000000000000
	movi	v27.2d, #0000000000000000
	movi	v28.2d, #0000000000000000
	movi	v29.2d, #0000000000000000
	movi	v30.2d, #0000000000000000
	movi	v31.2d, #0000000000000000
	ret
	dsb	sy
	isb
.Lfunc_end77:
	.size	rotr16, .Lfunc_end77-rotr16
	.cfi_endproc
                                        // -- End function
	.globl	rotl8                           // -- Begin function rotl8
	.p2align	2
	.type	rotl8,@function
rotl8:                                  // @rotl8
	.cfi_startproc
// %bb.0:
	sub	sp, sp, #32
	.cfi_def_cfa_offset 32
	stp	x29, x30, [sp, #16]             // 16-byte Folded Spill
	add	x29, sp, #16
	.cfi_def_cfa w29, 16
	.cfi_offset w30, -8
	.cfi_offset w29, -16
	sturb	w0, [x29, #-1]
	str	w1, [sp, #8]
	ldurb	w16, [x29, #-1]
	ldr	w8, [sp, #8]
	mov	w0, w8
                                        // kill: def $w0 killed $w0 killed $x0
	lsl	w8, w16, w0
	mov	w17, #8                         // =0x8
	subs	w17, w17, w0
	lsr	w16, w16, w17
	orr	w8, w8, w16
	and	w0, w8, #0xff
	.cfi_def_cfa wsp, 32
	ldp	x29, x30, [sp, #16]             // 16-byte Folded Reload
	add	sp, sp, #32
	.cfi_def_cfa_offset 0
	.cfi_restore w30
	.cfi_restore w29
	mov	x1, #0                          // =0x0
	mov	x2, #0                          // =0x0
	mov	x3, #0                          // =0x0
	mov	x4, #0                          // =0x0
	mov	x5, #0                          // =0x0
	mov	x6, #0                          // =0x0
	mov	x7, #0                          // =0x0
	mov	x8, #0                          // =0x0
	mov	x16, #0                         // =0x0
	mov	x17, #0                         // =0x0
	movi	v0.2d, #0000000000000000
	movi	v1.2d, #0000000000000000
	movi	v2.2d, #0000000000000000
	movi	v3.2d, #0000000000000000
	movi	v4.2d, #0000000000000000
	movi	v5.2d, #0000000000000000
	movi	v6.2d, #0000000000000000
	movi	v7.2d, #0000000000000000
	movi	v16.2d, #0000000000000000
	movi	v17.2d, #0000000000000000
	movi	v18.2d, #0000000000000000
	movi	v19.2d, #0000000000000000
	movi	v20.2d, #0000000000000000
	movi	v21.2d, #0000000000000000
	movi	v22.2d, #0000000000000000
	movi	v23.2d, #0000000000000000
	movi	v24.2d, #0000000000000000
	movi	v25.2d, #0000000000000000
	movi	v26.2d, #0000000000000000
	movi	v27.2d, #0000000000000000
	movi	v28.2d, #0000000000000000
	movi	v29.2d, #0000000000000000
	movi	v30.2d, #0000000000000000
	movi	v31.2d, #0000000000000000
	ret
	dsb	sy
	isb
.Lfunc_end78:
	.size	rotl8, .Lfunc_end78-rotl8
	.cfi_endproc
                                        // -- End function
	.globl	rotr8                           // -- Begin function rotr8
	.p2align	2
	.type	rotr8,@function
rotr8:                                  // @rotr8
	.cfi_startproc
// %bb.0:
	sub	sp, sp, #32
	.cfi_def_cfa_offset 32
	stp	x29, x30, [sp, #16]             // 16-byte Folded Spill
	add	x29, sp, #16
	.cfi_def_cfa w29, 16
	.cfi_offset w30, -8
	.cfi_offset w29, -16
	sturb	w0, [x29, #-1]
	str	w1, [sp, #8]
	ldurb	w16, [x29, #-1]
	ldr	w8, [sp, #8]
	mov	w0, w8
                                        // kill: def $w0 killed $w0 killed $x0
	lsr	w8, w16, w0
	mov	w17, #8                         // =0x8
	subs	w17, w17, w0
	lsl	w16, w16, w17
	orr	w8, w8, w16
	and	w0, w8, #0xff
	.cfi_def_cfa wsp, 32
	ldp	x29, x30, [sp, #16]             // 16-byte Folded Reload
	add	sp, sp, #32
	.cfi_def_cfa_offset 0
	.cfi_restore w30
	.cfi_restore w29
	mov	x1, #0                          // =0x0
	mov	x2, #0                          // =0x0
	mov	x3, #0                          // =0x0
	mov	x4, #0                          // =0x0
	mov	x5, #0                          // =0x0
	mov	x6, #0                          // =0x0
	mov	x7, #0                          // =0x0
	mov	x8, #0                          // =0x0
	mov	x16, #0                         // =0x0
	mov	x17, #0                         // =0x0
	movi	v0.2d, #0000000000000000
	movi	v1.2d, #0000000000000000
	movi	v2.2d, #0000000000000000
	movi	v3.2d, #0000000000000000
	movi	v4.2d, #0000000000000000
	movi	v5.2d, #0000000000000000
	movi	v6.2d, #0000000000000000
	movi	v7.2d, #0000000000000000
	movi	v16.2d, #0000000000000000
	movi	v17.2d, #0000000000000000
	movi	v18.2d, #0000000000000000
	movi	v19.2d, #0000000000000000
	movi	v20.2d, #0000000000000000
	movi	v21.2d, #0000000000000000
	movi	v22.2d, #0000000000000000
	movi	v23.2d, #0000000000000000
	movi	v24.2d, #0000000000000000
	movi	v25.2d, #0000000000000000
	movi	v26.2d, #0000000000000000
	movi	v27.2d, #0000000000000000
	movi	v28.2d, #0000000000000000
	movi	v29.2d, #0000000000000000
	movi	v30.2d, #0000000000000000
	movi	v31.2d, #0000000000000000
	ret
	dsb	sy
	isb
.Lfunc_end79:
	.size	rotr8, .Lfunc_end79-rotr8
	.cfi_endproc
                                        // -- End function
	.globl	bswap_16                        // -- Begin function bswap_16
	.p2align	2
	.type	bswap_16,@function
bswap_16:                               // @bswap_16
	.cfi_startproc
// %bb.0:
	sub	sp, sp, #32
	.cfi_def_cfa_offset 32
	stp	x29, x30, [sp, #16]             // 16-byte Folded Spill
	add	x29, sp, #16
	.cfi_def_cfa w29, 16
	.cfi_offset w30, -8
	.cfi_offset w29, -16
	sturh	w0, [x29, #-2]
	mov	w8, #255                        // =0xff
	sturh	w8, [x29, #-4]
	ldurh	w16, [x29, #-2]
	ldurh	w17, [x29, #-4]
	and	w8, w16, w17, lsl #8
	lsr	w8, w8, #8
	and	w16, w16, w17
	orr	w0, w8, w16, lsl #8
	.cfi_def_cfa wsp, 32
	ldp	x29, x30, [sp, #16]             // 16-byte Folded Reload
	add	sp, sp, #32
	.cfi_def_cfa_offset 0
	.cfi_restore w30
	.cfi_restore w29
	mov	x1, #0                          // =0x0
	mov	x2, #0                          // =0x0
	mov	x3, #0                          // =0x0
	mov	x4, #0                          // =0x0
	mov	x5, #0                          // =0x0
	mov	x6, #0                          // =0x0
	mov	x7, #0                          // =0x0
	mov	x8, #0                          // =0x0
	mov	x16, #0                         // =0x0
	mov	x17, #0                         // =0x0
	movi	v0.2d, #0000000000000000
	movi	v1.2d, #0000000000000000
	movi	v2.2d, #0000000000000000
	movi	v3.2d, #0000000000000000
	movi	v4.2d, #0000000000000000
	movi	v5.2d, #0000000000000000
	movi	v6.2d, #0000000000000000
	movi	v7.2d, #0000000000000000
	movi	v16.2d, #0000000000000000
	movi	v17.2d, #0000000000000000
	movi	v18.2d, #0000000000000000
	movi	v19.2d, #0000000000000000
	movi	v20.2d, #0000000000000000
	movi	v21.2d, #0000000000000000
	movi	v22.2d, #0000000000000000
	movi	v23.2d, #0000000000000000
	movi	v24.2d, #0000000000000000
	movi	v25.2d, #0000000000000000
	movi	v26.2d, #0000000000000000
	movi	v27.2d, #0000000000000000
	movi	v28.2d, #0000000000000000
	movi	v29.2d, #0000000000000000
	movi	v30.2d, #0000000000000000
	movi	v31.2d, #0000000000000000
	ret
	dsb	sy
	isb
.Lfunc_end80:
	.size	bswap_16, .Lfunc_end80-bswap_16
	.cfi_endproc
                                        // -- End function
	.globl	bswap_32                        // -- Begin function bswap_32
	.p2align	2
	.type	bswap_32,@function
bswap_32:                               // @bswap_32
	.cfi_startproc
// %bb.0:
	sub	sp, sp, #32
	.cfi_def_cfa_offset 32
	stp	x29, x30, [sp, #16]             // 16-byte Folded Spill
	add	x29, sp, #16
	.cfi_def_cfa w29, 16
	.cfi_offset w30, -8
	.cfi_offset w29, -16
	stur	w0, [x29, #-4]
	mov	w8, #255                        // =0xff
	str	w8, [sp, #8]
	ldur	w16, [x29, #-4]
	ldr	w17, [sp, #8]
	and	w1, w16, w17, lsl #24
	lsl	w0, w17, #16
	and	w8, w16, w0
	lsr	w8, w8, #8
	bfxil	w8, w1, #24, #8
	and	w0, w0, w16, lsl #8
	orr	w8, w8, w0
	and	w16, w16, w17
	orr	w0, w8, w16, lsl #24
	.cfi_def_cfa wsp, 32
	ldp	x29, x30, [sp, #16]             // 16-byte Folded Reload
	add	sp, sp, #32
	.cfi_def_cfa_offset 0
	.cfi_restore w30
	.cfi_restore w29
	mov	x1, #0                          // =0x0
	mov	x2, #0                          // =0x0
	mov	x3, #0                          // =0x0
	mov	x4, #0                          // =0x0
	mov	x5, #0                          // =0x0
	mov	x6, #0                          // =0x0
	mov	x7, #0                          // =0x0
	mov	x8, #0                          // =0x0
	mov	x16, #0                         // =0x0
	mov	x17, #0                         // =0x0
	movi	v0.2d, #0000000000000000
	movi	v1.2d, #0000000000000000
	movi	v2.2d, #0000000000000000
	movi	v3.2d, #0000000000000000
	movi	v4.2d, #0000000000000000
	movi	v5.2d, #0000000000000000
	movi	v6.2d, #0000000000000000
	movi	v7.2d, #0000000000000000
	movi	v16.2d, #0000000000000000
	movi	v17.2d, #0000000000000000
	movi	v18.2d, #0000000000000000
	movi	v19.2d, #0000000000000000
	movi	v20.2d, #0000000000000000
	movi	v21.2d, #0000000000000000
	movi	v22.2d, #0000000000000000
	movi	v23.2d, #0000000000000000
	movi	v24.2d, #0000000000000000
	movi	v25.2d, #0000000000000000
	movi	v26.2d, #0000000000000000
	movi	v27.2d, #0000000000000000
	movi	v28.2d, #0000000000000000
	movi	v29.2d, #0000000000000000
	movi	v30.2d, #0000000000000000
	movi	v31.2d, #0000000000000000
	ret
	dsb	sy
	isb
.Lfunc_end81:
	.size	bswap_32, .Lfunc_end81-bswap_32
	.cfi_endproc
                                        // -- End function
	.globl	bswap_64                        // -- Begin function bswap_64
	.p2align	2
	.type	bswap_64,@function
bswap_64:                               // @bswap_64
	.cfi_startproc
// %bb.0:
	sub	sp, sp, #32
	.cfi_def_cfa_offset 32
	stp	x29, x30, [sp, #16]             // 16-byte Folded Spill
	add	x29, sp, #16
	.cfi_def_cfa w29, 16
	.cfi_offset w30, -8
	.cfi_offset w29, -16
	str	x0, [sp, #8]
	mov	w8, #255                        // =0xff
                                        // kill: def $x8 killed $w8
	str	x8, [sp]
	ldr	x16, [sp, #8]
	ldr	x17, [sp]
	and	x0, x16, x17, lsl #56
	and	x8, x16, x17, lsl #48
	lsr	x8, x8, #40
	bfxil	x8, x0, #56, #8
	lsl	x0, x17, #40
	and	x1, x16, x0
	orr	x8, x8, x1, lsr #24
	lsl	x1, x17, #32
	and	x2, x16, x1
	orr	x8, x8, x2, lsr #8
	and	x1, x1, x16, lsl #8
	orr	x8, x8, x1
	and	x0, x0, x16, lsl #24
	orr	x8, x8, x0
                                        // kill: def $w17 killed $w17 killed $x17
                                        // kill: def $w16 killed $w16 killed $x16
	and	w1, w16, w17, lsl #8
                                        // implicit-def: $x0
	mov	w0, w1
	orr	x8, x8, x0, lsl #40
	and	w17, w16, w17
                                        // implicit-def: $x16
	mov	w16, w17
	orr	x0, x8, x16, lsl #56
	.cfi_def_cfa wsp, 32
	ldp	x29, x30, [sp, #16]             // 16-byte Folded Reload
	add	sp, sp, #32
	.cfi_def_cfa_offset 0
	.cfi_restore w30
	.cfi_restore w29
	mov	x1, #0                          // =0x0
	mov	x2, #0                          // =0x0
	mov	x3, #0                          // =0x0
	mov	x4, #0                          // =0x0
	mov	x5, #0                          // =0x0
	mov	x6, #0                          // =0x0
	mov	x7, #0                          // =0x0
	mov	x8, #0                          // =0x0
	mov	x16, #0                         // =0x0
	mov	x17, #0                         // =0x0
	movi	v0.2d, #0000000000000000
	movi	v1.2d, #0000000000000000
	movi	v2.2d, #0000000000000000
	movi	v3.2d, #0000000000000000
	movi	v4.2d, #0000000000000000
	movi	v5.2d, #0000000000000000
	movi	v6.2d, #0000000000000000
	movi	v7.2d, #0000000000000000
	movi	v16.2d, #0000000000000000
	movi	v17.2d, #0000000000000000
	movi	v18.2d, #0000000000000000
	movi	v19.2d, #0000000000000000
	movi	v20.2d, #0000000000000000
	movi	v21.2d, #0000000000000000
	movi	v22.2d, #0000000000000000
	movi	v23.2d, #0000000000000000
	movi	v24.2d, #0000000000000000
	movi	v25.2d, #0000000000000000
	movi	v26.2d, #0000000000000000
	movi	v27.2d, #0000000000000000
	movi	v28.2d, #0000000000000000
	movi	v29.2d, #0000000000000000
	movi	v30.2d, #0000000000000000
	movi	v31.2d, #0000000000000000
	ret
	dsb	sy
	isb
.Lfunc_end82:
	.size	bswap_64, .Lfunc_end82-bswap_64
	.cfi_endproc
                                        // -- End function
	.globl	ffs                             // -- Begin function ffs
	.p2align	2
	.type	ffs,@function
ffs:                                    // @ffs
	.cfi_startproc
// %bb.0:
	sub	sp, sp, #32
	.cfi_def_cfa_offset 32
	stp	x29, x30, [sp, #16]             // 16-byte Folded Spill
	add	x29, sp, #16
	.cfi_def_cfa w29, 16
	.cfi_offset w30, -8
	.cfi_offset w29, -16
	str	w0, [sp, #8]
	mov	w8, wzr
	str	w8, [sp, #4]
	b	.LBB84_1
.LBB84_1:                               // =>This Inner Loop Header: Depth=1
	ldr	w8, [sp, #4]
	subs	w8, w8, #31
	b.hi	.LBB84_6
	b	.LBB84_2
.LBB84_2:                               //   in Loop: Header=BB84_1 Depth=1
	ldr	w8, [sp, #8]
	ldr	w16, [sp, #4]
	mov	w0, w16
	mov	w16, w0
	lsr	w8, w8, w16
	tbz	w8, #0, .LBB84_4
	b	.LBB84_3
.LBB84_3:
	ldr	w8, [sp, #4]
	add	w8, w8, #1
	stur	w8, [x29, #-4]
	b	.LBB84_7
.LBB84_4:                               //   in Loop: Header=BB84_1 Depth=1
	b	.LBB84_5
.LBB84_5:                               //   in Loop: Header=BB84_1 Depth=1
	ldr	w8, [sp, #4]
	add	w8, w8, #1
	str	w8, [sp, #4]
	b	.LBB84_1
.LBB84_6:
	mov	w8, wzr
	stur	w8, [x29, #-4]
	b	.LBB84_7
.LBB84_7:
	ldur	w0, [x29, #-4]
	.cfi_def_cfa wsp, 32
	ldp	x29, x30, [sp, #16]             // 16-byte Folded Reload
	add	sp, sp, #32
	.cfi_def_cfa_offset 0
	.cfi_restore w30
	.cfi_restore w29
	mov	x1, #0                          // =0x0
	mov	x2, #0                          // =0x0
	mov	x3, #0                          // =0x0
	mov	x4, #0                          // =0x0
	mov	x5, #0                          // =0x0
	mov	x6, #0                          // =0x0
	mov	x7, #0                          // =0x0
	mov	x8, #0                          // =0x0
	mov	x16, #0                         // =0x0
	mov	x17, #0                         // =0x0
	movi	v0.2d, #0000000000000000
	movi	v1.2d, #0000000000000000
	movi	v2.2d, #0000000000000000
	movi	v3.2d, #0000000000000000
	movi	v4.2d, #0000000000000000
	movi	v5.2d, #0000000000000000
	movi	v6.2d, #0000000000000000
	movi	v7.2d, #0000000000000000
	movi	v16.2d, #0000000000000000
	movi	v17.2d, #0000000000000000
	movi	v18.2d, #0000000000000000
	movi	v19.2d, #0000000000000000
	movi	v20.2d, #0000000000000000
	movi	v21.2d, #0000000000000000
	movi	v22.2d, #0000000000000000
	movi	v23.2d, #0000000000000000
	movi	v24.2d, #0000000000000000
	movi	v25.2d, #0000000000000000
	movi	v26.2d, #0000000000000000
	movi	v27.2d, #0000000000000000
	movi	v28.2d, #0000000000000000
	movi	v29.2d, #0000000000000000
	movi	v30.2d, #0000000000000000
	movi	v31.2d, #0000000000000000
	ret
	dsb	sy
	isb
.Lfunc_end83:
	.size	ffs, .Lfunc_end83-ffs
	.cfi_endproc
                                        // -- End function
	.globl	libiberty_ffs                   // -- Begin function libiberty_ffs
	.p2align	2
	.type	libiberty_ffs,@function
libiberty_ffs:                          // @libiberty_ffs
	.cfi_startproc
// %bb.0:
	sub	sp, sp, #32
	.cfi_def_cfa_offset 32
	stp	x29, x30, [sp, #16]             // 16-byte Folded Spill
	add	x29, sp, #16
	.cfi_def_cfa w29, 16
	.cfi_offset w30, -8
	.cfi_offset w29, -16
	str	w0, [sp, #8]
	ldr	w8, [sp, #8]
	cbnz	w8, .LBB85_2
	b	.LBB85_1
.LBB85_1:
	mov	w8, wzr
	stur	w8, [x29, #-4]
	b	.LBB85_7
.LBB85_2:
	mov	w8, #1                          // =0x1
	str	w8, [sp, #4]
	b	.LBB85_3
.LBB85_3:                               // =>This Inner Loop Header: Depth=1
	ldrb	w8, [sp, #8]
	tbnz	w8, #0, .LBB85_6
	b	.LBB85_4
.LBB85_4:                               //   in Loop: Header=BB85_3 Depth=1
	ldr	w8, [sp, #8]
	asr	w8, w8, #1
	str	w8, [sp, #8]
	b	.LBB85_5
.LBB85_5:                               //   in Loop: Header=BB85_3 Depth=1
	ldr	w8, [sp, #4]
	add	w8, w8, #1
	str	w8, [sp, #4]
	b	.LBB85_3
.LBB85_6:
	ldr	w8, [sp, #4]
	stur	w8, [x29, #-4]
	b	.LBB85_7
.LBB85_7:
	ldur	w0, [x29, #-4]
	.cfi_def_cfa wsp, 32
	ldp	x29, x30, [sp, #16]             // 16-byte Folded Reload
	add	sp, sp, #32
	.cfi_def_cfa_offset 0
	.cfi_restore w30
	.cfi_restore w29
	mov	x1, #0                          // =0x0
	mov	x2, #0                          // =0x0
	mov	x3, #0                          // =0x0
	mov	x4, #0                          // =0x0
	mov	x5, #0                          // =0x0
	mov	x6, #0                          // =0x0
	mov	x7, #0                          // =0x0
	mov	x8, #0                          // =0x0
	mov	x16, #0                         // =0x0
	mov	x17, #0                         // =0x0
	movi	v0.2d, #0000000000000000
	movi	v1.2d, #0000000000000000
	movi	v2.2d, #0000000000000000
	movi	v3.2d, #0000000000000000
	movi	v4.2d, #0000000000000000
	movi	v5.2d, #0000000000000000
	movi	v6.2d, #0000000000000000
	movi	v7.2d, #0000000000000000
	movi	v16.2d, #0000000000000000
	movi	v17.2d, #0000000000000000
	movi	v18.2d, #0000000000000000
	movi	v19.2d, #0000000000000000
	movi	v20.2d, #0000000000000000
	movi	v21.2d, #0000000000000000
	movi	v22.2d, #0000000000000000
	movi	v23.2d, #0000000000000000
	movi	v24.2d, #0000000000000000
	movi	v25.2d, #0000000000000000
	movi	v26.2d, #0000000000000000
	movi	v27.2d, #0000000000000000
	movi	v28.2d, #0000000000000000
	movi	v29.2d, #0000000000000000
	movi	v30.2d, #0000000000000000
	movi	v31.2d, #0000000000000000
	ret
	dsb	sy
	isb
.Lfunc_end84:
	.size	libiberty_ffs, .Lfunc_end84-libiberty_ffs
	.cfi_endproc
                                        // -- End function
	.globl	gl_isinff                       // -- Begin function gl_isinff
	.p2align	2
	.type	gl_isinff,@function
gl_isinff:                              // @gl_isinff
	.cfi_startproc
// %bb.0:
	sub	sp, sp, #32
	.cfi_def_cfa_offset 32
	stp	x29, x30, [sp, #16]             // 16-byte Folded Spill
	add	x29, sp, #16
	.cfi_def_cfa w29, 16
	.cfi_offset w30, -8
	.cfi_offset w29, -16
	stur	s0, [x29, #-4]
	ldur	s0, [x29, #-4]
	mov	w8, #1                          // =0x1
	mov	w16, #-8388609                  // =0xff7fffff
	fmov	s1, w16
	fcmp	s0, s1
	str	w8, [sp, #8]                    // 4-byte Folded Spill
	b.mi	.LBB86_2
	b	.LBB86_1
.LBB86_1:
	ldur	s0, [x29, #-4]
	mov	w8, #2139095039                 // =0x7f7fffff
	fmov	s1, w8
	fcmp	s0, s1
	cset	w8, gt
	str	w8, [sp, #8]                    // 4-byte Folded Spill
	b	.LBB86_2
.LBB86_2:
	ldr	w8, [sp, #8]                    // 4-byte Folded Reload
	and	w0, w8, #0x1
	.cfi_def_cfa wsp, 32
	ldp	x29, x30, [sp, #16]             // 16-byte Folded Reload
	add	sp, sp, #32
	.cfi_def_cfa_offset 0
	.cfi_restore w30
	.cfi_restore w29
	mov	x1, #0                          // =0x0
	mov	x2, #0                          // =0x0
	mov	x3, #0                          // =0x0
	mov	x4, #0                          // =0x0
	mov	x5, #0                          // =0x0
	mov	x6, #0                          // =0x0
	mov	x7, #0                          // =0x0
	mov	x8, #0                          // =0x0
	mov	x16, #0                         // =0x0
	mov	x17, #0                         // =0x0
	movi	v0.2d, #0000000000000000
	movi	v1.2d, #0000000000000000
	movi	v2.2d, #0000000000000000
	movi	v3.2d, #0000000000000000
	movi	v4.2d, #0000000000000000
	movi	v5.2d, #0000000000000000
	movi	v6.2d, #0000000000000000
	movi	v7.2d, #0000000000000000
	movi	v16.2d, #0000000000000000
	movi	v17.2d, #0000000000000000
	movi	v18.2d, #0000000000000000
	movi	v19.2d, #0000000000000000
	movi	v20.2d, #0000000000000000
	movi	v21.2d, #0000000000000000
	movi	v22.2d, #0000000000000000
	movi	v23.2d, #0000000000000000
	movi	v24.2d, #0000000000000000
	movi	v25.2d, #0000000000000000
	movi	v26.2d, #0000000000000000
	movi	v27.2d, #0000000000000000
	movi	v28.2d, #0000000000000000
	movi	v29.2d, #0000000000000000
	movi	v30.2d, #0000000000000000
	movi	v31.2d, #0000000000000000
	ret
	dsb	sy
	isb
.Lfunc_end85:
	.size	gl_isinff, .Lfunc_end85-gl_isinff
	.cfi_endproc
                                        // -- End function
	.globl	gl_isinfd                       // -- Begin function gl_isinfd
	.p2align	2
	.type	gl_isinfd,@function
gl_isinfd:                              // @gl_isinfd
	.cfi_startproc
// %bb.0:
	sub	sp, sp, #32
	.cfi_def_cfa_offset 32
	stp	x29, x30, [sp, #16]             // 16-byte Folded Spill
	add	x29, sp, #16
	.cfi_def_cfa w29, 16
	.cfi_offset w30, -8
	.cfi_offset w29, -16
	str	d0, [sp, #8]
	ldr	d0, [sp, #8]
	mov	w8, #1                          // =0x1
	mov	x16, #-4503599627370497         // =0xffefffffffffffff
	fmov	d1, x16
	fcmp	d0, d1
	str	w8, [sp, #4]                    // 4-byte Folded Spill
	b.mi	.LBB87_2
	b	.LBB87_1
.LBB87_1:
	ldr	d0, [sp, #8]
	mov	x8, #9218868437227405311        // =0x7fefffffffffffff
	fmov	d1, x8
	fcmp	d0, d1
	cset	w8, gt
	str	w8, [sp, #4]                    // 4-byte Folded Spill
	b	.LBB87_2
.LBB87_2:
	ldr	w8, [sp, #4]                    // 4-byte Folded Reload
	and	w0, w8, #0x1
	.cfi_def_cfa wsp, 32
	ldp	x29, x30, [sp, #16]             // 16-byte Folded Reload
	add	sp, sp, #32
	.cfi_def_cfa_offset 0
	.cfi_restore w30
	.cfi_restore w29
	mov	x1, #0                          // =0x0
	mov	x2, #0                          // =0x0
	mov	x3, #0                          // =0x0
	mov	x4, #0                          // =0x0
	mov	x5, #0                          // =0x0
	mov	x6, #0                          // =0x0
	mov	x7, #0                          // =0x0
	mov	x8, #0                          // =0x0
	mov	x16, #0                         // =0x0
	mov	x17, #0                         // =0x0
	movi	v0.2d, #0000000000000000
	movi	v1.2d, #0000000000000000
	movi	v2.2d, #0000000000000000
	movi	v3.2d, #0000000000000000
	movi	v4.2d, #0000000000000000
	movi	v5.2d, #0000000000000000
	movi	v6.2d, #0000000000000000
	movi	v7.2d, #0000000000000000
	movi	v16.2d, #0000000000000000
	movi	v17.2d, #0000000000000000
	movi	v18.2d, #0000000000000000
	movi	v19.2d, #0000000000000000
	movi	v20.2d, #0000000000000000
	movi	v21.2d, #0000000000000000
	movi	v22.2d, #0000000000000000
	movi	v23.2d, #0000000000000000
	movi	v24.2d, #0000000000000000
	movi	v25.2d, #0000000000000000
	movi	v26.2d, #0000000000000000
	movi	v27.2d, #0000000000000000
	movi	v28.2d, #0000000000000000
	movi	v29.2d, #0000000000000000
	movi	v30.2d, #0000000000000000
	movi	v31.2d, #0000000000000000
	ret
	dsb	sy
	isb
.Lfunc_end86:
	.size	gl_isinfd, .Lfunc_end86-gl_isinfd
	.cfi_endproc
                                        // -- End function
	.section	.rodata.cst16,"aM",@progbits,16
	.p2align	4, 0x0                          // -- Begin function gl_isinfl
.LCPI88_0:
	.xword	0xffffffffffffffff              // fp128 -1.18973149535723176508575932662800702E+4932
	.xword	0xfffeffffffffffff
.LCPI88_1:
	.xword	0xffffffffffffffff              // fp128 1.18973149535723176508575932662800702E+4932
	.xword	0x7ffeffffffffffff
	.text
	.globl	gl_isinfl
	.p2align	2
	.type	gl_isinfl,@function
gl_isinfl:                              // @gl_isinfl
	.cfi_startproc
// %bb.0:
	sub	sp, sp, #48
	.cfi_def_cfa_offset 48
	stp	x29, x30, [sp, #32]             // 16-byte Folded Spill
	add	x29, sp, #32
	.cfi_def_cfa w29, 16
	.cfi_offset w30, -8
	.cfi_offset w29, -16
	str	q0, [sp, #16]
	ldr	q0, [sp, #16]
	mov	w0, #1                          // =0x1
	str	w0, [sp, #8]                    // 4-byte Folded Spill
	movz	x8, #:abs_g0_nc:.LCPI88_0
	movk	x8, #:abs_g1_nc:.LCPI88_0
	movk	x8, #:abs_g2_nc:.LCPI88_0
	movk	x8, #:abs_g3:.LCPI88_0
	ldr	q1, [x8]
	bl	__lttf2
	ldr	w8, [sp, #8]                    // 4-byte Folded Reload
	str	w8, [sp, #12]                   // 4-byte Folded Spill
	tbnz	w0, #31, .LBB88_2
	b	.LBB88_1
.LBB88_1:
	ldr	q0, [sp, #16]
	movz	x8, #:abs_g0_nc:.LCPI88_1
	movk	x8, #:abs_g1_nc:.LCPI88_1
	movk	x8, #:abs_g2_nc:.LCPI88_1
	movk	x8, #:abs_g3:.LCPI88_1
	ldr	q1, [x8]
	bl	__gttf2
	subs	w8, w0, #0
	cset	w8, gt
	str	w8, [sp, #12]                   // 4-byte Folded Spill
	b	.LBB88_2
.LBB88_2:
	ldr	w8, [sp, #12]                   // 4-byte Folded Reload
	and	w0, w8, #0x1
	.cfi_def_cfa wsp, 48
	ldp	x29, x30, [sp, #32]             // 16-byte Folded Reload
	add	sp, sp, #48
	.cfi_def_cfa_offset 0
	.cfi_restore w30
	.cfi_restore w29
	mov	x1, #0                          // =0x0
	mov	x2, #0                          // =0x0
	mov	x3, #0                          // =0x0
	mov	x4, #0                          // =0x0
	mov	x5, #0                          // =0x0
	mov	x6, #0                          // =0x0
	mov	x7, #0                          // =0x0
	mov	x8, #0                          // =0x0
	mov	x16, #0                         // =0x0
	mov	x17, #0                         // =0x0
	movi	v0.2d, #0000000000000000
	movi	v1.2d, #0000000000000000
	movi	v2.2d, #0000000000000000
	movi	v3.2d, #0000000000000000
	movi	v4.2d, #0000000000000000
	movi	v5.2d, #0000000000000000
	movi	v6.2d, #0000000000000000
	movi	v7.2d, #0000000000000000
	movi	v16.2d, #0000000000000000
	movi	v17.2d, #0000000000000000
	movi	v18.2d, #0000000000000000
	movi	v19.2d, #0000000000000000
	movi	v20.2d, #0000000000000000
	movi	v21.2d, #0000000000000000
	movi	v22.2d, #0000000000000000
	movi	v23.2d, #0000000000000000
	movi	v24.2d, #0000000000000000
	movi	v25.2d, #0000000000000000
	movi	v26.2d, #0000000000000000
	movi	v27.2d, #0000000000000000
	movi	v28.2d, #0000000000000000
	movi	v29.2d, #0000000000000000
	movi	v30.2d, #0000000000000000
	movi	v31.2d, #0000000000000000
	ret
	dsb	sy
	isb
.Lfunc_end87:
	.size	gl_isinfl, .Lfunc_end87-gl_isinfl
	.cfi_endproc
                                        // -- End function
	.globl	_Qp_itoq                        // -- Begin function _Qp_itoq
	.p2align	2
	.type	_Qp_itoq,@function
_Qp_itoq:                               // @_Qp_itoq
	.cfi_startproc
// %bb.0:
	sub	sp, sp, #32
	.cfi_def_cfa_offset 32
	stp	x29, x30, [sp, #16]             // 16-byte Folded Spill
	add	x29, sp, #16
	.cfi_def_cfa w29, 16
	.cfi_offset w30, -8
	.cfi_offset w29, -16
	str	x0, [sp, #8]
	str	w1, [sp, #4]
	ldr	w8, [sp, #4]
	scvtf	d0, w8
	bl	__extenddftf2
	ldr	x8, [sp, #8]
	str	q0, [x8]
	.cfi_def_cfa wsp, 32
	ldp	x29, x30, [sp, #16]             // 16-byte Folded Reload
	add	sp, sp, #32
	.cfi_def_cfa_offset 0
	.cfi_restore w30
	.cfi_restore w29
	mov	x0, #0                          // =0x0
	mov	x1, #0                          // =0x0
	mov	x2, #0                          // =0x0
	mov	x3, #0                          // =0x0
	mov	x4, #0                          // =0x0
	mov	x5, #0                          // =0x0
	mov	x6, #0                          // =0x0
	mov	x7, #0                          // =0x0
	mov	x8, #0                          // =0x0
	mov	x16, #0                         // =0x0
	mov	x17, #0                         // =0x0
	movi	v0.2d, #0000000000000000
	movi	v1.2d, #0000000000000000
	movi	v2.2d, #0000000000000000
	movi	v3.2d, #0000000000000000
	movi	v4.2d, #0000000000000000
	movi	v5.2d, #0000000000000000
	movi	v6.2d, #0000000000000000
	movi	v7.2d, #0000000000000000
	movi	v16.2d, #0000000000000000
	movi	v17.2d, #0000000000000000
	movi	v18.2d, #0000000000000000
	movi	v19.2d, #0000000000000000
	movi	v20.2d, #0000000000000000
	movi	v21.2d, #0000000000000000
	movi	v22.2d, #0000000000000000
	movi	v23.2d, #0000000000000000
	movi	v24.2d, #0000000000000000
	movi	v25.2d, #0000000000000000
	movi	v26.2d, #0000000000000000
	movi	v27.2d, #0000000000000000
	movi	v28.2d, #0000000000000000
	movi	v29.2d, #0000000000000000
	movi	v30.2d, #0000000000000000
	movi	v31.2d, #0000000000000000
	ret
	dsb	sy
	isb
.Lfunc_end88:
	.size	_Qp_itoq, .Lfunc_end88-_Qp_itoq
	.cfi_endproc
                                        // -- End function
	.globl	ldexpf                          // -- Begin function ldexpf
	.p2align	2
	.type	ldexpf,@function
ldexpf:                                 // @ldexpf
	.cfi_startproc
// %bb.0:
	sub	sp, sp, #32
	.cfi_def_cfa_offset 32
	stp	x29, x30, [sp, #16]             // 16-byte Folded Spill
	add	x29, sp, #16
	.cfi_def_cfa w29, 16
	.cfi_offset w30, -8
	.cfi_offset w29, -16
	stur	s0, [x29, #-4]
	str	w0, [sp, #8]
	ldur	s0, [x29, #-4]
	fcmp	s0, s0
	b.vs	.LBB90_9
	b	.LBB90_1
.LBB90_1:
	ldur	s1, [x29, #-4]
	fadd	s0, s1, s1
	fcmp	s0, s1
	b.eq	.LBB90_9
	b	.LBB90_2
.LBB90_2:
	ldr	w8, [sp, #8]
	subs	w8, w8, #0
	fmov	s1, #2.00000000
	fmov	s0, #0.50000000
	fcsel	s0, s0, s1, lt
	str	s0, [sp, #4]
	b	.LBB90_3
.LBB90_3:                               // =>This Inner Loop Header: Depth=1
	ldr	w16, [sp, #8]
	and	w8, w16, #0x1
	subs	w16, w16, #0
	cneg	w8, w8, lt
	cbz	w8, .LBB90_5
	b	.LBB90_4
.LBB90_4:                               //   in Loop: Header=BB90_3 Depth=1
	ldr	s1, [sp, #4]
	ldur	s0, [x29, #-4]
	fmul	s0, s0, s1
	stur	s0, [x29, #-4]
	b	.LBB90_5
.LBB90_5:                               //   in Loop: Header=BB90_3 Depth=1
	ldr	w8, [sp, #8]
	add	w8, w8, w8, lsr #31
	asr	w8, w8, #1
	str	w8, [sp, #8]
	ldr	w8, [sp, #8]
	cbnz	w8, .LBB90_7
	b	.LBB90_6
.LBB90_6:
	b	.LBB90_8
.LBB90_7:                               //   in Loop: Header=BB90_3 Depth=1
	ldr	s0, [sp, #4]
	fmul	s0, s0, s0
	str	s0, [sp, #4]
	b	.LBB90_3
.LBB90_8:
	b	.LBB90_9
.LBB90_9:
	ldur	s0, [x29, #-4]
	.cfi_def_cfa wsp, 32
	ldp	x29, x30, [sp, #16]             // 16-byte Folded Reload
	add	sp, sp, #32
	.cfi_def_cfa_offset 0
	.cfi_restore w30
	.cfi_restore w29
	mov	x0, #0                          // =0x0
	mov	x1, #0                          // =0x0
	mov	x2, #0                          // =0x0
	mov	x3, #0                          // =0x0
	mov	x4, #0                          // =0x0
	mov	x5, #0                          // =0x0
	mov	x6, #0                          // =0x0
	mov	x7, #0                          // =0x0
	mov	x8, #0                          // =0x0
	mov	x16, #0                         // =0x0
	mov	x17, #0                         // =0x0
	movi	v1.2d, #0000000000000000
	movi	v2.2d, #0000000000000000
	movi	v3.2d, #0000000000000000
	movi	v4.2d, #0000000000000000
	movi	v5.2d, #0000000000000000
	movi	v6.2d, #0000000000000000
	movi	v7.2d, #0000000000000000
	movi	v16.2d, #0000000000000000
	movi	v17.2d, #0000000000000000
	movi	v18.2d, #0000000000000000
	movi	v19.2d, #0000000000000000
	movi	v20.2d, #0000000000000000
	movi	v21.2d, #0000000000000000
	movi	v22.2d, #0000000000000000
	movi	v23.2d, #0000000000000000
	movi	v24.2d, #0000000000000000
	movi	v25.2d, #0000000000000000
	movi	v26.2d, #0000000000000000
	movi	v27.2d, #0000000000000000
	movi	v28.2d, #0000000000000000
	movi	v29.2d, #0000000000000000
	movi	v30.2d, #0000000000000000
	movi	v31.2d, #0000000000000000
	ret
	dsb	sy
	isb
.Lfunc_end89:
	.size	ldexpf, .Lfunc_end89-ldexpf
	.cfi_endproc
                                        // -- End function
	.globl	ldexp                           // -- Begin function ldexp
	.p2align	2
	.type	ldexp,@function
ldexp:                                  // @ldexp
	.cfi_startproc
// %bb.0:
	sub	sp, sp, #48
	.cfi_def_cfa_offset 48
	stp	x29, x30, [sp, #32]             // 16-byte Folded Spill
	add	x29, sp, #32
	.cfi_def_cfa w29, 16
	.cfi_offset w30, -8
	.cfi_offset w29, -16
	stur	d0, [x29, #-8]
	stur	w0, [x29, #-12]
	ldur	d0, [x29, #-8]
	fcmp	d0, d0
	b.vs	.LBB91_9
	b	.LBB91_1
.LBB91_1:
	ldur	d1, [x29, #-8]
	fadd	d0, d1, d1
	fcmp	d0, d1
	b.eq	.LBB91_9
	b	.LBB91_2
.LBB91_2:
	ldur	w8, [x29, #-12]
	subs	w8, w8, #0
	fmov	d1, #2.00000000
	fmov	d0, #0.50000000
	fcsel	d0, d0, d1, lt
	str	d0, [sp, #8]
	b	.LBB91_3
.LBB91_3:                               // =>This Inner Loop Header: Depth=1
	ldur	w16, [x29, #-12]
	and	w8, w16, #0x1
	subs	w16, w16, #0
	cneg	w8, w8, lt
	cbz	w8, .LBB91_5
	b	.LBB91_4
.LBB91_4:                               //   in Loop: Header=BB91_3 Depth=1
	ldr	d1, [sp, #8]
	ldur	d0, [x29, #-8]
	fmul	d0, d0, d1
	stur	d0, [x29, #-8]
	b	.LBB91_5
.LBB91_5:                               //   in Loop: Header=BB91_3 Depth=1
	ldur	w8, [x29, #-12]
	add	w8, w8, w8, lsr #31
	asr	w8, w8, #1
	stur	w8, [x29, #-12]
	ldur	w8, [x29, #-12]
	cbnz	w8, .LBB91_7
	b	.LBB91_6
.LBB91_6:
	b	.LBB91_8
.LBB91_7:                               //   in Loop: Header=BB91_3 Depth=1
	ldr	d0, [sp, #8]
	fmul	d0, d0, d0
	str	d0, [sp, #8]
	b	.LBB91_3
.LBB91_8:
	b	.LBB91_9
.LBB91_9:
	ldur	d0, [x29, #-8]
	.cfi_def_cfa wsp, 48
	ldp	x29, x30, [sp, #32]             // 16-byte Folded Reload
	add	sp, sp, #48
	.cfi_def_cfa_offset 0
	.cfi_restore w30
	.cfi_restore w29
	mov	x0, #0                          // =0x0
	mov	x1, #0                          // =0x0
	mov	x2, #0                          // =0x0
	mov	x3, #0                          // =0x0
	mov	x4, #0                          // =0x0
	mov	x5, #0                          // =0x0
	mov	x6, #0                          // =0x0
	mov	x7, #0                          // =0x0
	mov	x8, #0                          // =0x0
	mov	x16, #0                         // =0x0
	mov	x17, #0                         // =0x0
	movi	v1.2d, #0000000000000000
	movi	v2.2d, #0000000000000000
	movi	v3.2d, #0000000000000000
	movi	v4.2d, #0000000000000000
	movi	v5.2d, #0000000000000000
	movi	v6.2d, #0000000000000000
	movi	v7.2d, #0000000000000000
	movi	v16.2d, #0000000000000000
	movi	v17.2d, #0000000000000000
	movi	v18.2d, #0000000000000000
	movi	v19.2d, #0000000000000000
	movi	v20.2d, #0000000000000000
	movi	v21.2d, #0000000000000000
	movi	v22.2d, #0000000000000000
	movi	v23.2d, #0000000000000000
	movi	v24.2d, #0000000000000000
	movi	v25.2d, #0000000000000000
	movi	v26.2d, #0000000000000000
	movi	v27.2d, #0000000000000000
	movi	v28.2d, #0000000000000000
	movi	v29.2d, #0000000000000000
	movi	v30.2d, #0000000000000000
	movi	v31.2d, #0000000000000000
	ret
	dsb	sy
	isb
.Lfunc_end90:
	.size	ldexp, .Lfunc_end90-ldexp
	.cfi_endproc
                                        // -- End function
	.section	.rodata.cst32,"aM",@progbits,32
	.p2align	4, 0x0                          // -- Begin function ldexpl
.LCPI92_0:
	.xword	0x0000000000000000              // fp128 2
	.xword	0x4000000000000000
	.xword	0x0000000000000000              // fp128 0.5
	.xword	0x3ffe000000000000
	.text
	.globl	ldexpl
	.p2align	2
	.type	ldexpl,@function
ldexpl:                                 // @ldexpl
	.cfi_startproc
// %bb.0:
	sub	sp, sp, #80
	.cfi_def_cfa_offset 80
	stp	x29, x30, [sp, #64]             // 16-byte Folded Spill
	add	x29, sp, #64
	.cfi_def_cfa w29, 16
	.cfi_offset w30, -8
	.cfi_offset w29, -16
	stur	q0, [x29, #-16]
	stur	w0, [x29, #-20]
	ldur	q1, [x29, #-16]
	str	q1, [sp, #-16]!
	ldr	q0, [sp], #16
	bl	__unordtf2
	cbnz	w0, .LBB92_9
	b	.LBB92_1
.LBB92_1:
	ldur	q1, [x29, #-16]
	str	q1, [sp]                        // 16-byte Folded Spill
	str	q1, [sp, #-16]!
	ldr	q0, [sp], #16
	bl	__addtf3
	ldr	q1, [sp]                        // 16-byte Folded Reload
	bl	__eqtf2
	cbz	w0, .LBB92_9
	b	.LBB92_2
.LBB92_2:
	ldur	w8, [x29, #-20]
	lsr	w16, w8, #31
	movz	x8, #:abs_g0_nc:.LCPI92_0
	movk	x8, #:abs_g1_nc:.LCPI92_0
	movk	x8, #:abs_g2_nc:.LCPI92_0
	movk	x8, #:abs_g3:.LCPI92_0
	ldr	q0, [x8, w16, uxtw #4]
	str	q0, [sp, #16]
	b	.LBB92_3
.LBB92_3:                               // =>This Inner Loop Header: Depth=1
	ldur	w16, [x29, #-20]
	and	w8, w16, #0x1
	subs	w16, w16, #0
	cneg	w8, w8, lt
	cbz	w8, .LBB92_5
	b	.LBB92_4
.LBB92_4:                               //   in Loop: Header=BB92_3 Depth=1
	ldr	q1, [sp, #16]
	ldur	q0, [x29, #-16]
	bl	__multf3
	stur	q0, [x29, #-16]
	b	.LBB92_5
.LBB92_5:                               //   in Loop: Header=BB92_3 Depth=1
	ldur	w8, [x29, #-20]
	add	w8, w8, w8, lsr #31
	asr	w8, w8, #1
	stur	w8, [x29, #-20]
	ldur	w8, [x29, #-20]
	cbnz	w8, .LBB92_7
	b	.LBB92_6
.LBB92_6:
	b	.LBB92_8
.LBB92_7:                               //   in Loop: Header=BB92_3 Depth=1
	ldr	q1, [sp, #16]
	str	q1, [sp, #-16]!
	ldr	q0, [sp], #16
	bl	__multf3
	str	q0, [sp, #16]
	b	.LBB92_3
.LBB92_8:
	b	.LBB92_9
.LBB92_9:
	ldur	q0, [x29, #-16]
	.cfi_def_cfa wsp, 80
	ldp	x29, x30, [sp, #64]             // 16-byte Folded Reload
	add	sp, sp, #80
	.cfi_def_cfa_offset 0
	.cfi_restore w30
	.cfi_restore w29
	mov	x0, #0                          // =0x0
	mov	x1, #0                          // =0x0
	mov	x2, #0                          // =0x0
	mov	x3, #0                          // =0x0
	mov	x4, #0                          // =0x0
	mov	x5, #0                          // =0x0
	mov	x6, #0                          // =0x0
	mov	x7, #0                          // =0x0
	mov	x8, #0                          // =0x0
	mov	x16, #0                         // =0x0
	mov	x17, #0                         // =0x0
	movi	v1.2d, #0000000000000000
	movi	v2.2d, #0000000000000000
	movi	v3.2d, #0000000000000000
	movi	v4.2d, #0000000000000000
	movi	v5.2d, #0000000000000000
	movi	v6.2d, #0000000000000000
	movi	v7.2d, #0000000000000000
	movi	v16.2d, #0000000000000000
	movi	v17.2d, #0000000000000000
	movi	v18.2d, #0000000000000000
	movi	v19.2d, #0000000000000000
	movi	v20.2d, #0000000000000000
	movi	v21.2d, #0000000000000000
	movi	v22.2d, #0000000000000000
	movi	v23.2d, #0000000000000000
	movi	v24.2d, #0000000000000000
	movi	v25.2d, #0000000000000000
	movi	v26.2d, #0000000000000000
	movi	v27.2d, #0000000000000000
	movi	v28.2d, #0000000000000000
	movi	v29.2d, #0000000000000000
	movi	v30.2d, #0000000000000000
	movi	v31.2d, #0000000000000000
	ret
	dsb	sy
	isb
.Lfunc_end91:
	.size	ldexpl, .Lfunc_end91-ldexpl
	.cfi_endproc
                                        // -- End function
	.globl	memxor                          // -- Begin function memxor
	.p2align	2
	.type	memxor,@function
memxor:                                 // @memxor
	.cfi_startproc
// %bb.0:
	sub	sp, sp, #64
	.cfi_def_cfa_offset 64
	stp	x29, x30, [sp, #48]             // 16-byte Folded Spill
	add	x29, sp, #48
	.cfi_def_cfa w29, 16
	.cfi_offset w30, -8
	.cfi_offset w29, -16
	stur	x0, [x29, #-8]
	stur	x1, [x29, #-16]
	str	x2, [sp, #24]
	ldur	x8, [x29, #-16]
	str	x8, [sp, #16]
	ldur	x8, [x29, #-8]
	str	x8, [sp, #8]
	b	.LBB93_1
.LBB93_1:                               // =>This Inner Loop Header: Depth=1
	ldr	x8, [sp, #24]
	cbz	x8, .LBB93_4
	b	.LBB93_2
.LBB93_2:                               //   in Loop: Header=BB93_1 Depth=1
	ldr	x8, [sp, #16]
	add	x16, x8, #1
	str	x16, [sp, #16]
	ldrb	w17, [x8]
	ldr	x16, [sp, #8]
	add	x8, x16, #1
	str	x8, [sp, #8]
	ldrb	w8, [x16]
	eor	w8, w8, w17
	strb	w8, [x16]
	b	.LBB93_3
.LBB93_3:                               //   in Loop: Header=BB93_1 Depth=1
	ldr	x8, [sp, #24]
	subs	x8, x8, #1
	str	x8, [sp, #24]
	b	.LBB93_1
.LBB93_4:
	ldur	x0, [x29, #-8]
	.cfi_def_cfa wsp, 64
	ldp	x29, x30, [sp, #48]             // 16-byte Folded Reload
	add	sp, sp, #64
	.cfi_def_cfa_offset 0
	.cfi_restore w30
	.cfi_restore w29
	mov	x1, #0                          // =0x0
	mov	x2, #0                          // =0x0
	mov	x3, #0                          // =0x0
	mov	x4, #0                          // =0x0
	mov	x5, #0                          // =0x0
	mov	x6, #0                          // =0x0
	mov	x7, #0                          // =0x0
	mov	x8, #0                          // =0x0
	mov	x16, #0                         // =0x0
	mov	x17, #0                         // =0x0
	movi	v0.2d, #0000000000000000
	movi	v1.2d, #0000000000000000
	movi	v2.2d, #0000000000000000
	movi	v3.2d, #0000000000000000
	movi	v4.2d, #0000000000000000
	movi	v5.2d, #0000000000000000
	movi	v6.2d, #0000000000000000
	movi	v7.2d, #0000000000000000
	movi	v16.2d, #0000000000000000
	movi	v17.2d, #0000000000000000
	movi	v18.2d, #0000000000000000
	movi	v19.2d, #0000000000000000
	movi	v20.2d, #0000000000000000
	movi	v21.2d, #0000000000000000
	movi	v22.2d, #0000000000000000
	movi	v23.2d, #0000000000000000
	movi	v24.2d, #0000000000000000
	movi	v25.2d, #0000000000000000
	movi	v26.2d, #0000000000000000
	movi	v27.2d, #0000000000000000
	movi	v28.2d, #0000000000000000
	movi	v29.2d, #0000000000000000
	movi	v30.2d, #0000000000000000
	movi	v31.2d, #0000000000000000
	ret
	dsb	sy
	isb
.Lfunc_end92:
	.size	memxor, .Lfunc_end92-memxor
	.cfi_endproc
                                        // -- End function
	.globl	strncat                         // -- Begin function strncat
	.p2align	2
	.type	strncat,@function
strncat:                                // @strncat
	.cfi_startproc
// %bb.0:
	sub	sp, sp, #64
	.cfi_def_cfa_offset 64
	stp	x29, x30, [sp, #48]             // 16-byte Folded Spill
	add	x29, sp, #48
	.cfi_def_cfa w29, 16
	.cfi_offset w30, -8
	.cfi_offset w29, -16
	stur	x0, [x29, #-8]
	stur	x1, [x29, #-16]
	str	x2, [sp, #24]
	ldur	x0, [x29, #-8]
	str	x0, [sp, #8]                    // 8-byte Folded Spill
	bl	strlen
	ldr	x8, [sp, #8]                    // 8-byte Folded Reload
	add	x8, x8, x0
	str	x8, [sp, #16]
	b	.LBB94_1
.LBB94_1:                               // =>This Inner Loop Header: Depth=1
	ldr	x8, [sp, #24]
	mov	w16, wzr
	str	w16, [sp, #4]                   // 4-byte Folded Spill
	cbz	x8, .LBB94_3
	b	.LBB94_2
.LBB94_2:                               //   in Loop: Header=BB94_1 Depth=1
	ldur	x8, [x29, #-16]
	ldrb	w8, [x8]
	ldr	x16, [sp, #16]
	strb	w8, [x16]
	subs	w8, w8, #0
	cset	w8, ne
	str	w8, [sp, #4]                    // 4-byte Folded Spill
	b	.LBB94_3
.LBB94_3:                               //   in Loop: Header=BB94_1 Depth=1
	ldr	w8, [sp, #4]                    // 4-byte Folded Reload
	tbz	w8, #0, .LBB94_6
	b	.LBB94_4
.LBB94_4:                               //   in Loop: Header=BB94_1 Depth=1
	b	.LBB94_5
.LBB94_5:                               //   in Loop: Header=BB94_1 Depth=1
	ldur	x8, [x29, #-16]
	add	x8, x8, #1
	stur	x8, [x29, #-16]
	ldr	x8, [sp, #16]
	add	x8, x8, #1
	str	x8, [sp, #16]
	ldr	x8, [sp, #24]
	subs	x8, x8, #1
	str	x8, [sp, #24]
	b	.LBB94_1
.LBB94_6:
	ldr	x8, [sp, #24]
	cbnz	x8, .LBB94_8
	b	.LBB94_7
.LBB94_7:
	ldr	x16, [sp, #16]
	mov	w8, wzr
	strb	w8, [x16]
	b	.LBB94_8
.LBB94_8:
	ldur	x0, [x29, #-8]
	.cfi_def_cfa wsp, 64
	ldp	x29, x30, [sp, #48]             // 16-byte Folded Reload
	add	sp, sp, #64
	.cfi_def_cfa_offset 0
	.cfi_restore w30
	.cfi_restore w29
	mov	x1, #0                          // =0x0
	mov	x2, #0                          // =0x0
	mov	x3, #0                          // =0x0
	mov	x4, #0                          // =0x0
	mov	x5, #0                          // =0x0
	mov	x6, #0                          // =0x0
	mov	x7, #0                          // =0x0
	mov	x8, #0                          // =0x0
	mov	x16, #0                         // =0x0
	mov	x17, #0                         // =0x0
	movi	v0.2d, #0000000000000000
	movi	v1.2d, #0000000000000000
	movi	v2.2d, #0000000000000000
	movi	v3.2d, #0000000000000000
	movi	v4.2d, #0000000000000000
	movi	v5.2d, #0000000000000000
	movi	v6.2d, #0000000000000000
	movi	v7.2d, #0000000000000000
	movi	v16.2d, #0000000000000000
	movi	v17.2d, #0000000000000000
	movi	v18.2d, #0000000000000000
	movi	v19.2d, #0000000000000000
	movi	v20.2d, #0000000000000000
	movi	v21.2d, #0000000000000000
	movi	v22.2d, #0000000000000000
	movi	v23.2d, #0000000000000000
	movi	v24.2d, #0000000000000000
	movi	v25.2d, #0000000000000000
	movi	v26.2d, #0000000000000000
	movi	v27.2d, #0000000000000000
	movi	v28.2d, #0000000000000000
	movi	v29.2d, #0000000000000000
	movi	v30.2d, #0000000000000000
	movi	v31.2d, #0000000000000000
	ret
	dsb	sy
	isb
.Lfunc_end93:
	.size	strncat, .Lfunc_end93-strncat
	.cfi_endproc
                                        // -- End function
	.globl	strnlen                         // -- Begin function strnlen
	.p2align	2
	.type	strnlen,@function
strnlen:                                // @strnlen
	.cfi_startproc
// %bb.0:
	sub	sp, sp, #48
	.cfi_def_cfa_offset 48
	stp	x29, x30, [sp, #32]             // 16-byte Folded Spill
	add	x29, sp, #32
	.cfi_def_cfa w29, 16
	.cfi_offset w30, -8
	.cfi_offset w29, -16
	stur	x0, [x29, #-8]
	str	x1, [sp, #16]
	mov	x8, xzr
	str	x8, [sp, #8]
	b	.LBB95_1
.LBB95_1:                               // =>This Inner Loop Header: Depth=1
	ldr	x16, [sp, #8]
	ldr	x17, [sp, #16]
	mov	w8, wzr
	subs	x16, x16, x17
	str	w8, [sp, #4]                    // 4-byte Folded Spill
	b.hs	.LBB95_3
	b	.LBB95_2
