	.text
	.file	"mini-libc.c"
	.globl	make_ti                         # -- Begin function make_ti
	.p2align	2
	.type	make_ti,@function
	.section	.opd,"aw",@progbits
make_ti:                                # @make_ti
	.p2align	3, 0x0
	.quad	.Lfunc_begin0
	.quad	.TOC.@tocbase
	.quad	0
	.text
.Lfunc_begin0:
	.cfi_startproc
# %bb.0:
	addis %r5, %r2, .LC0@toc@ha
	ld %r6, .LC0@toc@l(%r5)
	ld %r5, 0(%r6)
	addi %r5, %r5, 1
	std %r5, 0(%r6)
	std %r3, -16(%r1)
	std %r4, -24(%r1)
	addis %r3, %r2, .LC1@toc@ha
	ld %r4, .LC1@toc@l(%r3)
	ld %r3, 0(%r4)
	addi %r3, %r3, 1
	std %r3, 0(%r4)
	ld %r3, -16(%r1)
	std %r3, -48(%r1)
	ld %r3, -24(%r1)
	std %r3, -40(%r1)
	ld %r3, -48(%r1)
	ld %r4, -40(%r1)
	blr
	.long	0
	.quad	0
.Lfunc_end0:
	.size	make_ti, .Lfunc_end0-.Lfunc_begin0
	.cfi_endproc
                                        # -- End function
	.globl	make_tu                         # -- Begin function make_tu
	.p2align	2
	.type	make_tu,@function
	.section	.opd,"aw",@progbits
make_tu:                                # @make_tu
	.p2align	3, 0x0
	.quad	.Lfunc_begin1
	.quad	.TOC.@tocbase
	.quad	0
	.text
.Lfunc_begin1:
	.cfi_startproc
# %bb.0:
	addis %r5, %r2, .LC2@toc@ha
	ld %r6, .LC2@toc@l(%r5)
	ld %r5, 0(%r6)
	addi %r5, %r5, 1
	std %r5, 0(%r6)
	std %r3, -16(%r1)
	std %r4, -24(%r1)
	addis %r3, %r2, .LC3@toc@ha
	ld %r4, .LC3@toc@l(%r3)
	ld %r3, 0(%r4)
	addi %r3, %r3, 1
	std %r3, 0(%r4)
	ld %r3, -16(%r1)
	std %r3, -48(%r1)
	ld %r3, -24(%r1)
	std %r3, -40(%r1)
	ld %r3, -48(%r1)
	ld %r4, -40(%r1)
	blr
	.long	0
	.quad	0
.Lfunc_end1:
	.size	make_tu, .Lfunc_end1-.Lfunc_begin1
	.cfi_endproc
                                        # -- End function
	.globl	memmove                         # -- Begin function memmove
	.p2align	2
	.type	memmove,@function
	.section	.opd,"aw",@progbits
memmove:                                # @memmove
	.p2align	3, 0x0
	.quad	.Lfunc_begin2
	.quad	.TOC.@tocbase
	.quad	0
	.text
.Lfunc_begin2:
	.cfi_startproc
# %bb.0:
	std %r3, -16(%r1)
	std %r4, -24(%r1)
	std %r5, -32(%r1)
	addis %r3, %r2, .LC4@toc@ha
	ld %r3, .LC4@toc@l(%r3)
	ld %r3, 0(%r3)
	addi %r3, %r3, 1
	addis %r4, %r2, .LC4@toc@ha
	ld %r4, .LC4@toc@l(%r4)
	std %r3, 0(%r4)
	ld %r3, -16(%r1)
	std %r3, -40(%r1)
	ld %r3, -24(%r1)
	std %r3, -48(%r1)
	ld %r3, -48(%r1)
	ld %r4, -40(%r1)
	cmpld	%r3, %r4
	bge %cr0, .LBB2_6
# %bb.1:
	addis %r3, %r2, .LC5@toc@ha
	ld %r3, .LC5@toc@l(%r3)
	ld %r3, 0(%r3)
	addi %r3, %r3, 1
	addis %r4, %r2, .LC5@toc@ha
	ld %r4, .LC5@toc@l(%r4)
	std %r3, 0(%r4)
	addis %r3, %r2, .LC4@toc@ha
	ld %r3, .LC4@toc@l(%r3)
	ld %r3, 8(%r3)
	addi %r3, %r3, 1
	addis %r4, %r2, .LC4@toc@ha
	ld %r4, .LC4@toc@l(%r4)
	std %r3, 8(%r4)
	ld %r4, -32(%r1)
	ld %r3, -48(%r1)
	add %r3, %r3, %r4
	std %r3, -48(%r1)
	ld %r4, -32(%r1)
	ld %r3, -40(%r1)
	add %r3, %r3, %r4
	std %r3, -40(%r1)
.LBB2_2:                                # =>This Inner Loop Header: Depth=1
	ld %r3, -32(%r1)
	cmpdi	%r3, 0
	beq	%cr0, .LBB2_5
# %bb.3:                                #   in Loop: Header=BB2_2 Depth=1
	addis %r3, %r2, .LC4@toc@ha
	ld %r3, .LC4@toc@l(%r3)
	ld %r3, 16(%r3)
	addi %r3, %r3, 1
	addis %r4, %r2, .LC4@toc@ha
	ld %r4, .LC4@toc@l(%r4)
	std %r3, 16(%r4)
	ld %r3, -48(%r1)
	addi %r4, %r3, -1
	std %r4, -48(%r1)
	lbz %r3, -1(%r3)
	ld %r4, -40(%r1)
	addi %r5, %r4, -1
	std %r5, -40(%r1)
	stb %r3, -1(%r4)
# %bb.4:                                #   in Loop: Header=BB2_2 Depth=1
	addis %r3, %r2, .LC5@toc@ha
	ld %r3, .LC5@toc@l(%r3)
	ld %r3, 8(%r3)
	addi %r3, %r3, 1
	addis %r4, %r2, .LC5@toc@ha
	ld %r4, .LC5@toc@l(%r4)
	std %r3, 8(%r4)
	ld %r3, -32(%r1)
	addi %r3, %r3, -1
	std %r3, -32(%r1)
	b .LBB2_2
.LBB2_5:
	b .LBB2_13
.LBB2_6:
	ld %r3, -48(%r1)
	ld %r4, -40(%r1)
	cmpd	%r3, %r4
	beq	%cr0, .LBB2_12
# %bb.7:
	addis %r3, %r2, .LC4@toc@ha
	ld %r3, .LC4@toc@l(%r3)
	ld %r3, 24(%r3)
	addi %r3, %r3, 1
	addis %r4, %r2, .LC4@toc@ha
	ld %r4, .LC4@toc@l(%r4)
	std %r3, 24(%r4)
.LBB2_8:                                # =>This Inner Loop Header: Depth=1
	ld %r3, -32(%r1)
	cmpdi	%r3, 0
	beq	%cr0, .LBB2_11
# %bb.9:                                #   in Loop: Header=BB2_8 Depth=1
	addis %r3, %r2, .LC5@toc@ha
	ld %r3, .LC5@toc@l(%r3)
	ld %r3, 16(%r3)
	addi %r3, %r3, 1
	addis %r4, %r2, .LC5@toc@ha
	ld %r4, .LC5@toc@l(%r4)
	std %r3, 16(%r4)
	addis %r3, %r2, .LC4@toc@ha
	ld %r3, .LC4@toc@l(%r3)
	ld %r3, 32(%r3)
	addi %r3, %r3, 1
	addis %r4, %r2, .LC4@toc@ha
	ld %r4, .LC4@toc@l(%r4)
	std %r3, 32(%r4)
	ld %r3, -48(%r1)
	addi %r4, %r3, 1
	std %r4, -48(%r1)
	lbz %r3, 0(%r3)
	ld %r4, -40(%r1)
	addi %r5, %r4, 1
	std %r5, -40(%r1)
	stb %r3, 0(%r4)
# %bb.10:                               #   in Loop: Header=BB2_8 Depth=1
	ld %r3, -32(%r1)
	addi %r3, %r3, -1
	std %r3, -32(%r1)
	b .LBB2_8
.LBB2_11:
	addis %r3, %r2, .LC5@toc@ha
	ld %r3, .LC5@toc@l(%r3)
	ld %r3, 24(%r3)
	addi %r3, %r3, 1
	addis %r4, %r2, .LC5@toc@ha
	ld %r4, .LC5@toc@l(%r4)
	std %r3, 24(%r4)
.LBB2_12:
	addis %r3, %r2, .LC5@toc@ha
	ld %r3, .LC5@toc@l(%r3)
	ld %r3, 32(%r3)
	addi %r3, %r3, 1
	addis %r4, %r2, .LC5@toc@ha
	ld %r4, .LC5@toc@l(%r4)
	std %r3, 32(%r4)
.LBB2_13:
	ld %r3, -16(%r1)
	blr
	.long	0
	.quad	0
.Lfunc_end2:
	.size	memmove, .Lfunc_end2-.Lfunc_begin2
	.cfi_endproc
                                        # -- End function
	.globl	memccpy                         # -- Begin function memccpy
	.p2align	2
	.type	memccpy,@function
	.section	.opd,"aw",@progbits
memccpy:                                # @memccpy
	.p2align	3, 0x0
	.quad	.Lfunc_begin3
	.quad	.TOC.@tocbase
	.quad	0
	.text
.Lfunc_begin3:
	.cfi_startproc
# %bb.0:
	std %r5, -72(%r1)                       # 8-byte Folded Spill
	mr	%r5, %r3
	ld %r3, -72(%r1)                        # 8-byte Folded Reload
                                        # kill: def $r3 killed $r3 killed $x3
	std %r5, -24(%r1)
	std %r4, -32(%r1)
	stw %r3, -36(%r1)
	std %r6, -48(%r1)
	addis %r3, %r2, .LC6@toc@ha
	ld %r3, .LC6@toc@l(%r3)
	ld %r3, 0(%r3)
	addi %r3, %r3, 1
	addis %r4, %r2, .LC6@toc@ha
	ld %r4, .LC6@toc@l(%r4)
	std %r3, 0(%r4)
	ld %r3, -24(%r1)
	std %r3, -56(%r1)
	ld %r3, -32(%r1)
	std %r3, -64(%r1)
	lwz %r3, -36(%r1)
	clrlwi	%r3, %r3, 24
	stw %r3, -36(%r1)
.LBB3_1:                                # =>This Inner Loop Header: Depth=1
	ld %r4, -48(%r1)
	li %r3, 0
	cmpdi	%r4, 0
	stw %r3, -76(%r1)                       # 4-byte Folded Spill
	beq	%cr0, .LBB3_6
# %bb.2:                                #   in Loop: Header=BB3_1 Depth=1
	addis %r3, %r2, .LC7@toc@ha
	ld %r4, .LC7@toc@l(%r3)
	ld %r3, 0(%r4)
	addi %r3, %r3, 1
	std %r3, 0(%r4)
	addis %r3, %r2, .LC6@toc@ha
	ld %r4, .LC6@toc@l(%r3)
	ld %r3, 16(%r4)
	addi %r3, %r3, 1
	std %r3, 16(%r4)
	ld %r3, -64(%r1)
	lbz %r3, 0(%r3)
	stw %r3, -92(%r1)                       # 4-byte Folded Spill
	ld %r4, -56(%r1)
	stb %r3, 0(%r4)
	lwz %r4, -36(%r1)
	stw %r4, -88(%r1)                       # 4-byte Folded Spill
	xor %r3, %r3, %r4
	cmplwi	%r3, 0
	li %r3, 0
	stw %r3, -84(%r1)                       # 4-byte Folded Spill
	li %r3, 1
	stw %r3, -80(%r1)                       # 4-byte Folded Spill
	bne	%cr0, .LBB3_4
# %bb.3:                                #   in Loop: Header=BB3_1 Depth=1
	lwz %r3, -84(%r1)                       # 4-byte Folded Reload
	stw %r3, -80(%r1)                       # 4-byte Folded Spill
.LBB3_4:                                #   in Loop: Header=BB3_1 Depth=1
	lwz %r4, -92(%r1)                       # 4-byte Folded Reload
	lwz %r5, -88(%r1)                       # 4-byte Folded Reload
	lwz %r3, -80(%r1)                       # 4-byte Folded Reload
	stw %r3, -96(%r1)                       # 4-byte Folded Spill
	cmpw	%r4, %r5
	stw %r3, -76(%r1)                       # 4-byte Folded Spill
	beq	%cr0, .LBB3_6
# %bb.5:                                #   in Loop: Header=BB3_1 Depth=1
	lwz %r3, -96(%r1)                       # 4-byte Folded Reload
	addis %r4, %r2, .LC7@toc@ha
	ld %r4, .LC7@toc@l(%r4)
	ld %r4, 8(%r4)
	addi %r4, %r4, 1
	addis %r5, %r2, .LC7@toc@ha
	ld %r5, .LC7@toc@l(%r5)
	std %r4, 8(%r5)
	addis %r4, %r2, .LC6@toc@ha
	ld %r4, .LC6@toc@l(%r4)
	ld %r4, 24(%r4)
	addi %r4, %r4, 1
	addis %r5, %r2, .LC6@toc@ha
	ld %r5, .LC6@toc@l(%r5)
	std %r4, 24(%r5)
	stw %r3, -76(%r1)                       # 4-byte Folded Spill
.LBB3_6:                                #   in Loop: Header=BB3_1 Depth=1
	lwz %r3, -76(%r1)                       # 4-byte Folded Reload
	clrlwi	%r3, %r3, 31
	cmplwi	%r3, 0
	beq	%cr0, .LBB3_9
	b .LBB3_7
.LBB3_7:                                #   in Loop: Header=BB3_1 Depth=1
	addis %r3, %r2, .LC6@toc@ha
	ld %r3, .LC6@toc@l(%r3)
	ld %r3, 8(%r3)
	addi %r3, %r3, 1
	addis %r4, %r2, .LC6@toc@ha
	ld %r4, .LC6@toc@l(%r4)
	std %r3, 8(%r4)
# %bb.8:                                #   in Loop: Header=BB3_1 Depth=1
	addis %r3, %r2, .LC7@toc@ha
	ld %r3, .LC7@toc@l(%r3)
	ld %r3, 16(%r3)
	addi %r3, %r3, 1
	addis %r4, %r2, .LC7@toc@ha
	ld %r4, .LC7@toc@l(%r4)
	std %r3, 16(%r4)
	ld %r3, -48(%r1)
	addi %r3, %r3, -1
	std %r3, -48(%r1)
	ld %r3, -64(%r1)
	addi %r3, %r3, 1
	std %r3, -64(%r1)
	ld %r3, -56(%r1)
	addi %r3, %r3, 1
	std %r3, -56(%r1)
	b .LBB3_1
.LBB3_9:
	ld %r3, -48(%r1)
	cmpdi	%r3, 0
	beq	%cr0, .LBB3_11
# %bb.10:
	addis %r3, %r2, .LC7@toc@ha
	ld %r3, .LC7@toc@l(%r3)
	ld %r3, 24(%r3)
	addi %r3, %r3, 1
	addis %r4, %r2, .LC7@toc@ha
	ld %r4, .LC7@toc@l(%r4)
	std %r3, 24(%r4)
	addis %r3, %r2, .LC6@toc@ha
	ld %r3, .LC6@toc@l(%r3)
	ld %r3, 32(%r3)
	addi %r3, %r3, 1
	addis %r4, %r2, .LC6@toc@ha
	ld %r4, .LC6@toc@l(%r4)
	std %r3, 32(%r4)
	ld %r3, -56(%r1)
	addi %r3, %r3, 1
	std %r3, -16(%r1)
	b .LBB3_12
.LBB3_11:
	addis %r3, %r2, .LC7@toc@ha
	ld %r3, .LC7@toc@l(%r3)
	ld %r3, 32(%r3)
	addi %r3, %r3, 1
	addis %r4, %r2, .LC7@toc@ha
	ld %r4, .LC7@toc@l(%r4)
	std %r3, 32(%r4)
	li %r3, 0
	std %r3, -16(%r1)
.LBB3_12:
	ld %r3, -16(%r1)
	blr
	.long	0
	.quad	0
.Lfunc_end3:
	.size	memccpy, .Lfunc_end3-.Lfunc_begin3
	.cfi_endproc
                                        # -- End function
	.globl	memchr                          # -- Begin function memchr
	.p2align	2
	.type	memchr,@function
	.section	.opd,"aw",@progbits
memchr:                                 # @memchr
	.p2align	3, 0x0
	.quad	.Lfunc_begin4
	.quad	.TOC.@tocbase
	.quad	0
	.text
.Lfunc_begin4:
	.cfi_startproc
# %bb.0:
	std %r4, -48(%r1)                       # 8-byte Folded Spill
	mr	%r4, %r3
	ld %r3, -48(%r1)                        # 8-byte Folded Reload
                                        # kill: def $r3 killed $r3 killed $x3
	std %r4, -16(%r1)
	stw %r3, -20(%r1)
	std %r5, -32(%r1)
	addis %r3, %r2, .LC8@toc@ha
	ld %r3, .LC8@toc@l(%r3)
	ld %r3, 0(%r3)
	addi %r3, %r3, 1
	addis %r4, %r2, .LC8@toc@ha
	ld %r4, .LC8@toc@l(%r4)
	std %r3, 0(%r4)
	ld %r3, -16(%r1)
	std %r3, -40(%r1)
	lwz %r3, -20(%r1)
	clrlwi	%r3, %r3, 24
	stw %r3, -20(%r1)
.LBB4_1:                                # =>This Inner Loop Header: Depth=1
	ld %r4, -32(%r1)
	li %r3, 0
	cmpdi	%r4, 0
	stw %r3, -52(%r1)                       # 4-byte Folded Spill
	beq	%cr0, .LBB4_6
# %bb.2:                                #   in Loop: Header=BB4_1 Depth=1
	addis %r3, %r2, .LC9@toc@ha
	ld %r4, .LC9@toc@l(%r3)
	ld %r3, 0(%r4)
	addi %r3, %r3, 1
	std %r3, 0(%r4)
	addis %r3, %r2, .LC8@toc@ha
	ld %r4, .LC8@toc@l(%r3)
	ld %r3, 16(%r4)
	addi %r3, %r3, 1
	std %r3, 16(%r4)
	ld %r3, -40(%r1)
	lbz %r3, 0(%r3)
	stw %r3, -68(%r1)                       # 4-byte Folded Spill
	lwz %r4, -20(%r1)
	stw %r4, -64(%r1)                       # 4-byte Folded Spill
	xor %r3, %r3, %r4
	cmplwi	%r3, 0
	li %r3, 0
	stw %r3, -60(%r1)                       # 4-byte Folded Spill
	li %r3, 1
	stw %r3, -56(%r1)                       # 4-byte Folded Spill
	bne	%cr0, .LBB4_4
# %bb.3:                                #   in Loop: Header=BB4_1 Depth=1
	lwz %r3, -60(%r1)                       # 4-byte Folded Reload
	stw %r3, -56(%r1)                       # 4-byte Folded Spill
.LBB4_4:                                #   in Loop: Header=BB4_1 Depth=1
	lwz %r4, -68(%r1)                       # 4-byte Folded Reload
	lwz %r5, -64(%r1)                       # 4-byte Folded Reload
	lwz %r3, -56(%r1)                       # 4-byte Folded Reload
	stw %r3, -72(%r1)                       # 4-byte Folded Spill
	cmpw	%r4, %r5
	stw %r3, -52(%r1)                       # 4-byte Folded Spill
	beq	%cr0, .LBB4_6
# %bb.5:                                #   in Loop: Header=BB4_1 Depth=1
	lwz %r3, -72(%r1)                       # 4-byte Folded Reload
	addis %r4, %r2, .LC9@toc@ha
	ld %r4, .LC9@toc@l(%r4)
	ld %r4, 8(%r4)
	addi %r4, %r4, 1
	addis %r5, %r2, .LC9@toc@ha
	ld %r5, .LC9@toc@l(%r5)
	std %r4, 8(%r5)
	addis %r4, %r2, .LC8@toc@ha
	ld %r4, .LC8@toc@l(%r4)
	ld %r4, 24(%r4)
	addi %r4, %r4, 1
	addis %r5, %r2, .LC8@toc@ha
	ld %r5, .LC8@toc@l(%r5)
	std %r4, 24(%r5)
	stw %r3, -52(%r1)                       # 4-byte Folded Spill
.LBB4_6:                                #   in Loop: Header=BB4_1 Depth=1
	lwz %r3, -52(%r1)                       # 4-byte Folded Reload
	clrlwi	%r3, %r3, 31
	cmplwi	%r3, 0
	beq	%cr0, .LBB4_9
	b .LBB4_7
.LBB4_7:                                #   in Loop: Header=BB4_1 Depth=1
	addis %r3, %r2, .LC8@toc@ha
	ld %r3, .LC8@toc@l(%r3)
	ld %r3, 8(%r3)
	addi %r3, %r3, 1
	addis %r4, %r2, .LC8@toc@ha
	ld %r4, .LC8@toc@l(%r4)
	std %r3, 8(%r4)
# %bb.8:                                #   in Loop: Header=BB4_1 Depth=1
	addis %r3, %r2, .LC9@toc@ha
	ld %r3, .LC9@toc@l(%r3)
	ld %r3, 16(%r3)
	addi %r3, %r3, 1
	addis %r4, %r2, .LC9@toc@ha
	ld %r4, .LC9@toc@l(%r4)
	std %r3, 16(%r4)
	ld %r3, -40(%r1)
	addi %r3, %r3, 1
	std %r3, -40(%r1)
	ld %r3, -32(%r1)
	addi %r3, %r3, -1
	std %r3, -32(%r1)
	b .LBB4_1
.LBB4_9:
	ld %r3, -32(%r1)
	cmpdi	%r3, 0
	beq	%cr0, .LBB4_11
# %bb.10:
	addis %r3, %r2, .LC9@toc@ha
	ld %r3, .LC9@toc@l(%r3)
	ld %r3, 24(%r3)
	addi %r3, %r3, 1
	addis %r4, %r2, .LC9@toc@ha
	ld %r4, .LC9@toc@l(%r4)
	std %r3, 24(%r4)
	addis %r3, %r2, .LC8@toc@ha
	ld %r3, .LC8@toc@l(%r3)
	ld %r3, 32(%r3)
	addi %r3, %r3, 1
	addis %r4, %r2, .LC8@toc@ha
	ld %r4, .LC8@toc@l(%r4)
	std %r3, 32(%r4)
	ld %r3, -40(%r1)
	std %r3, -80(%r1)                       # 8-byte Folded Spill
	b .LBB4_12
.LBB4_11:
	addis %r3, %r2, .LC9@toc@ha
	ld %r3, .LC9@toc@l(%r3)
	ld %r3, 32(%r3)
	addi %r3, %r3, 1
	addis %r4, %r2, .LC9@toc@ha
	ld %r4, .LC9@toc@l(%r4)
	std %r3, 32(%r4)
	li %r3, 0
	std %r3, -80(%r1)                       # 8-byte Folded Spill
.LBB4_12:
	ld %r3, -80(%r1)                        # 8-byte Folded Reload
	blr
	.long	0
	.quad	0
.Lfunc_end4:
	.size	memchr, .Lfunc_end4-.Lfunc_begin4
	.cfi_endproc
                                        # -- End function
	.globl	memcmp                          # -- Begin function memcmp
	.p2align	2
	.type	memcmp,@function
	.section	.opd,"aw",@progbits
memcmp:                                 # @memcmp
	.p2align	3, 0x0
	.quad	.Lfunc_begin5
	.quad	.TOC.@tocbase
	.quad	0
	.text
.Lfunc_begin5:
	.cfi_startproc
# %bb.0:
	std %r3, -16(%r1)
	std %r4, -24(%r1)
	std %r5, -32(%r1)
	addis %r3, %r2, .LC10@toc@ha
	ld %r3, .LC10@toc@l(%r3)
	ld %r3, 0(%r3)
	addi %r3, %r3, 1
	addis %r4, %r2, .LC10@toc@ha
	ld %r4, .LC10@toc@l(%r4)
	std %r3, 0(%r4)
	ld %r3, -16(%r1)
	std %r3, -40(%r1)
	ld %r3, -24(%r1)
	std %r3, -48(%r1)
.LBB5_1:                                # =>This Inner Loop Header: Depth=1
	ld %r4, -32(%r1)
	li %r3, 0
	cmpdi	%r4, 0
	stw %r3, -52(%r1)                       # 4-byte Folded Spill
	beq	%cr0, .LBB5_4
# %bb.2:                                #   in Loop: Header=BB5_1 Depth=1
	addis %r3, %r2, .LC11@toc@ha
	ld %r4, .LC11@toc@l(%r3)
	ld %r3, 0(%r4)
	addi %r3, %r3, 1
	std %r3, 0(%r4)
	addis %r3, %r2, .LC10@toc@ha
	ld %r4, .LC10@toc@l(%r3)
	ld %r3, 16(%r4)
	addi %r3, %r3, 1
	std %r3, 16(%r4)
	ld %r3, -40(%r1)
	lbz %r4, 0(%r3)
	ld %r3, -48(%r1)
	lbz %r5, 0(%r3)
	xor %r3, %r4, %r5
	cntlzw	%r3, %r3
	srwi %r3, %r3, 5
	stw %r3, -56(%r1)                       # 4-byte Folded Spill
	cmpw	%r4, %r5
	stw %r3, -52(%r1)                       # 4-byte Folded Spill
	bne	%cr0, .LBB5_4
# %bb.3:                                #   in Loop: Header=BB5_1 Depth=1
	lwz %r3, -56(%r1)                       # 4-byte Folded Reload
	addis %r4, %r2, .LC11@toc@ha
	ld %r4, .LC11@toc@l(%r4)
	ld %r4, 8(%r4)
	addi %r4, %r4, 1
	addis %r5, %r2, .LC11@toc@ha
	ld %r5, .LC11@toc@l(%r5)
	std %r4, 8(%r5)
	addis %r4, %r2, .LC10@toc@ha
	ld %r4, .LC10@toc@l(%r4)
	ld %r4, 24(%r4)
	addi %r4, %r4, 1
	addis %r5, %r2, .LC10@toc@ha
	ld %r5, .LC10@toc@l(%r5)
	std %r4, 24(%r5)
	stw %r3, -52(%r1)                       # 4-byte Folded Spill
.LBB5_4:                                #   in Loop: Header=BB5_1 Depth=1
	lwz %r3, -52(%r1)                       # 4-byte Folded Reload
	clrlwi	%r3, %r3, 31
	cmplwi	%r3, 0
	beq	%cr0, .LBB5_7
	b .LBB5_5
.LBB5_5:                                #   in Loop: Header=BB5_1 Depth=1
	addis %r3, %r2, .LC10@toc@ha
	ld %r3, .LC10@toc@l(%r3)
	ld %r3, 8(%r3)
	addi %r3, %r3, 1
	addis %r4, %r2, .LC10@toc@ha
	ld %r4, .LC10@toc@l(%r4)
	std %r3, 8(%r4)
# %bb.6:                                #   in Loop: Header=BB5_1 Depth=1
	addis %r3, %r2, .LC11@toc@ha
	ld %r3, .LC11@toc@l(%r3)
	ld %r3, 16(%r3)
	addi %r3, %r3, 1
	addis %r4, %r2, .LC11@toc@ha
	ld %r4, .LC11@toc@l(%r4)
	std %r3, 16(%r4)
	ld %r3, -32(%r1)
	addi %r3, %r3, -1
	std %r3, -32(%r1)
	ld %r3, -40(%r1)
	addi %r3, %r3, 1
	std %r3, -40(%r1)
	ld %r3, -48(%r1)
	addi %r3, %r3, 1
	std %r3, -48(%r1)
	b .LBB5_1
.LBB5_7:
	ld %r3, -32(%r1)
	cmpdi	%r3, 0
	beq	%cr0, .LBB5_9
# %bb.8:
	addis %r3, %r2, .LC11@toc@ha
	ld %r4, .LC11@toc@l(%r3)
	ld %r3, 24(%r4)
	addi %r3, %r3, 1
	std %r3, 24(%r4)
	addis %r3, %r2, .LC10@toc@ha
	ld %r4, .LC10@toc@l(%r3)
	ld %r3, 32(%r4)
	addi %r3, %r3, 1
	std %r3, 32(%r4)
	ld %r3, -40(%r1)
	lbz %r4, 0(%r3)
	ld %r3, -48(%r1)
	lbz %r3, 0(%r3)
	sub	%r3, %r4, %r3
	stw %r3, -60(%r1)                       # 4-byte Folded Spill
	b .LBB5_10
.LBB5_9:
	addis %r3, %r2, .LC11@toc@ha
	ld %r3, .LC11@toc@l(%r3)
	ld %r3, 32(%r3)
	addi %r3, %r3, 1
	addis %r4, %r2, .LC11@toc@ha
	ld %r4, .LC11@toc@l(%r4)
	std %r3, 32(%r4)
	li %r3, 0
	stw %r3, -60(%r1)                       # 4-byte Folded Spill
.LBB5_10:
	lwz %r3, -60(%r1)                       # 4-byte Folded Reload
	extsw %r3, %r3
	blr
	.long	0
	.quad	0
.Lfunc_end5:
	.size	memcmp, .Lfunc_end5-.Lfunc_begin5
	.cfi_endproc
                                        # -- End function
	.globl	memcpy                          # -- Begin function memcpy
	.p2align	2
	.type	memcpy,@function
	.section	.opd,"aw",@progbits
memcpy:                                 # @memcpy
	.p2align	3, 0x0
	.quad	.Lfunc_begin6
	.quad	.TOC.@tocbase
	.quad	0
	.text
.Lfunc_begin6:
	.cfi_startproc
# %bb.0:
	addis %r6, %r2, .LC12@toc@ha
	ld %r6, .LC12@toc@l(%r6)
	ld %r6, 0(%r6)
	addi %r6, %r6, 1
	addis %r7, %r2, .LC12@toc@ha
	ld %r7, .LC12@toc@l(%r7)
	std %r6, 0(%r7)
	std %r3, -16(%r1)
	std %r4, -24(%r1)
	std %r5, -32(%r1)
	addis %r3, %r2, .LC13@toc@ha
	ld %r3, .LC13@toc@l(%r3)
	ld %r3, 0(%r3)
	addi %r3, %r3, 1
	addis %r4, %r2, .LC13@toc@ha
	ld %r4, .LC13@toc@l(%r4)
	std %r3, 0(%r4)
	ld %r3, -16(%r1)
	std %r3, -40(%r1)
	ld %r3, -24(%r1)
	std %r3, -48(%r1)
.LBB6_1:                                # =>This Inner Loop Header: Depth=1
	ld %r3, -32(%r1)
	cmpdi	%r3, 0
	beq	%cr0, .LBB6_4
# %bb.2:                                #   in Loop: Header=BB6_1 Depth=1
	addis %r3, %r2, .LC13@toc@ha
	ld %r3, .LC13@toc@l(%r3)
	ld %r3, 8(%r3)
	addi %r3, %r3, 1
	addis %r4, %r2, .LC13@toc@ha
	ld %r4, .LC13@toc@l(%r4)
	std %r3, 8(%r4)
	ld %r3, -48(%r1)
	addi %r4, %r3, 1
	std %r4, -48(%r1)
	lbz %r3, 0(%r3)
	ld %r4, -40(%r1)
	addi %r5, %r4, 1
	std %r5, -40(%r1)
	stb %r3, 0(%r4)
# %bb.3:                                #   in Loop: Header=BB6_1 Depth=1
	addis %r3, %r2, .LC12@toc@ha
	ld %r3, .LC12@toc@l(%r3)
	ld %r3, 8(%r3)
	addi %r3, %r3, 1
	addis %r4, %r2, .LC12@toc@ha
	ld %r4, .LC12@toc@l(%r4)
	std %r3, 8(%r4)
	ld %r3, -32(%r1)
	addi %r3, %r3, -1
	std %r3, -32(%r1)
	b .LBB6_1
.LBB6_4:
	ld %r3, -16(%r1)
	blr
	.long	0
	.quad	0
.Lfunc_end6:
	.size	memcpy, .Lfunc_end6-.Lfunc_begin6
	.cfi_endproc
                                        # -- End function
	.globl	memrchr                         # -- Begin function memrchr
	.p2align	2
	.type	memrchr,@function
	.section	.opd,"aw",@progbits
memrchr:                                # @memrchr
	.p2align	3, 0x0
	.quad	.Lfunc_begin7
	.quad	.TOC.@tocbase
	.quad	0
	.text
.Lfunc_begin7:
	.cfi_startproc
# %bb.0:
	std %r4, -56(%r1)                       # 8-byte Folded Spill
	mr	%r4, %r3
	ld %r3, -56(%r1)                        # 8-byte Folded Reload
                                        # kill: def $r3 killed $r3 killed $x3
	std %r4, -24(%r1)
	stw %r3, -28(%r1)
	std %r5, -40(%r1)
	addis %r3, %r2, .LC14@toc@ha
	ld %r3, .LC14@toc@l(%r3)
	ld %r3, 0(%r3)
	addi %r3, %r3, 1
	addis %r4, %r2, .LC14@toc@ha
	ld %r4, .LC14@toc@l(%r4)
	std %r3, 0(%r4)
	ld %r3, -24(%r1)
	std %r3, -48(%r1)
	lwz %r3, -28(%r1)
	clrlwi	%r3, %r3, 24
	stw %r3, -28(%r1)
.LBB7_1:                                # =>This Inner Loop Header: Depth=1
	ld %r3, -40(%r1)
	addi %r4, %r3, -1
	std %r4, -40(%r1)
	cmpdi	%r3, 0
	beq	%cr0, .LBB7_5
# %bb.2:                                #   in Loop: Header=BB7_1 Depth=1
	addis %r3, %r2, .LC14@toc@ha
	ld %r3, .LC14@toc@l(%r3)
	ld %r3, 8(%r3)
	addi %r3, %r3, 1
	addis %r4, %r2, .LC14@toc@ha
	ld %r4, .LC14@toc@l(%r4)
	std %r3, 8(%r4)
	ld %r3, -48(%r1)
	ld %r4, -40(%r1)
	add %r3, %r3, %r4
	lbz %r3, 0(%r3)
	lwz %r4, -28(%r1)
	cmpw	%r3, %r4
	bne	%cr0, .LBB7_4
# %bb.3:
	addis %r3, %r2, .LC15@toc@ha
	ld %r3, .LC15@toc@l(%r3)
	ld %r3, 0(%r3)
	addi %r3, %r3, 1
	addis %r4, %r2, .LC15@toc@ha
	ld %r4, .LC15@toc@l(%r4)
	std %r3, 0(%r4)
	addis %r3, %r2, .LC14@toc@ha
	ld %r3, .LC14@toc@l(%r3)
	ld %r3, 16(%r3)
	addi %r3, %r3, 1
	addis %r4, %r2, .LC14@toc@ha
	ld %r4, .LC14@toc@l(%r4)
	std %r3, 16(%r4)
	ld %r3, -48(%r1)
	ld %r4, -40(%r1)
	add %r3, %r3, %r4
	std %r3, -16(%r1)
	b .LBB7_6
.LBB7_4:                                #   in Loop: Header=BB7_1 Depth=1
	addis %r3, %r2, .LC15@toc@ha
	ld %r3, .LC15@toc@l(%r3)
	ld %r3, 8(%r3)
	addi %r3, %r3, 1
	addis %r4, %r2, .LC15@toc@ha
	ld %r4, .LC15@toc@l(%r4)
	std %r3, 8(%r4)
	b .LBB7_1
.LBB7_5:
	addis %r3, %r2, .LC15@toc@ha
	ld %r3, .LC15@toc@l(%r3)
	ld %r3, 16(%r3)
	addi %r3, %r3, 1
	addis %r4, %r2, .LC15@toc@ha
	ld %r4, .LC15@toc@l(%r4)
	std %r3, 16(%r4)
	li %r3, 0
	std %r3, -16(%r1)
.LBB7_6:
	ld %r3, -16(%r1)
	blr
	.long	0
	.quad	0
.Lfunc_end7:
	.size	memrchr, .Lfunc_end7-.Lfunc_begin7
	.cfi_endproc
                                        # -- End function
	.globl	memset                          # -- Begin function memset
	.p2align	2
	.type	memset,@function
	.section	.opd,"aw",@progbits
memset:                                 # @memset
	.p2align	3, 0x0
	.quad	.Lfunc_begin8
	.quad	.TOC.@tocbase
	.quad	0
	.text
.Lfunc_begin8:
	.cfi_startproc
# %bb.0:
	std %r4, -56(%r1)                       # 8-byte Folded Spill
	mr	%r4, %r3
	ld %r3, -56(%r1)                        # 8-byte Folded Reload
                                        # kill: def $r3 killed $r3 killed $x3
	addis %r6, %r2, .LC16@toc@ha
	ld %r6, .LC16@toc@l(%r6)
	ld %r6, 0(%r6)
	addi %r6, %r6, 1
	addis %r7, %r2, .LC16@toc@ha
	ld %r7, .LC16@toc@l(%r7)
	std %r6, 0(%r7)
	std %r4, -16(%r1)
	stw %r3, -20(%r1)
	std %r5, -32(%r1)
	addis %r3, %r2, .LC17@toc@ha
	ld %r3, .LC17@toc@l(%r3)
	ld %r3, 0(%r3)
	addi %r3, %r3, 1
	addis %r4, %r2, .LC17@toc@ha
	ld %r4, .LC17@toc@l(%r4)
	std %r3, 0(%r4)
	ld %r3, -16(%r1)
	std %r3, -40(%r1)
.LBB8_1:                                # =>This Inner Loop Header: Depth=1
	ld %r3, -32(%r1)
	cmpdi	%r3, 0
	beq	%cr0, .LBB8_4
# %bb.2:                                #   in Loop: Header=BB8_1 Depth=1
	addis %r3, %r2, .LC17@toc@ha
	ld %r3, .LC17@toc@l(%r3)
	ld %r3, 8(%r3)
	addi %r3, %r3, 1
	addis %r4, %r2, .LC17@toc@ha
	ld %r4, .LC17@toc@l(%r4)
	std %r3, 8(%r4)
	lwz %r3, -20(%r1)
	ld %r4, -40(%r1)
	stb %r3, 0(%r4)
# %bb.3:                                #   in Loop: Header=BB8_1 Depth=1
	addis %r3, %r2, .LC16@toc@ha
	ld %r3, .LC16@toc@l(%r3)
	ld %r3, 8(%r3)
	addi %r3, %r3, 1
	addis %r4, %r2, .LC16@toc@ha
	ld %r4, .LC16@toc@l(%r4)
	std %r3, 8(%r4)
	ld %r3, -32(%r1)
	addi %r3, %r3, -1
	std %r3, -32(%r1)
	ld %r3, -40(%r1)
	addi %r3, %r3, 1
	std %r3, -40(%r1)
	b .LBB8_1
.LBB8_4:
	ld %r3, -16(%r1)
	blr
	.long	0
	.quad	0
.Lfunc_end8:
	.size	memset, .Lfunc_end8-.Lfunc_begin8
	.cfi_endproc
                                        # -- End function
	.globl	stpcpy                          # -- Begin function stpcpy
	.p2align	2
	.type	stpcpy,@function
	.section	.opd,"aw",@progbits
stpcpy:                                 # @stpcpy
	.p2align	3, 0x0
	.quad	.Lfunc_begin9
	.quad	.TOC.@tocbase
	.quad	0
	.text
.Lfunc_begin9:
	.cfi_startproc
# %bb.0:
	addis %r5, %r2, .LC18@toc@ha
	ld %r5, .LC18@toc@l(%r5)
	ld %r5, 0(%r5)
	addi %r5, %r5, 1
	addis %r6, %r2, .LC18@toc@ha
	ld %r6, .LC18@toc@l(%r6)
	std %r5, 0(%r6)
	std %r3, -16(%r1)
	std %r4, -24(%r1)
	addis %r3, %r2, .LC19@toc@ha
	ld %r3, .LC19@toc@l(%r3)
	ld %r3, 0(%r3)
	addi %r3, %r3, 1
	addis %r4, %r2, .LC19@toc@ha
	ld %r4, .LC19@toc@l(%r4)
	std %r3, 0(%r4)
.LBB9_1:                                # =>This Inner Loop Header: Depth=1
	ld %r3, -24(%r1)
	lbz %r3, 0(%r3)
	ld %r4, -16(%r1)
	stb %r3, 0(%r4)
	extsb %r3, %r3
	cmpwi	%r3, 0
	beq	%cr0, .LBB9_4
# %bb.2:                                #   in Loop: Header=BB9_1 Depth=1
	addis %r3, %r2, .LC19@toc@ha
	ld %r3, .LC19@toc@l(%r3)
	ld %r3, 8(%r3)
	addi %r3, %r3, 1
	addis %r4, %r2, .LC19@toc@ha
	ld %r4, .LC19@toc@l(%r4)
	std %r3, 8(%r4)
# %bb.3:                                #   in Loop: Header=BB9_1 Depth=1
	addis %r3, %r2, .LC18@toc@ha
	ld %r3, .LC18@toc@l(%r3)
	ld %r3, 8(%r3)
	addi %r3, %r3, 1
	addis %r4, %r2, .LC18@toc@ha
	ld %r4, .LC18@toc@l(%r4)
	std %r3, 8(%r4)
	ld %r3, -24(%r1)
	addi %r3, %r3, 1
	std %r3, -24(%r1)
	ld %r3, -16(%r1)
	addi %r3, %r3, 1
	std %r3, -16(%r1)
	b .LBB9_1
.LBB9_4:
	ld %r3, -16(%r1)
	blr
	.long	0
	.quad	0
.Lfunc_end9:
	.size	stpcpy, .Lfunc_end9-.Lfunc_begin9
	.cfi_endproc
                                        # -- End function
	.globl	strchrnul                       # -- Begin function strchrnul
	.p2align	2
	.type	strchrnul,@function
	.section	.opd,"aw",@progbits
strchrnul:                              # @strchrnul
	.p2align	3, 0x0
	.quad	.Lfunc_begin10
	.quad	.TOC.@tocbase
	.quad	0
	.text
.Lfunc_begin10:
	.cfi_startproc
# %bb.0:
	std %r4, -32(%r1)                       # 8-byte Folded Spill
	mr	%r4, %r3
	ld %r3, -32(%r1)                        # 8-byte Folded Reload
                                        # kill: def $r3 killed $r3 killed $x3
	addis %r5, %r2, .LC20@toc@ha
	ld %r5, .LC20@toc@l(%r5)
	ld %r5, 0(%r5)
	addi %r5, %r5, 1
	addis %r6, %r2, .LC20@toc@ha
	ld %r6, .LC20@toc@l(%r6)
	std %r5, 0(%r6)
	std %r4, -16(%r1)
	stw %r3, -20(%r1)
	addis %r3, %r2, .LC21@toc@ha
	ld %r3, .LC21@toc@l(%r3)
	ld %r3, 0(%r3)
	addi %r3, %r3, 1
	addis %r4, %r2, .LC21@toc@ha
	ld %r4, .LC21@toc@l(%r4)
	std %r3, 0(%r4)
	lwz %r3, -20(%r1)
	clrlwi	%r3, %r3, 24
	stw %r3, -20(%r1)
.LBB10_1:                               # =>This Inner Loop Header: Depth=1
	ld %r3, -16(%r1)
	lbz %r4, 0(%r3)
	li %r3, 0
	cmpwi	%r4, 0
	stw %r3, -36(%r1)                       # 4-byte Folded Spill
	beq	%cr0, .LBB10_6
# %bb.2:                                #   in Loop: Header=BB10_1 Depth=1
	addis %r3, %r2, .LC20@toc@ha
	ld %r4, .LC20@toc@l(%r3)
	ld %r3, 8(%r4)
	addi %r3, %r3, 1
	std %r3, 8(%r4)
	addis %r3, %r2, .LC21@toc@ha
	ld %r4, .LC21@toc@l(%r3)
	ld %r3, 16(%r4)
	addi %r3, %r3, 1
	std %r3, 16(%r4)
	ld %r3, -16(%r1)
	lbz %r3, 0(%r3)
	stw %r3, -52(%r1)                       # 4-byte Folded Spill
	lwz %r4, -20(%r1)
	stw %r4, -48(%r1)                       # 4-byte Folded Spill
	xor %r3, %r3, %r4
	cmplwi	%r3, 0
	li %r3, 0
	stw %r3, -44(%r1)                       # 4-byte Folded Spill
	li %r3, 1
	stw %r3, -40(%r1)                       # 4-byte Folded Spill
	bne	%cr0, .LBB10_4
# %bb.3:                                #   in Loop: Header=BB10_1 Depth=1
	lwz %r3, -44(%r1)                       # 4-byte Folded Reload
	stw %r3, -40(%r1)                       # 4-byte Folded Spill
.LBB10_4:                               #   in Loop: Header=BB10_1 Depth=1
	lwz %r4, -52(%r1)                       # 4-byte Folded Reload
	lwz %r5, -48(%r1)                       # 4-byte Folded Reload
	lwz %r3, -40(%r1)                       # 4-byte Folded Reload
	stw %r3, -56(%r1)                       # 4-byte Folded Spill
	cmpw	%r4, %r5
	stw %r3, -36(%r1)                       # 4-byte Folded Spill
	beq	%cr0, .LBB10_6
# %bb.5:                                #   in Loop: Header=BB10_1 Depth=1
	lwz %r3, -56(%r1)                       # 4-byte Folded Reload
	addis %r4, %r2, .LC20@toc@ha
	ld %r4, .LC20@toc@l(%r4)
	ld %r4, 16(%r4)
	addi %r4, %r4, 1
	addis %r5, %r2, .LC20@toc@ha
	ld %r5, .LC20@toc@l(%r5)
	std %r4, 16(%r5)
	addis %r4, %r2, .LC21@toc@ha
	ld %r4, .LC21@toc@l(%r4)
	ld %r4, 24(%r4)
	addi %r4, %r4, 1
	addis %r5, %r2, .LC21@toc@ha
	ld %r5, .LC21@toc@l(%r5)
	std %r4, 24(%r5)
	stw %r3, -36(%r1)                       # 4-byte Folded Spill
.LBB10_6:                               #   in Loop: Header=BB10_1 Depth=1
	lwz %r3, -36(%r1)                       # 4-byte Folded Reload
	clrlwi	%r3, %r3, 31
	cmplwi	%r3, 0
	beq	%cr0, .LBB10_9
	b .LBB10_7
.LBB10_7:                               #   in Loop: Header=BB10_1 Depth=1
	addis %r3, %r2, .LC21@toc@ha
	ld %r3, .LC21@toc@l(%r3)
	ld %r3, 8(%r3)
	addi %r3, %r3, 1
	addis %r4, %r2, .LC21@toc@ha
	ld %r4, .LC21@toc@l(%r4)
	std %r3, 8(%r4)
# %bb.8:                                #   in Loop: Header=BB10_1 Depth=1
	addis %r3, %r2, .LC20@toc@ha
	ld %r3, .LC20@toc@l(%r3)
	ld %r3, 24(%r3)
	addi %r3, %r3, 1
	addis %r4, %r2, .LC20@toc@ha
	ld %r4, .LC20@toc@l(%r4)
	std %r3, 24(%r4)
	ld %r3, -16(%r1)
	addi %r3, %r3, 1
	std %r3, -16(%r1)
	b .LBB10_1
.LBB10_9:
	ld %r3, -16(%r1)
	blr
	.long	0
	.quad	0
.Lfunc_end10:
	.size	strchrnul, .Lfunc_end10-.Lfunc_begin10
	.cfi_endproc
                                        # -- End function
	.globl	strchr                          # -- Begin function strchr
	.p2align	2
	.type	strchr,@function
	.section	.opd,"aw",@progbits
strchr:                                 # @strchr
	.p2align	3, 0x0
	.quad	.Lfunc_begin11
	.quad	.TOC.@tocbase
	.quad	0
	.text
.Lfunc_begin11:
	.cfi_startproc
# %bb.0:
	std %r4, -40(%r1)                       # 8-byte Folded Spill
	mr	%r4, %r3
	ld %r3, -40(%r1)                        # 8-byte Folded Reload
                                        # kill: def $r3 killed $r3 killed $x3
	std %r4, -24(%r1)
	stw %r3, -28(%r1)
	addis %r3, %r2, .LC22@toc@ha
	ld %r3, .LC22@toc@l(%r3)
	ld %r3, 0(%r3)
	addi %r3, %r3, 1
	addis %r4, %r2, .LC22@toc@ha
	ld %r4, .LC22@toc@l(%r4)
	std %r3, 0(%r4)
	b .LBB11_2
.LBB11_1:                               #   in Loop: Header=BB11_2 Depth=1
	addis %r3, %r2, .LC23@toc@ha
	ld %r3, .LC23@toc@l(%r3)
	ld %r3, 8(%r3)
	addi %r3, %r3, 1
	addis %r4, %r2, .LC23@toc@ha
	ld %r4, .LC23@toc@l(%r4)
	std %r3, 8(%r4)
	addis %r3, %r2, .LC22@toc@ha
	ld %r3, .LC22@toc@l(%r3)
	ld %r3, 8(%r3)
	addi %r3, %r3, 1
	addis %r4, %r2, .LC22@toc@ha
	ld %r4, .LC22@toc@l(%r4)
	std %r3, 8(%r4)
.LBB11_2:                               # =>This Inner Loop Header: Depth=1
	ld %r3, -24(%r1)
	lbz %r3, 0(%r3)
	lwz %r4, -28(%r1)
	cmpw	%r3, %r4
	bne	%cr0, .LBB11_4
# %bb.3:
	addis %r3, %r2, .LC23@toc@ha
	ld %r3, .LC23@toc@l(%r3)
	ld %r3, 0(%r3)
	addi %r3, %r3, 1
	addis %r4, %r2, .LC23@toc@ha
	ld %r4, .LC23@toc@l(%r4)
	std %r3, 0(%r4)
	addis %r3, %r2, .LC22@toc@ha
	ld %r3, .LC22@toc@l(%r3)
	ld %r3, 16(%r3)
	addi %r3, %r3, 1
	addis %r4, %r2, .LC22@toc@ha
	ld %r4, .LC22@toc@l(%r4)
	std %r3, 16(%r4)
	ld %r3, -24(%r1)
	std %r3, -16(%r1)
	b .LBB11_7
.LBB11_4:                               #   in Loop: Header=BB11_2 Depth=1
	b .LBB11_5
.LBB11_5:                               #   in Loop: Header=BB11_2 Depth=1
	ld %r3, -24(%r1)
	addi %r4, %r3, 1
	std %r4, -24(%r1)
	lbz %r3, 0(%r3)
	extsb %r3, %r3
	cmpwi	%r3, 0
	bne	%cr0, .LBB11_1
# %bb.6:
	addis %r3, %r2, .LC23@toc@ha
	ld %r3, .LC23@toc@l(%r3)
	ld %r3, 16(%r3)
	addi %r3, %r3, 1
	addis %r4, %r2, .LC23@toc@ha
	ld %r4, .LC23@toc@l(%r4)
	std %r3, 16(%r4)
	li %r3, 0
	std %r3, -16(%r1)
.LBB11_7:
	ld %r3, -16(%r1)
	blr
	.long	0
	.quad	0
.Lfunc_end11:
	.size	strchr, .Lfunc_end11-.Lfunc_begin11
	.cfi_endproc
                                        # -- End function
	.globl	strcmp                          # -- Begin function strcmp
	.p2align	2
	.type	strcmp,@function
	.section	.opd,"aw",@progbits
strcmp:                                 # @strcmp
	.p2align	3, 0x0
	.quad	.Lfunc_begin12
	.quad	.TOC.@tocbase
	.quad	0
	.text
.Lfunc_begin12:
	.cfi_startproc
# %bb.0:
	addis %r5, %r2, .LC24@toc@ha
	ld %r5, .LC24@toc@l(%r5)
	ld %r5, 0(%r5)
	addi %r5, %r5, 1
	addis %r6, %r2, .LC24@toc@ha
	ld %r6, .LC24@toc@l(%r6)
	std %r5, 0(%r6)
	std %r3, -16(%r1)
	std %r4, -24(%r1)
	addis %r3, %r2, .LC25@toc@ha
	ld %r3, .LC25@toc@l(%r3)
	ld %r3, 0(%r3)
	addi %r3, %r3, 1
	addis %r4, %r2, .LC25@toc@ha
	ld %r4, .LC25@toc@l(%r4)
	std %r3, 0(%r4)
.LBB12_1:                               # =>This Inner Loop Header: Depth=1
	ld %r3, -16(%r1)
	lbz %r4, 0(%r3)
	ld %r3, -24(%r1)
	lbz %r5, 0(%r3)
	li %r3, 0
	cmpw	%r4, %r5
	stw %r3, -28(%r1)                       # 4-byte Folded Spill
	bne	%cr0, .LBB12_6
# %bb.2:                                #   in Loop: Header=BB12_1 Depth=1
	addis %r3, %r2, .LC24@toc@ha
	ld %r4, .LC24@toc@l(%r3)
	ld %r3, 8(%r4)
	addi %r3, %r3, 1
	std %r3, 8(%r4)
	addis %r3, %r2, .LC25@toc@ha
	ld %r4, .LC25@toc@l(%r3)
	ld %r3, 16(%r4)
	addi %r3, %r3, 1
	std %r3, 16(%r4)
	ld %r3, -16(%r1)
	lbz %r3, 0(%r3)
	stw %r3, -40(%r1)                       # 4-byte Folded Spill
	cmplwi	%r3, 0
	li %r3, 0
	stw %r3, -36(%r1)                       # 4-byte Folded Spill
	li %r3, 1
	stw %r3, -32(%r1)                       # 4-byte Folded Spill
	bne	%cr0, .LBB12_4
# %bb.3:                                #   in Loop: Header=BB12_1 Depth=1
	lwz %r3, -36(%r1)                       # 4-byte Folded Reload
	stw %r3, -32(%r1)                       # 4-byte Folded Spill
.LBB12_4:                               #   in Loop: Header=BB12_1 Depth=1
	lwz %r4, -40(%r1)                       # 4-byte Folded Reload
	lwz %r3, -32(%r1)                       # 4-byte Folded Reload
	stw %r3, -44(%r1)                       # 4-byte Folded Spill
	cmpwi	%r4, 0
	stw %r3, -28(%r1)                       # 4-byte Folded Spill
	beq	%cr0, .LBB12_6
# %bb.5:                                #   in Loop: Header=BB12_1 Depth=1
	lwz %r3, -44(%r1)                       # 4-byte Folded Reload
	addis %r4, %r2, .LC24@toc@ha
	ld %r4, .LC24@toc@l(%r4)
	ld %r4, 16(%r4)
	addi %r4, %r4, 1
	addis %r5, %r2, .LC24@toc@ha
	ld %r5, .LC24@toc@l(%r5)
	std %r4, 16(%r5)
	addis %r4, %r2, .LC25@toc@ha
	ld %r4, .LC25@toc@l(%r4)
	ld %r4, 24(%r4)
	addi %r4, %r4, 1
	addis %r5, %r2, .LC25@toc@ha
	ld %r5, .LC25@toc@l(%r5)
	std %r4, 24(%r5)
	stw %r3, -28(%r1)                       # 4-byte Folded Spill
.LBB12_6:                               #   in Loop: Header=BB12_1 Depth=1
	lwz %r3, -28(%r1)                       # 4-byte Folded Reload
	clrlwi	%r3, %r3, 31
	cmplwi	%r3, 0
	beq	%cr0, .LBB12_9
	b .LBB12_7
.LBB12_7:                               #   in Loop: Header=BB12_1 Depth=1
	addis %r3, %r2, .LC25@toc@ha
	ld %r3, .LC25@toc@l(%r3)
	ld %r3, 8(%r3)
	addi %r3, %r3, 1
	addis %r4, %r2, .LC25@toc@ha
	ld %r4, .LC25@toc@l(%r4)
	std %r3, 8(%r4)
# %bb.8:                                #   in Loop: Header=BB12_1 Depth=1
	addis %r3, %r2, .LC24@toc@ha
	ld %r3, .LC24@toc@l(%r3)
	ld %r3, 24(%r3)
	addi %r3, %r3, 1
	addis %r4, %r2, .LC24@toc@ha
	ld %r4, .LC24@toc@l(%r4)
	std %r3, 24(%r4)
	ld %r3, -16(%r1)
	addi %r3, %r3, 1
	std %r3, -16(%r1)
	ld %r3, -24(%r1)
	addi %r3, %r3, 1
	std %r3, -24(%r1)
	b .LBB12_1
.LBB12_9:
	ld %r3, -16(%r1)
	lbz %r4, 0(%r3)
	ld %r3, -24(%r1)
	lbz %r3, 0(%r3)
	sub	%r3, %r4, %r3
	extsw %r3, %r3
	blr
	.long	0
	.quad	0
.Lfunc_end12:
	.size	strcmp, .Lfunc_end12-.Lfunc_begin12
	.cfi_endproc
                                        # -- End function
	.globl	strlen                          # -- Begin function strlen
	.p2align	2
	.type	strlen,@function
	.section	.opd,"aw",@progbits
strlen:                                 # @strlen
	.p2align	3, 0x0
	.quad	.Lfunc_begin13
	.quad	.TOC.@tocbase
	.quad	0
	.text
.Lfunc_begin13:
	.cfi_startproc
# %bb.0:
	addis %r4, %r2, .LC26@toc@ha
	ld %r4, .LC26@toc@l(%r4)
	ld %r4, 0(%r4)
	addi %r4, %r4, 1
	addis %r5, %r2, .LC26@toc@ha
	ld %r5, .LC26@toc@l(%r5)
	std %r4, 0(%r5)
	std %r3, -16(%r1)
	addis %r3, %r2, .LC27@toc@ha
	ld %r3, .LC27@toc@l(%r3)
	ld %r3, 0(%r3)
	addi %r3, %r3, 1
	addis %r4, %r2, .LC27@toc@ha
	ld %r4, .LC27@toc@l(%r4)
	std %r3, 0(%r4)
	ld %r3, -16(%r1)
	std %r3, -24(%r1)
.LBB13_1:                               # =>This Inner Loop Header: Depth=1
	ld %r3, -16(%r1)
	lbz %r3, 0(%r3)
	extsb %r3, %r3
	cmpwi	%r3, 0
	beq	%cr0, .LBB13_4
# %bb.2:                                #   in Loop: Header=BB13_1 Depth=1
	addis %r3, %r2, .LC27@toc@ha
	ld %r3, .LC27@toc@l(%r3)
	ld %r3, 8(%r3)
	addi %r3, %r3, 1
	addis %r4, %r2, .LC27@toc@ha
	ld %r4, .LC27@toc@l(%r4)
	std %r3, 8(%r4)
# %bb.3:                                #   in Loop: Header=BB13_1 Depth=1
	addis %r3, %r2, .LC26@toc@ha
	ld %r3, .LC26@toc@l(%r3)
	ld %r3, 8(%r3)
	addi %r3, %r3, 1
	addis %r4, %r2, .LC26@toc@ha
	ld %r4, .LC26@toc@l(%r4)
	std %r3, 8(%r4)
	ld %r3, -16(%r1)
	addi %r3, %r3, 1
	std %r3, -16(%r1)
	b .LBB13_1
.LBB13_4:
	ld %r4, -16(%r1)
	ld %r3, -24(%r1)
	sub	%r3, %r4, %r3
	blr
	.long	0
	.quad	0
.Lfunc_end13:
	.size	strlen, .Lfunc_end13-.Lfunc_begin13
	.cfi_endproc
                                        # -- End function
	.globl	strncmp                         # -- Begin function strncmp
	.p2align	2
	.type	strncmp,@function
	.section	.opd,"aw",@progbits
strncmp:                                # @strncmp
	.p2align	3, 0x0
	.quad	.Lfunc_begin14
	.quad	.TOC.@tocbase
	.quad	0
	.text
.Lfunc_begin14:
	.cfi_startproc
# %bb.0:
	std %r3, -24(%r1)
	std %r4, -32(%r1)
	std %r5, -40(%r1)
	addis %r3, %r2, .LC28@toc@ha
	ld %r3, .LC28@toc@l(%r3)
	ld %r3, 0(%r3)
	addi %r3, %r3, 1
	addis %r4, %r2, .LC28@toc@ha
	ld %r4, .LC28@toc@l(%r4)
	std %r3, 0(%r4)
	ld %r3, -24(%r1)
	std %r3, -48(%r1)
	ld %r3, -32(%r1)
	std %r3, -56(%r1)
	ld %r3, -40(%r1)
	addi %r4, %r3, -1
	std %r4, -40(%r1)
	cmpdi	%r3, 0
	bne	%cr0, .LBB14_2
# %bb.1:
	addis %r3, %r2, .LC29@toc@ha
	ld %r3, .LC29@toc@l(%r3)
	ld %r3, 8(%r3)
	addi %r3, %r3, 1
	addis %r4, %r2, .LC29@toc@ha
	ld %r4, .LC29@toc@l(%r4)
	std %r3, 8(%r4)
	addis %r3, %r2, .LC28@toc@ha
	ld %r3, .LC28@toc@l(%r3)
	ld %r3, 8(%r3)
	addi %r3, %r3, 1
	addis %r4, %r2, .LC28@toc@ha
	ld %r4, .LC28@toc@l(%r4)
	std %r3, 8(%r4)
	li %r3, 0
	stw %r3, -12(%r1)
	b .LBB14_14
.LBB14_2:
	addis %r3, %r2, .LC29@toc@ha
	ld %r3, .LC29@toc@l(%r3)
	ld %r3, 0(%r3)
	addi %r3, %r3, 1
	addis %r4, %r2, .LC29@toc@ha
	ld %r4, .LC29@toc@l(%r4)
	std %r3, 0(%r4)
.LBB14_3:                               # =>This Inner Loop Header: Depth=1
	ld %r3, -48(%r1)
	lbz %r4, 0(%r3)
	li %r3, 0
	cmpwi	%r4, 0
	stw %r3, -60(%r1)                       # 4-byte Folded Spill
	beq	%cr0, .LBB14_10
# %bb.4:                                #   in Loop: Header=BB14_3 Depth=1
	addis %r3, %r2, .LC29@toc@ha
	ld %r3, .LC29@toc@l(%r3)
	ld %r3, 16(%r3)
	addi %r3, %r3, 1
	addis %r4, %r2, .LC29@toc@ha
	ld %r4, .LC29@toc@l(%r4)
	std %r3, 16(%r4)
	addis %r3, %r2, .LC28@toc@ha
	ld %r3, .LC28@toc@l(%r3)
	ld %r3, 56(%r3)
	addi %r3, %r3, 1
	addis %r4, %r2, .LC28@toc@ha
	ld %r4, .LC28@toc@l(%r4)
	std %r3, 56(%r4)
	ld %r3, -56(%r1)
	lbz %r4, 0(%r3)
	li %r3, 0
	cmpwi	%r4, 0
	stw %r3, -60(%r1)                       # 4-byte Folded Spill
	beq	%cr0, .LBB14_10
# %bb.5:                                #   in Loop: Header=BB14_3 Depth=1
	addis %r3, %r2, .LC29@toc@ha
	ld %r3, .LC29@toc@l(%r3)
	ld %r3, 24(%r3)
	addi %r3, %r3, 1
	addis %r4, %r2, .LC29@toc@ha
	ld %r4, .LC29@toc@l(%r4)
	std %r3, 24(%r4)
	addis %r3, %r2, .LC28@toc@ha
	ld %r3, .LC28@toc@l(%r3)
	ld %r3, 64(%r3)
	addi %r3, %r3, 1
	addis %r4, %r2, .LC28@toc@ha
	ld %r4, .LC28@toc@l(%r4)
	std %r3, 64(%r4)
# %bb.6:                                #   in Loop: Header=BB14_3 Depth=1
	addis %r3, %r2, .LC28@toc@ha
	ld %r3, .LC28@toc@l(%r3)
	ld %r3, 40(%r3)
	addi %r3, %r3, 1
	addis %r4, %r2, .LC28@toc@ha
	ld %r4, .LC28@toc@l(%r4)
	std %r3, 40(%r4)
	ld %r4, -40(%r1)
	li %r3, 0
	cmpdi	%r4, 0
	stw %r3, -60(%r1)                       # 4-byte Folded Spill
	beq	%cr0, .LBB14_10
# %bb.7:                                #   in Loop: Header=BB14_3 Depth=1
	addis %r3, %r2, .LC29@toc@ha
	ld %r3, .LC29@toc@l(%r3)
	ld %r3, 32(%r3)
	addi %r3, %r3, 1
	addis %r4, %r2, .LC29@toc@ha
	ld %r4, .LC29@toc@l(%r4)
	std %r3, 32(%r4)
	addis %r3, %r2, .LC28@toc@ha
	ld %r3, .LC28@toc@l(%r3)
	ld %r3, 48(%r3)
	addi %r3, %r3, 1
	addis %r4, %r2, .LC28@toc@ha
	ld %r4, .LC28@toc@l(%r4)
	std %r3, 48(%r4)
# %bb.8:                                #   in Loop: Header=BB14_3 Depth=1
	addis %r3, %r2, .LC28@toc@ha
	ld %r4, .LC28@toc@l(%r3)
	ld %r3, 24(%r4)
	addi %r3, %r3, 1
	std %r3, 24(%r4)
	ld %r3, -48(%r1)
	lbz %r4, 0(%r3)
	ld %r3, -56(%r1)
	lbz %r5, 0(%r3)
	xor %r3, %r4, %r5
	cntlzw	%r3, %r3
	srwi %r3, %r3, 5
	stw %r3, -64(%r1)                       # 4-byte Folded Spill
	cmpw	%r4, %r5
	stw %r3, -60(%r1)                       # 4-byte Folded Spill
	bne	%cr0, .LBB14_10
# %bb.9:                                #   in Loop: Header=BB14_3 Depth=1
	lwz %r3, -64(%r1)                       # 4-byte Folded Reload
	addis %r4, %r2, .LC29@toc@ha
	ld %r4, .LC29@toc@l(%r4)
	ld %r4, 40(%r4)
	addi %r4, %r4, 1
	addis %r5, %r2, .LC29@toc@ha
	ld %r5, .LC29@toc@l(%r5)
	std %r4, 40(%r5)
	addis %r4, %r2, .LC28@toc@ha
	ld %r4, .LC28@toc@l(%r4)
	ld %r4, 32(%r4)
	addi %r4, %r4, 1
	addis %r5, %r2, .LC28@toc@ha
	ld %r5, .LC28@toc@l(%r5)
	std %r4, 32(%r5)
	stw %r3, -60(%r1)                       # 4-byte Folded Spill
.LBB14_10:                              #   in Loop: Header=BB14_3 Depth=1
	lwz %r3, -60(%r1)                       # 4-byte Folded Reload
	clrlwi	%r3, %r3, 31
	cmplwi	%r3, 0
	beq	%cr0, .LBB14_13
	b .LBB14_11
.LBB14_11:                              #   in Loop: Header=BB14_3 Depth=1
	addis %r3, %r2, .LC28@toc@ha
	ld %r3, .LC28@toc@l(%r3)
	ld %r3, 16(%r3)
	addi %r3, %r3, 1
	addis %r4, %r2, .LC28@toc@ha
	ld %r4, .LC28@toc@l(%r4)
	std %r3, 16(%r4)
# %bb.12:                               #   in Loop: Header=BB14_3 Depth=1
	addis %r3, %r2, .LC29@toc@ha
	ld %r3, .LC29@toc@l(%r3)
	ld %r3, 48(%r3)
	addi %r3, %r3, 1
	addis %r4, %r2, .LC29@toc@ha
	ld %r4, .LC29@toc@l(%r4)
	std %r3, 48(%r4)
	ld %r3, -48(%r1)
	addi %r3, %r3, 1
	std %r3, -48(%r1)
	ld %r3, -56(%r1)
	addi %r3, %r3, 1
	std %r3, -56(%r1)
	ld %r3, -40(%r1)
	addi %r3, %r3, -1
	std %r3, -40(%r1)
	b .LBB14_3
.LBB14_13:
	ld %r3, -48(%r1)
	lbz %r4, 0(%r3)
	ld %r3, -56(%r1)
	lbz %r3, 0(%r3)
	sub	%r3, %r4, %r3
	stw %r3, -12(%r1)
.LBB14_14:
	lwa %r3, -12(%r1)
	blr
	.long	0
	.quad	0
.Lfunc_end14:
	.size	strncmp, .Lfunc_end14-.Lfunc_begin14
	.cfi_endproc
                                        # -- End function
	.globl	swab                            # -- Begin function swab
	.p2align	2
	.type	swab,@function
	.section	.opd,"aw",@progbits
swab:                                   # @swab
	.p2align	3, 0x0
	.quad	.Lfunc_begin15
	.quad	.TOC.@tocbase
	.quad	0
	.text
.Lfunc_begin15:
	.cfi_startproc
# %bb.0:
	addis %r6, %r2, .LC30@toc@ha
	ld %r6, .LC30@toc@l(%r6)
	ld %r6, 0(%r6)
	addi %r6, %r6, 1
	addis %r7, %r2, .LC30@toc@ha
	ld %r7, .LC30@toc@l(%r7)
	std %r6, 0(%r7)
	std %r3, -16(%r1)
	std %r4, -24(%r1)
	std %r5, -32(%r1)
	addis %r3, %r2, .LC31@toc@ha
	ld %r3, .LC31@toc@l(%r3)
	ld %r3, 0(%r3)
	addi %r3, %r3, 1
	addis %r4, %r2, .LC31@toc@ha
	ld %r4, .LC31@toc@l(%r4)
	std %r3, 0(%r4)
	ld %r3, -16(%r1)
	std %r3, -40(%r1)
	ld %r3, -24(%r1)
	std %r3, -48(%r1)
.LBB15_1:                               # =>This Inner Loop Header: Depth=1
	ld %r3, -32(%r1)
	cmpdi	%r3, 1
	ble %cr0, .LBB15_4
# %bb.2:                                #   in Loop: Header=BB15_1 Depth=1
	addis %r3, %r2, .LC31@toc@ha
	ld %r3, .LC31@toc@l(%r3)
	ld %r3, 8(%r3)
	addi %r3, %r3, 1
	addis %r4, %r2, .LC31@toc@ha
	ld %r4, .LC31@toc@l(%r4)
	std %r3, 8(%r4)
	ld %r3, -40(%r1)
	lbz %r3, 1(%r3)
	ld %r4, -48(%r1)
	stb %r3, 0(%r4)
	ld %r3, -40(%r1)
	lbz %r3, 0(%r3)
	ld %r4, -48(%r1)
	stb %r3, 1(%r4)
	ld %r3, -48(%r1)
	addi %r3, %r3, 2
	std %r3, -48(%r1)
	ld %r3, -40(%r1)
	addi %r3, %r3, 2
	std %r3, -40(%r1)
# %bb.3:                                #   in Loop: Header=BB15_1 Depth=1
	addis %r3, %r2, .LC30@toc@ha
	ld %r4, .LC30@toc@l(%r3)
	ld %r3, 8(%r4)
	addi %r3, %r3, 1
	std %r3, 8(%r4)
	ld %r3, -32(%r1)
	addi %r3, %r3, -2
	std %r3, -32(%r1)
	b .LBB15_1
.LBB15_4:
	blr
	.long	0
	.quad	0
.Lfunc_end15:
	.size	swab, .Lfunc_end15-.Lfunc_begin15
	.cfi_endproc
                                        # -- End function
	.globl	isalpha                         # -- Begin function isalpha
	.p2align	2
	.type	isalpha,@function
	.section	.opd,"aw",@progbits
isalpha:                                # @isalpha
	.p2align	3, 0x0
	.quad	.Lfunc_begin16
	.quad	.TOC.@tocbase
	.quad	0
	.text
.Lfunc_begin16:
	.cfi_startproc
# %bb.0:
                                        # kill: def $r3 killed $r3 killed $x3
	addis %r4, %r2, .LC32@toc@ha
	ld %r5, .LC32@toc@l(%r4)
	ld %r4, 0(%r5)
	addi %r4, %r4, 1
	std %r4, 0(%r5)
	stw %r3, -12(%r1)
	addis %r3, %r2, .LC33@toc@ha
	ld %r4, .LC33@toc@l(%r3)
	ld %r3, 0(%r4)
	addi %r3, %r3, 1
	std %r3, 0(%r4)
	lwz %r3, -12(%r1)
	ori %r3, %r3, 32
	addi %r3, %r3, -97
	cmplwi	%r3, 26
	li %r3, 0
	stw %r3, -20(%r1)                       # 4-byte Folded Spill
	li %r3, 1
	stw %r3, -16(%r1)                       # 4-byte Folded Spill
	blt	%cr0, .LBB16_2
# %bb.1:
	lwz %r3, -20(%r1)                       # 4-byte Folded Reload
	stw %r3, -16(%r1)                       # 4-byte Folded Spill
.LBB16_2:
	lwz %r3, -16(%r1)                       # 4-byte Folded Reload
	extsw %r3, %r3
	blr
	.long	0
	.quad	0
.Lfunc_end16:
	.size	isalpha, .Lfunc_end16-.Lfunc_begin16
	.cfi_endproc
                                        # -- End function
	.globl	isascii                         # -- Begin function isascii
	.p2align	2
	.type	isascii,@function
	.section	.opd,"aw",@progbits
isascii:                                # @isascii
	.p2align	3, 0x0
	.quad	.Lfunc_begin17
	.quad	.TOC.@tocbase
	.quad	0
	.text
.Lfunc_begin17:
	.cfi_startproc
# %bb.0:
                                        # kill: def $r3 killed $r3 killed $x3
	addis %r4, %r2, .LC34@toc@ha
	ld %r5, .LC34@toc@l(%r4)
	ld %r4, 0(%r5)
	addi %r4, %r4, 1
	std %r4, 0(%r5)
	stw %r3, -12(%r1)
	addis %r3, %r2, .LC35@toc@ha
	ld %r4, .LC35@toc@l(%r3)
	ld %r3, 0(%r4)
	addi %r3, %r3, 1
	std %r3, 0(%r4)
	lwz %r3, -12(%r1)
	rlwinm %r3, %r3, 0, 0, 24
	cntlzw	%r3, %r3
	srwi %r3, %r3, 5
                                        # kill: def $r4 killed $r3
	extsw %r3, %r3
	blr
	.long	0
	.quad	0
.Lfunc_end17:
	.size	isascii, .Lfunc_end17-.Lfunc_begin17
	.cfi_endproc
                                        # -- End function
	.globl	isblank                         # -- Begin function isblank
	.p2align	2
	.type	isblank,@function
	.section	.opd,"aw",@progbits
isblank:                                # @isblank
	.p2align	3, 0x0
	.quad	.Lfunc_begin18
	.quad	.TOC.@tocbase
	.quad	0
	.text
.Lfunc_begin18:
	.cfi_startproc
# %bb.0:
                                        # kill: def $r3 killed $r3 killed $x3
	addis %r4, %r2, .LC36@toc@ha
	ld %r4, .LC36@toc@l(%r4)
	ld %r4, 0(%r4)
	addi %r4, %r4, 1
	addis %r5, %r2, .LC36@toc@ha
	ld %r5, .LC36@toc@l(%r5)
	std %r4, 0(%r5)
	stw %r3, -12(%r1)
	addis %r3, %r2, .LC37@toc@ha
	ld %r3, .LC37@toc@l(%r3)
	ld %r3, 0(%r3)
	addi %r3, %r3, 1
	addis %r4, %r2, .LC37@toc@ha
	ld %r4, .LC37@toc@l(%r4)
	std %r3, 0(%r4)
	lwz %r4, -12(%r1)
	li %r3, 1
	cmpwi	%r4, 32
	stw %r3, -16(%r1)                       # 4-byte Folded Spill
	beq	%cr0, .LBB18_3
# %bb.1:
	addis %r3, %r2, .LC36@toc@ha
	ld %r4, .LC36@toc@l(%r3)
	ld %r3, 8(%r4)
	addi %r3, %r3, 1
	std %r3, 8(%r4)
	addis %r3, %r2, .LC37@toc@ha
	ld %r4, .LC37@toc@l(%r3)
	ld %r3, 8(%r4)
	addi %r3, %r3, 1
	std %r3, 8(%r4)
	lwz %r4, -12(%r1)
	xori %r3, %r4, 9
	cntlzw	%r3, %r3
	srwi %r3, %r3, 5
	stw %r3, -20(%r1)                       # 4-byte Folded Spill
	cmpwi	%r4, 9
	stw %r3, -16(%r1)                       # 4-byte Folded Spill
	beq	%cr0, .LBB18_3
# %bb.2:
	lwz %r3, -20(%r1)                       # 4-byte Folded Reload
	addis %r4, %r2, .LC36@toc@ha
	ld %r4, .LC36@toc@l(%r4)
	ld %r4, 16(%r4)
	addi %r4, %r4, 1
	addis %r5, %r2, .LC36@toc@ha
	ld %r5, .LC36@toc@l(%r5)
	std %r4, 16(%r5)
	addis %r4, %r2, .LC37@toc@ha
	ld %r4, .LC37@toc@l(%r4)
	ld %r4, 16(%r4)
	addi %r4, %r4, 1
	addis %r5, %r2, .LC37@toc@ha
	ld %r5, .LC37@toc@l(%r5)
	std %r4, 16(%r5)
	stw %r3, -16(%r1)                       # 4-byte Folded Spill
.LBB18_3:
	lwz %r3, -16(%r1)                       # 4-byte Folded Reload
	clrlwi	%r3, %r3, 31
	extsw %r3, %r3
	blr
	.long	0
	.quad	0
.Lfunc_end18:
	.size	isblank, .Lfunc_end18-.Lfunc_begin18
	.cfi_endproc
                                        # -- End function
	.globl	iscntrl                         # -- Begin function iscntrl
	.p2align	2
	.type	iscntrl,@function
	.section	.opd,"aw",@progbits
iscntrl:                                # @iscntrl
	.p2align	3, 0x0
	.quad	.Lfunc_begin19
	.quad	.TOC.@tocbase
	.quad	0
	.text
.Lfunc_begin19:
	.cfi_startproc
# %bb.0:
                                        # kill: def $r3 killed $r3 killed $x3
	addis %r4, %r2, .LC38@toc@ha
	ld %r4, .LC38@toc@l(%r4)
	ld %r4, 0(%r4)
	addi %r4, %r4, 1
	addis %r5, %r2, .LC38@toc@ha
	ld %r5, .LC38@toc@l(%r5)
	std %r4, 0(%r5)
	stw %r3, -12(%r1)
	addis %r3, %r2, .LC39@toc@ha
	ld %r3, .LC39@toc@l(%r3)
	ld %r3, 0(%r3)
	addi %r3, %r3, 1
	addis %r4, %r2, .LC39@toc@ha
	ld %r4, .LC39@toc@l(%r4)
	std %r3, 0(%r4)
	lwz %r4, -12(%r1)
	li %r3, 1
	cmplwi	%r4, 32
	stw %r3, -16(%r1)                       # 4-byte Folded Spill
	blt	%cr0, .LBB19_3
# %bb.1:
	addis %r3, %r2, .LC38@toc@ha
	ld %r4, .LC38@toc@l(%r3)
	ld %r3, 8(%r4)
	addi %r3, %r3, 1
	std %r3, 8(%r4)
	addis %r3, %r2, .LC39@toc@ha
	ld %r4, .LC39@toc@l(%r3)
	ld %r3, 8(%r4)
	addi %r3, %r3, 1
	std %r3, 8(%r4)
	lwz %r4, -12(%r1)
	xori %r3, %r4, 127
	cntlzw	%r3, %r3
	srwi %r3, %r3, 5
	stw %r3, -20(%r1)                       # 4-byte Folded Spill
	cmpwi	%r4, 127
	stw %r3, -16(%r1)                       # 4-byte Folded Spill
	beq	%cr0, .LBB19_3
# %bb.2:
	lwz %r3, -20(%r1)                       # 4-byte Folded Reload
	addis %r4, %r2, .LC38@toc@ha
	ld %r4, .LC38@toc@l(%r4)
	ld %r4, 16(%r4)
	addi %r4, %r4, 1
	addis %r5, %r2, .LC38@toc@ha
	ld %r5, .LC38@toc@l(%r5)
	std %r4, 16(%r5)
	addis %r4, %r2, .LC39@toc@ha
	ld %r4, .LC39@toc@l(%r4)
	ld %r4, 16(%r4)
	addi %r4, %r4, 1
	addis %r5, %r2, .LC39@toc@ha
	ld %r5, .LC39@toc@l(%r5)
	std %r4, 16(%r5)
	stw %r3, -16(%r1)                       # 4-byte Folded Spill
.LBB19_3:
	lwz %r3, -16(%r1)                       # 4-byte Folded Reload
	clrlwi	%r3, %r3, 31
	extsw %r3, %r3
	blr
	.long	0
	.quad	0
.Lfunc_end19:
	.size	iscntrl, .Lfunc_end19-.Lfunc_begin19
	.cfi_endproc
                                        # -- End function
	.globl	isdigit                         # -- Begin function isdigit
	.p2align	2
	.type	isdigit,@function
	.section	.opd,"aw",@progbits
isdigit:                                # @isdigit
	.p2align	3, 0x0
	.quad	.Lfunc_begin20
	.quad	.TOC.@tocbase
	.quad	0
	.text
.Lfunc_begin20:
	.cfi_startproc
# %bb.0:
                                        # kill: def $r3 killed $r3 killed $x3
	addis %r4, %r2, .LC40@toc@ha
	ld %r5, .LC40@toc@l(%r4)
	ld %r4, 0(%r5)
	addi %r4, %r4, 1
	std %r4, 0(%r5)
	stw %r3, -12(%r1)
	addis %r3, %r2, .LC41@toc@ha
	ld %r4, .LC41@toc@l(%r3)
	ld %r3, 0(%r4)
	addi %r3, %r3, 1
	std %r3, 0(%r4)
	lwz %r3, -12(%r1)
	addi %r3, %r3, -48
	cmplwi	%r3, 10
	li %r3, 0
	stw %r3, -20(%r1)                       # 4-byte Folded Spill
	li %r3, 1
	stw %r3, -16(%r1)                       # 4-byte Folded Spill
	blt	%cr0, .LBB20_2
# %bb.1:
	lwz %r3, -20(%r1)                       # 4-byte Folded Reload
	stw %r3, -16(%r1)                       # 4-byte Folded Spill
.LBB20_2:
	lwz %r3, -16(%r1)                       # 4-byte Folded Reload
	extsw %r3, %r3
	blr
	.long	0
	.quad	0
.Lfunc_end20:
	.size	isdigit, .Lfunc_end20-.Lfunc_begin20
	.cfi_endproc
                                        # -- End function
	.globl	isgraph                         # -- Begin function isgraph
	.p2align	2
	.type	isgraph,@function
	.section	.opd,"aw",@progbits
isgraph:                                # @isgraph
	.p2align	3, 0x0
	.quad	.Lfunc_begin21
	.quad	.TOC.@tocbase
	.quad	0
	.text
.Lfunc_begin21:
	.cfi_startproc
# %bb.0:
                                        # kill: def $r3 killed $r3 killed $x3
	addis %r4, %r2, .LC42@toc@ha
	ld %r5, .LC42@toc@l(%r4)
	ld %r4, 0(%r5)
	addi %r4, %r4, 1
	std %r4, 0(%r5)
	stw %r3, -12(%r1)
	addis %r3, %r2, .LC43@toc@ha
	ld %r4, .LC43@toc@l(%r3)
	ld %r3, 0(%r4)
	addi %r3, %r3, 1
	std %r3, 0(%r4)
	lwz %r3, -12(%r1)
	addi %r3, %r3, -33
	cmplwi	%r3, 94
	li %r3, 0
	stw %r3, -20(%r1)                       # 4-byte Folded Spill
	li %r3, 1
	stw %r3, -16(%r1)                       # 4-byte Folded Spill
	blt	%cr0, .LBB21_2
# %bb.1:
	lwz %r3, -20(%r1)                       # 4-byte Folded Reload
	stw %r3, -16(%r1)                       # 4-byte Folded Spill
.LBB21_2:
	lwz %r3, -16(%r1)                       # 4-byte Folded Reload
	extsw %r3, %r3
	blr
	.long	0
	.quad	0
.Lfunc_end21:
	.size	isgraph, .Lfunc_end21-.Lfunc_begin21
	.cfi_endproc
                                        # -- End function
	.globl	islower                         # -- Begin function islower
	.p2align	2
	.type	islower,@function
	.section	.opd,"aw",@progbits
islower:                                # @islower
	.p2align	3, 0x0
	.quad	.Lfunc_begin22
	.quad	.TOC.@tocbase
	.quad	0
	.text
.Lfunc_begin22:
	.cfi_startproc
# %bb.0:
                                        # kill: def $r3 killed $r3 killed $x3
	addis %r4, %r2, .LC44@toc@ha
	ld %r5, .LC44@toc@l(%r4)
	ld %r4, 0(%r5)
	addi %r4, %r4, 1
	std %r4, 0(%r5)
	stw %r3, -12(%r1)
	addis %r3, %r2, .LC45@toc@ha
	ld %r4, .LC45@toc@l(%r3)
	ld %r3, 0(%r4)
	addi %r3, %r3, 1
	std %r3, 0(%r4)
	lwz %r3, -12(%r1)
	addi %r3, %r3, -97
	cmplwi	%r3, 26
	li %r3, 0
	stw %r3, -20(%r1)                       # 4-byte Folded Spill
	li %r3, 1
	stw %r3, -16(%r1)                       # 4-byte Folded Spill
	blt	%cr0, .LBB22_2
# %bb.1:
	lwz %r3, -20(%r1)                       # 4-byte Folded Reload
	stw %r3, -16(%r1)                       # 4-byte Folded Spill
.LBB22_2:
	lwz %r3, -16(%r1)                       # 4-byte Folded Reload
	extsw %r3, %r3
	blr
	.long	0
	.quad	0
.Lfunc_end22:
	.size	islower, .Lfunc_end22-.Lfunc_begin22
	.cfi_endproc
                                        # -- End function
	.globl	isprint                         # -- Begin function isprint
	.p2align	2
	.type	isprint,@function
	.section	.opd,"aw",@progbits
isprint:                                # @isprint
	.p2align	3, 0x0
	.quad	.Lfunc_begin23
	.quad	.TOC.@tocbase
	.quad	0
	.text
.Lfunc_begin23:
	.cfi_startproc
# %bb.0:
                                        # kill: def $r3 killed $r3 killed $x3
	addis %r4, %r2, .LC46@toc@ha
	ld %r5, .LC46@toc@l(%r4)
	ld %r4, 0(%r5)
	addi %r4, %r4, 1
	std %r4, 0(%r5)
	stw %r3, -12(%r1)
	addis %r3, %r2, .LC47@toc@ha
	ld %r4, .LC47@toc@l(%r3)
	ld %r3, 0(%r4)
	addi %r3, %r3, 1
	std %r3, 0(%r4)
	lwz %r3, -12(%r1)
	addi %r3, %r3, -32
	cmplwi	%r3, 95
	li %r3, 0
	stw %r3, -20(%r1)                       # 4-byte Folded Spill
	li %r3, 1
	stw %r3, -16(%r1)                       # 4-byte Folded Spill
	blt	%cr0, .LBB23_2
# %bb.1:
	lwz %r3, -20(%r1)                       # 4-byte Folded Reload
	stw %r3, -16(%r1)                       # 4-byte Folded Spill
.LBB23_2:
	lwz %r3, -16(%r1)                       # 4-byte Folded Reload
	extsw %r3, %r3
	blr
	.long	0
	.quad	0
.Lfunc_end23:
	.size	isprint, .Lfunc_end23-.Lfunc_begin23
	.cfi_endproc
                                        # -- End function
	.globl	isspace                         # -- Begin function isspace
	.p2align	2
	.type	isspace,@function
	.section	.opd,"aw",@progbits
isspace:                                # @isspace
	.p2align	3, 0x0
	.quad	.Lfunc_begin24
	.quad	.TOC.@tocbase
	.quad	0
	.text
.Lfunc_begin24:
	.cfi_startproc
# %bb.0:
                                        # kill: def $r3 killed $r3 killed $x3
	addis %r4, %r2, .LC48@toc@ha
	ld %r4, .LC48@toc@l(%r4)
	ld %r4, 0(%r4)
	addi %r4, %r4, 1
	addis %r5, %r2, .LC48@toc@ha
	ld %r5, .LC48@toc@l(%r5)
	std %r4, 0(%r5)
	stw %r3, -12(%r1)
	addis %r3, %r2, .LC49@toc@ha
	ld %r3, .LC49@toc@l(%r3)
	ld %r3, 0(%r3)
	addi %r3, %r3, 1
	addis %r4, %r2, .LC49@toc@ha
	ld %r4, .LC49@toc@l(%r4)
	std %r3, 0(%r4)
	lwz %r4, -12(%r1)
	li %r3, 1
	cmpwi	%r4, 32
	stw %r3, -16(%r1)                       # 4-byte Folded Spill
	beq	%cr0, .LBB24_5
# %bb.1:
	addis %r3, %r2, .LC48@toc@ha
	ld %r4, .LC48@toc@l(%r3)
	ld %r3, 8(%r4)
	addi %r3, %r3, 1
	std %r3, 8(%r4)
	addis %r3, %r2, .LC49@toc@ha
	ld %r4, .LC49@toc@l(%r3)
	ld %r3, 8(%r4)
	addi %r3, %r3, 1
	std %r3, 8(%r4)
	lwz %r3, -12(%r1)
	addi %r3, %r3, -9
	stw %r3, -28(%r1)                       # 4-byte Folded Spill
	cmplwi	%r3, 5
	li %r3, 0
	stw %r3, -24(%r1)                       # 4-byte Folded Spill
	li %r3, 1
	stw %r3, -20(%r1)                       # 4-byte Folded Spill
	blt	%cr0, .LBB24_3
# %bb.2:
	lwz %r3, -24(%r1)                       # 4-byte Folded Reload
	stw %r3, -20(%r1)                       # 4-byte Folded Spill
.LBB24_3:
	lwz %r4, -28(%r1)                       # 4-byte Folded Reload
	lwz %r3, -20(%r1)                       # 4-byte Folded Reload
	stw %r3, -32(%r1)                       # 4-byte Folded Spill
	cmplwi	%r4, 5
	stw %r3, -16(%r1)                       # 4-byte Folded Spill
	blt	%cr0, .LBB24_5
# %bb.4:
	lwz %r3, -32(%r1)                       # 4-byte Folded Reload
	addis %r4, %r2, .LC48@toc@ha
	ld %r4, .LC48@toc@l(%r4)
	ld %r4, 16(%r4)
	addi %r4, %r4, 1
	addis %r5, %r2, .LC48@toc@ha
	ld %r5, .LC48@toc@l(%r5)
	std %r4, 16(%r5)
	addis %r4, %r2, .LC49@toc@ha
	ld %r4, .LC49@toc@l(%r4)
	ld %r4, 16(%r4)
	addi %r4, %r4, 1
	addis %r5, %r2, .LC49@toc@ha
	ld %r5, .LC49@toc@l(%r5)
	std %r4, 16(%r5)
	stw %r3, -16(%r1)                       # 4-byte Folded Spill
.LBB24_5:
	lwz %r3, -16(%r1)                       # 4-byte Folded Reload
	clrlwi	%r3, %r3, 31
	extsw %r3, %r3
	blr
	.long	0
	.quad	0
.Lfunc_end24:
	.size	isspace, .Lfunc_end24-.Lfunc_begin24
	.cfi_endproc
                                        # -- End function
	.globl	isupper                         # -- Begin function isupper
	.p2align	2
	.type	isupper,@function
	.section	.opd,"aw",@progbits
isupper:                                # @isupper
	.p2align	3, 0x0
	.quad	.Lfunc_begin25
	.quad	.TOC.@tocbase
	.quad	0
	.text
.Lfunc_begin25:
	.cfi_startproc
# %bb.0:
                                        # kill: def $r3 killed $r3 killed $x3
	addis %r4, %r2, .LC50@toc@ha
	ld %r5, .LC50@toc@l(%r4)
	ld %r4, 0(%r5)
	addi %r4, %r4, 1
	std %r4, 0(%r5)
	stw %r3, -12(%r1)
	addis %r3, %r2, .LC51@toc@ha
	ld %r4, .LC51@toc@l(%r3)
	ld %r3, 0(%r4)
	addi %r3, %r3, 1
	std %r3, 0(%r4)
	lwz %r3, -12(%r1)
	addi %r3, %r3, -65
	cmplwi	%r3, 26
	li %r3, 0
	stw %r3, -20(%r1)                       # 4-byte Folded Spill
	li %r3, 1
	stw %r3, -16(%r1)                       # 4-byte Folded Spill
	blt	%cr0, .LBB25_2
# %bb.1:
	lwz %r3, -20(%r1)                       # 4-byte Folded Reload
	stw %r3, -16(%r1)                       # 4-byte Folded Spill
.LBB25_2:
	lwz %r3, -16(%r1)                       # 4-byte Folded Reload
	extsw %r3, %r3
	blr
	.long	0
	.quad	0
.Lfunc_end25:
	.size	isupper, .Lfunc_end25-.Lfunc_begin25
	.cfi_endproc
                                        # -- End function
	.globl	iswcntrl                        # -- Begin function iswcntrl
	.p2align	2
	.type	iswcntrl,@function
	.section	.opd,"aw",@progbits
iswcntrl:                               # @iswcntrl
	.p2align	3, 0x0
	.quad	.Lfunc_begin26
	.quad	.TOC.@tocbase
	.quad	0
	.text
.Lfunc_begin26:
	.cfi_startproc
# %bb.0:
                                        # kill: def $r3 killed $r3 killed $x3
	addis %r4, %r2, .LC52@toc@ha
	ld %r4, .LC52@toc@l(%r4)
	ld %r4, 0(%r4)
	addi %r4, %r4, 1
	addis %r5, %r2, .LC52@toc@ha
	ld %r5, .LC52@toc@l(%r5)
	std %r4, 0(%r5)
	stw %r3, -12(%r1)
	addis %r3, %r2, .LC53@toc@ha
	ld %r3, .LC53@toc@l(%r3)
	ld %r3, 0(%r3)
	addi %r3, %r3, 1
	addis %r4, %r2, .LC53@toc@ha
	ld %r4, .LC53@toc@l(%r4)
	std %r3, 0(%r4)
	lwz %r4, -12(%r1)
	li %r3, 1
	cmplwi	%r4, 32
	stw %r3, -16(%r1)                       # 4-byte Folded Spill
	blt	%cr0, .LBB26_9
# %bb.1:
	addis %r3, %r2, .LC52@toc@ha
	ld %r4, .LC52@toc@l(%r3)
	ld %r3, 8(%r4)
	addi %r3, %r3, 1
	std %r3, 8(%r4)
	addis %r3, %r2, .LC53@toc@ha
	ld %r4, .LC53@toc@l(%r3)
	ld %r3, 40(%r4)
	addi %r3, %r3, 1
	std %r3, 40(%r4)
	lwz %r3, -12(%r1)
	addi %r4, %r3, -127
	li %r3, 1
	cmplwi	%r4, 33
	stw %r3, -16(%r1)                       # 4-byte Folded Spill
	blt	%cr0, .LBB26_9
# %bb.2:
	addis %r3, %r2, .LC52@toc@ha
	ld %r3, .LC52@toc@l(%r3)
	ld %r3, 16(%r3)
	addi %r3, %r3, 1
	addis %r4, %r2, .LC52@toc@ha
	ld %r4, .LC52@toc@l(%r4)
	std %r3, 16(%r4)
	addis %r3, %r2, .LC53@toc@ha
	ld %r3, .LC53@toc@l(%r3)
	ld %r3, 48(%r3)
	addi %r3, %r3, 1
	addis %r4, %r2, .LC53@toc@ha
	ld %r4, .LC53@toc@l(%r4)
	std %r3, 48(%r4)
# %bb.3:
	addis %r3, %r2, .LC53@toc@ha
	ld %r4, .LC53@toc@l(%r3)
	ld %r3, 24(%r4)
	addi %r3, %r3, 1
	std %r3, 24(%r4)
	lwz %r3, -12(%r1)
	addi %r4, %r3, -8232
	li %r3, 1
	cmplwi	%r4, 2
	stw %r3, -16(%r1)                       # 4-byte Folded Spill
	blt	%cr0, .LBB26_9
# %bb.4:
	addis %r3, %r2, .LC52@toc@ha
	ld %r3, .LC52@toc@l(%r3)
	ld %r3, 24(%r3)
	addi %r3, %r3, 1
	addis %r4, %r2, .LC52@toc@ha
	ld %r4, .LC52@toc@l(%r4)
	std %r3, 24(%r4)
	addis %r3, %r2, .LC53@toc@ha
	ld %r3, .LC53@toc@l(%r3)
	ld %r3, 32(%r3)
	addi %r3, %r3, 1
	addis %r4, %r2, .LC53@toc@ha
	ld %r4, .LC53@toc@l(%r4)
	std %r3, 32(%r4)
# %bb.5:
	addis %r3, %r2, .LC53@toc@ha
	ld %r4, .LC53@toc@l(%r3)
	ld %r3, 8(%r4)
	addi %r3, %r3, 1
	std %r3, 8(%r4)
	lwz %r3, -12(%r1)
	addi %r3, %r3, 7
	addis %r3, %r3, -1
	stw %r3, -28(%r1)                       # 4-byte Folded Spill
	cmplwi	%r3, 3
	li %r3, 0
	stw %r3, -24(%r1)                       # 4-byte Folded Spill
	li %r3, 1
	stw %r3, -20(%r1)                       # 4-byte Folded Spill
	blt	%cr0, .LBB26_7
# %bb.6:
	lwz %r3, -24(%r1)                       # 4-byte Folded Reload
	stw %r3, -20(%r1)                       # 4-byte Folded Spill
.LBB26_7:
	lwz %r4, -28(%r1)                       # 4-byte Folded Reload
	lwz %r3, -20(%r1)                       # 4-byte Folded Reload
	stw %r3, -32(%r1)                       # 4-byte Folded Spill
	cmplwi	%r4, 3
	stw %r3, -16(%r1)                       # 4-byte Folded Spill
	blt	%cr0, .LBB26_9
# %bb.8:
	lwz %r3, -32(%r1)                       # 4-byte Folded Reload
	addis %r4, %r2, .LC52@toc@ha
	ld %r4, .LC52@toc@l(%r4)
	ld %r4, 32(%r4)
	addi %r4, %r4, 1
	addis %r5, %r2, .LC52@toc@ha
	ld %r5, .LC52@toc@l(%r5)
	std %r4, 32(%r5)
	addis %r4, %r2, .LC53@toc@ha
	ld %r4, .LC53@toc@l(%r4)
	ld %r4, 16(%r4)
	addi %r4, %r4, 1
	addis %r5, %r2, .LC53@toc@ha
	ld %r5, .LC53@toc@l(%r5)
	std %r4, 16(%r5)
	stw %r3, -16(%r1)                       # 4-byte Folded Spill
.LBB26_9:
	lwz %r3, -16(%r1)                       # 4-byte Folded Reload
	clrlwi	%r3, %r3, 31
	extsw %r3, %r3
	blr
	.long	0
	.quad	0
.Lfunc_end26:
	.size	iswcntrl, .Lfunc_end26-.Lfunc_begin26
	.cfi_endproc
                                        # -- End function
	.globl	iswdigit                        # -- Begin function iswdigit
	.p2align	2
	.type	iswdigit,@function
	.section	.opd,"aw",@progbits
iswdigit:                               # @iswdigit
	.p2align	3, 0x0
	.quad	.Lfunc_begin27
	.quad	.TOC.@tocbase
	.quad	0
	.text
.Lfunc_begin27:
	.cfi_startproc
# %bb.0:
                                        # kill: def $r3 killed $r3 killed $x3
	addis %r4, %r2, .LC54@toc@ha
	ld %r5, .LC54@toc@l(%r4)
	ld %r4, 0(%r5)
	addi %r4, %r4, 1
	std %r4, 0(%r5)
	stw %r3, -12(%r1)
	addis %r3, %r2, .LC55@toc@ha
	ld %r4, .LC55@toc@l(%r3)
	ld %r3, 0(%r4)
	addi %r3, %r3, 1
	std %r3, 0(%r4)
	lwz %r3, -12(%r1)
	addi %r3, %r3, -48
	cmplwi	%r3, 10
	li %r3, 0
	stw %r3, -20(%r1)                       # 4-byte Folded Spill
	li %r3, 1
	stw %r3, -16(%r1)                       # 4-byte Folded Spill
	blt	%cr0, .LBB27_2
# %bb.1:
	lwz %r3, -20(%r1)                       # 4-byte Folded Reload
	stw %r3, -16(%r1)                       # 4-byte Folded Spill
.LBB27_2:
	lwz %r3, -16(%r1)                       # 4-byte Folded Reload
	extsw %r3, %r3
	blr
	.long	0
	.quad	0
.Lfunc_end27:
	.size	iswdigit, .Lfunc_end27-.Lfunc_begin27
	.cfi_endproc
                                        # -- End function
	.globl	iswprint                        # -- Begin function iswprint
	.p2align	2
	.type	iswprint,@function
	.section	.opd,"aw",@progbits
iswprint:                               # @iswprint
	.p2align	3, 0x0
	.quad	.Lfunc_begin28
	.quad	.TOC.@tocbase
	.quad	0
	.text
.Lfunc_begin28:
	.cfi_startproc
# %bb.0:
                                        # kill: def $r3 killed $r3 killed $x3
	stw %r3, -16(%r1)
	addis %r3, %r2, .LC56@toc@ha
	ld %r3, .LC56@toc@l(%r3)
	ld %r3, 0(%r3)
	addi %r3, %r3, 1
	addis %r4, %r2, .LC56@toc@ha
	ld %r4, .LC56@toc@l(%r4)
	std %r3, 0(%r4)
	lwz %r3, -16(%r1)
	cmplwi	%r3, 255
	bge %cr0, .LBB28_4
# %bb.1:
	addis %r3, %r2, .LC57@toc@ha
	ld %r4, .LC57@toc@l(%r3)
	ld %r3, 0(%r4)
	addi %r3, %r3, 1
	std %r3, 0(%r4)
	addis %r3, %r2, .LC56@toc@ha
	ld %r4, .LC56@toc@l(%r3)
	ld %r3, 8(%r4)
	addi %r3, %r3, 1
	std %r3, 8(%r4)
	lwz %r3, -16(%r1)
	addi %r3, %r3, 1
	clrlwi	%r3, %r3, 25
	cmpwi	%r3, 32
	li %r3, 0
	stw %r3, -24(%r1)                       # 4-byte Folded Spill
	li %r3, 1
	stw %r3, -20(%r1)                       # 4-byte Folded Spill
	bgt	%cr0, .LBB28_3
# %bb.2:
	lwz %r3, -24(%r1)                       # 4-byte Folded Reload
	stw %r3, -20(%r1)                       # 4-byte Folded Spill
.LBB28_3:
	lwz %r3, -20(%r1)                       # 4-byte Folded Reload
	stw %r3, -12(%r1)
	b .LBB28_15
.LBB28_4:
	lwz %r3, -16(%r1)
	cmplwi	%r3, 8232
	blt	%cr0, .LBB28_9
# %bb.5:
	addis %r3, %r2, .LC57@toc@ha
	ld %r4, .LC57@toc@l(%r3)
	ld %r3, 8(%r4)
	addi %r3, %r3, 1
	std %r3, 8(%r4)
	addis %r3, %r2, .LC56@toc@ha
	ld %r4, .LC56@toc@l(%r3)
	ld %r3, 40(%r4)
	addi %r3, %r3, 1
	std %r3, 40(%r4)
	lwz %r3, -16(%r1)
	addi %r3, %r3, -8234
	cmplwi	%r3, 47062
	blt	%cr0, .LBB28_9
# %bb.6:
	addis %r3, %r2, .LC57@toc@ha
	ld %r3, .LC57@toc@l(%r3)
	ld %r3, 16(%r3)
	addi %r3, %r3, 1
	addis %r4, %r2, .LC57@toc@ha
	ld %r4, .LC57@toc@l(%r4)
	std %r3, 16(%r4)
	addis %r3, %r2, .LC56@toc@ha
	ld %r3, .LC56@toc@l(%r3)
	ld %r3, 48(%r3)
	addi %r3, %r3, 1
	addis %r4, %r2, .LC56@toc@ha
	ld %r4, .LC56@toc@l(%r4)
	std %r3, 48(%r4)
# %bb.7:
	addis %r3, %r2, .LC56@toc@ha
	ld %r4, .LC56@toc@l(%r3)
	ld %r3, 24(%r4)
	addi %r3, %r3, 1
	std %r3, 24(%r4)
	lwz %r3, -16(%r1)
	addi %r3, %r3, 8192
	addis %r3, %r3, -1
	cmplwi	%r3, 8185
	blt	%cr0, .LBB28_9
# %bb.8:
	addis %r3, %r2, .LC56@toc@ha
	ld %r3, .LC56@toc@l(%r3)
	ld %r3, 32(%r3)
	addi %r3, %r3, 1
	addis %r4, %r2, .LC56@toc@ha
	ld %r4, .LC56@toc@l(%r4)
	std %r3, 32(%r4)
	b .LBB28_10
.LBB28_9:
	addis %r3, %r2, .LC57@toc@ha
	ld %r3, .LC57@toc@l(%r3)
	ld %r3, 24(%r3)
	addi %r3, %r3, 1
	addis %r4, %r2, .LC57@toc@ha
	ld %r4, .LC57@toc@l(%r4)
	std %r3, 24(%r4)
	addis %r3, %r2, .LC56@toc@ha
	ld %r3, .LC56@toc@l(%r3)
	ld %r3, 16(%r3)
	addi %r3, %r3, 1
	addis %r4, %r2, .LC56@toc@ha
	ld %r4, .LC56@toc@l(%r4)
	std %r3, 16(%r4)
	li %r3, 1
	stw %r3, -12(%r1)
	b .LBB28_15
.LBB28_10:
	lwz %r3, -16(%r1)
	addi %r3, %r3, 4
	addis %r3, %r3, -1
	lis %r4, 16
	ori %r4, %r4, 3
	cmplw	%r3, %r4
	bgt	%cr0, .LBB28_13
# %bb.11:
	addis %r3, %r2, .LC57@toc@ha
	ld %r3, .LC57@toc@l(%r3)
	ld %r3, 32(%r3)
	addi %r3, %r3, 1
	addis %r4, %r2, .LC57@toc@ha
	ld %r4, .LC57@toc@l(%r4)
	std %r3, 32(%r4)
	addis %r3, %r2, .LC56@toc@ha
	ld %r3, .LC56@toc@l(%r3)
	ld %r3, 64(%r3)
	addi %r3, %r3, 1
	addis %r4, %r2, .LC56@toc@ha
	ld %r4, .LC56@toc@l(%r4)
	std %r3, 64(%r4)
	lwz %r3, -16(%r1)
	lis %r4, 0
	ori %r4, %r4, 65534
	and %r3, %r3, %r4
	lis %r4, 0
	ori %r4, %r4, 65534
	cmpw	%r3, %r4
	beq	%cr0, .LBB28_13
# %bb.12:
	addis %r3, %r2, .LC56@toc@ha
	ld %r3, .LC56@toc@l(%r3)
	ld %r3, 72(%r3)
	addi %r3, %r3, 1
	addis %r4, %r2, .LC56@toc@ha
	ld %r4, .LC56@toc@l(%r4)
	std %r3, 72(%r4)
	b .LBB28_14
.LBB28_13:
	addis %r3, %r2, .LC57@toc@ha
	ld %r3, .LC57@toc@l(%r3)
	ld %r3, 40(%r3)
	addi %r3, %r3, 1
	addis %r4, %r2, .LC57@toc@ha
	ld %r4, .LC57@toc@l(%r4)
	std %r3, 40(%r4)
	addis %r3, %r2, .LC56@toc@ha
	ld %r3, .LC56@toc@l(%r3)
	ld %r3, 56(%r3)
	addi %r3, %r3, 1
	addis %r4, %r2, .LC56@toc@ha
	ld %r4, .LC56@toc@l(%r4)
	std %r3, 56(%r4)
	li %r3, 0
	stw %r3, -12(%r1)
	b .LBB28_15
.LBB28_14:
	addis %r3, %r2, .LC57@toc@ha
	ld %r3, .LC57@toc@l(%r3)
	ld %r3, 48(%r3)
	addi %r3, %r3, 1
	addis %r4, %r2, .LC57@toc@ha
	ld %r4, .LC57@toc@l(%r4)
	std %r3, 48(%r4)
	li %r3, 1
	stw %r3, -12(%r1)
.LBB28_15:
	lwa %r3, -12(%r1)
	blr
	.long	0
	.quad	0
.Lfunc_end28:
	.size	iswprint, .Lfunc_end28-.Lfunc_begin28
	.cfi_endproc
                                        # -- End function
	.globl	iswxdigit                       # -- Begin function iswxdigit
	.p2align	2
	.type	iswxdigit,@function
	.section	.opd,"aw",@progbits
iswxdigit:                              # @iswxdigit
	.p2align	3, 0x0
	.quad	.Lfunc_begin29
	.quad	.TOC.@tocbase
	.quad	0
	.text
.Lfunc_begin29:
	.cfi_startproc
# %bb.0:
                                        # kill: def $r3 killed $r3 killed $x3
	addis %r4, %r2, .LC58@toc@ha
	ld %r5, .LC58@toc@l(%r4)
	ld %r4, 0(%r5)
	addi %r4, %r4, 1
	std %r4, 0(%r5)
	stw %r3, -12(%r1)
	addis %r3, %r2, .LC59@toc@ha
	ld %r4, .LC59@toc@l(%r3)
	ld %r3, 0(%r4)
	addi %r3, %r3, 1
	std %r3, 0(%r4)
	lwz %r3, -12(%r1)
	addi %r4, %r3, -48
	li %r3, 1
	cmplwi	%r4, 10
	stw %r3, -16(%r1)                       # 4-byte Folded Spill
	blt	%cr0, .LBB29_5
# %bb.1:
	addis %r3, %r2, .LC58@toc@ha
	ld %r4, .LC58@toc@l(%r3)
	ld %r3, 8(%r4)
	addi %r3, %r3, 1
	std %r3, 8(%r4)
	addis %r3, %r2, .LC59@toc@ha
	ld %r4, .LC59@toc@l(%r3)
	ld %r3, 8(%r4)
	addi %r3, %r3, 1
	std %r3, 8(%r4)
	lwz %r3, -12(%r1)
	ori %r3, %r3, 32
	addi %r3, %r3, -97
	stw %r3, -28(%r1)                       # 4-byte Folded Spill
	cmplwi	%r3, 6
	li %r3, 0
	stw %r3, -24(%r1)                       # 4-byte Folded Spill
	li %r3, 1
	stw %r3, -20(%r1)                       # 4-byte Folded Spill
	blt	%cr0, .LBB29_3
# %bb.2:
	lwz %r3, -24(%r1)                       # 4-byte Folded Reload
	stw %r3, -20(%r1)                       # 4-byte Folded Spill
.LBB29_3:
	lwz %r4, -28(%r1)                       # 4-byte Folded Reload
	lwz %r3, -20(%r1)                       # 4-byte Folded Reload
	stw %r3, -32(%r1)                       # 4-byte Folded Spill
	cmplwi	%r4, 6
	stw %r3, -16(%r1)                       # 4-byte Folded Spill
	blt	%cr0, .LBB29_5
# %bb.4:
	lwz %r3, -32(%r1)                       # 4-byte Folded Reload
	addis %r4, %r2, .LC58@toc@ha
	ld %r4, .LC58@toc@l(%r4)
	ld %r4, 16(%r4)
	addi %r4, %r4, 1
	addis %r5, %r2, .LC58@toc@ha
	ld %r5, .LC58@toc@l(%r5)
	std %r4, 16(%r5)
	addis %r4, %r2, .LC59@toc@ha
	ld %r4, .LC59@toc@l(%r4)
	ld %r4, 16(%r4)
	addi %r4, %r4, 1
	addis %r5, %r2, .LC59@toc@ha
	ld %r5, .LC59@toc@l(%r5)
	std %r4, 16(%r5)
	stw %r3, -16(%r1)                       # 4-byte Folded Spill
.LBB29_5:
	lwz %r3, -16(%r1)                       # 4-byte Folded Reload
	clrlwi	%r3, %r3, 31
	extsw %r3, %r3
	blr
	.long	0
	.quad	0
.Lfunc_end29:
	.size	iswxdigit, .Lfunc_end29-.Lfunc_begin29
	.cfi_endproc
                                        # -- End function
	.globl	toascii                         # -- Begin function toascii
	.p2align	2
	.type	toascii,@function
	.section	.opd,"aw",@progbits
toascii:                                # @toascii
	.p2align	3, 0x0
	.quad	.Lfunc_begin30
	.quad	.TOC.@tocbase
	.quad	0
	.text
.Lfunc_begin30:
	.cfi_startproc
# %bb.0:
                                        # kill: def $r3 killed $r3 killed $x3
	addis %r4, %r2, .LC60@toc@ha
	ld %r4, .LC60@toc@l(%r4)
	ld %r4, 0(%r4)
	addi %r4, %r4, 1
	addis %r5, %r2, .LC60@toc@ha
	ld %r5, .LC60@toc@l(%r5)
	std %r4, 0(%r5)
	stw %r3, -12(%r1)
	addis %r3, %r2, .LC61@toc@ha
	ld %r3, .LC61@toc@l(%r3)
	ld %r3, 0(%r3)
	addi %r3, %r3, 1
	addis %r4, %r2, .LC61@toc@ha
	ld %r4, .LC61@toc@l(%r4)
	std %r3, 0(%r4)
	lwz %r3, -12(%r1)
	li %r4, 127
	and %r3, %r3, %r4
	extsw %r3, %r3
	blr
	.long	0
	.quad	0
.Lfunc_end30:
	.size	toascii, .Lfunc_end30-.Lfunc_begin30
	.cfi_endproc
                                        # -- End function
	.globl	fdim                            # -- Begin function fdim
	.p2align	2
	.type	fdim,@function
	.section	.opd,"aw",@progbits
fdim:                                   # @fdim
	.p2align	3, 0x0
	.quad	.Lfunc_begin31
	.quad	.TOC.@tocbase
	.quad	0
	.text
.Lfunc_begin31:
	.cfi_startproc
# %bb.0:
	mflr %r0
	std %r31, -8(%r1)
	stdu %r1, -160(%r1)
	std %r0, 176(%r1)
	.cfi_def_cfa_offset 160
	.cfi_offset r31, -8
	.cfi_offset lr, 16
	mr	%r31, %r1
	.cfi_def_cfa_register r31
	std %r3, 136(%r31)
	std %r4, 128(%r31)
	addis %r3, %r2, .LC62@toc@ha
	ld %r4, .LC62@toc@l(%r3)
	ld %r3, 0(%r4)
	addi %r3, %r3, 1
	std %r3, 0(%r4)
	ld %r3, 136(%r31)
	clrldi	%r3, %r3, 1
	li %r4, 6143
	rotldi	%r4, %r4, 52
	cmpd	%r3, %r4
	blt	%cr0, .LBB31_2
	b .LBB31_1
.LBB31_1:
	addis %r3, %r2, .LC63@toc@ha
	ld %r4, .LC63@toc@l(%r3)
	ld %r3, 0(%r4)
	addi %r3, %r3, 1
	std %r3, 0(%r4)
	addis %r3, %r2, .LC62@toc@ha
	ld %r4, .LC62@toc@l(%r3)
	ld %r3, 8(%r4)
	addi %r3, %r3, 1
	std %r3, 8(%r4)
	ld %r3, 136(%r31)
	std %r3, 144(%r31)
	b .LBB31_8
.LBB31_2:
	ld %r3, 128(%r31)
	clrldi	%r3, %r3, 1
	li %r4, 6143
	rotldi	%r4, %r4, 52
	cmpd	%r3, %r4
	blt	%cr0, .LBB31_4
	b .LBB31_3
.LBB31_3:
	addis %r3, %r2, .LC63@toc@ha
	ld %r4, .LC63@toc@l(%r3)
	ld %r3, 8(%r4)
	addi %r3, %r3, 1
	std %r3, 8(%r4)
	addis %r3, %r2, .LC62@toc@ha
	ld %r4, .LC62@toc@l(%r3)
	ld %r3, 16(%r4)
	addi %r3, %r3, 1
	std %r3, 16(%r4)
	ld %r3, 128(%r31)
	std %r3, 144(%r31)
	b .LBB31_8
.LBB31_4:
	ld %r3, 136(%r31)
	ld %r4, 128(%r31)
	bl __gtdf2
	nop
                                        # kill: def $r3 killed $r3 killed $x3
	cmpwi	%r3, 1
	blt	%cr0, .LBB31_6
	b .LBB31_5
.LBB31_5:
	addis %r3, %r2, .LC63@toc@ha
	ld %r4, .LC63@toc@l(%r3)
	ld %r3, 16(%r4)
	addi %r3, %r3, 1
	std %r3, 16(%r4)
	addis %r3, %r2, .LC62@toc@ha
	ld %r4, .LC62@toc@l(%r3)
	ld %r3, 24(%r4)
	addi %r3, %r3, 1
	std %r3, 24(%r4)
	ld %r3, 136(%r31)
	ld %r4, 128(%r31)
	bl __subdf3
	nop
	std %r3, 120(%r31)                      # 8-byte Folded Spill
	b .LBB31_7
.LBB31_6:
	addis %r3, %r2, .LC63@toc@ha
	ld %r4, .LC63@toc@l(%r3)
	ld %r3, 24(%r4)
	addi %r3, %r3, 1
	std %r3, 24(%r4)
	li %r3, 0
	std %r3, 120(%r31)                      # 8-byte Folded Spill
	b .LBB31_7
.LBB31_7:
	ld %r3, 120(%r31)                       # 8-byte Folded Reload
	std %r3, 144(%r31)
.LBB31_8:
	ld %r3, 144(%r31)
	addi %r1, %r1, 160
	ld %r0, 16(%r1)
	ld %r31, -8(%r1)
	mtlr %r0
	blr
	.long	0
	.quad	0
.Lfunc_end31:
	.size	fdim, .Lfunc_end31-.Lfunc_begin31
	.cfi_endproc
                                        # -- End function
	.globl	fdimf                           # -- Begin function fdimf
	.p2align	2
	.type	fdimf,@function
	.section	.opd,"aw",@progbits
fdimf:                                  # @fdimf
	.p2align	3, 0x0
	.quad	.Lfunc_begin32
	.quad	.TOC.@tocbase
	.quad	0
	.text
.Lfunc_begin32:
	.cfi_startproc
# %bb.0:
	mflr %r0
	std %r31, -8(%r1)
	stdu %r1, -160(%r1)
	std %r0, 176(%r1)
	.cfi_def_cfa_offset 160
	.cfi_offset r31, -8
	.cfi_offset lr, 16
	mr	%r31, %r1
	.cfi_def_cfa_register r31
	std %r4, 128(%r31)                      # 8-byte Folded Spill
	mr	%r4, %r3
	ld %r3, 128(%r31)                       # 8-byte Folded Reload
                                        # kill: def $r3 killed $r3 killed $x3
                                        # kill: def $r4 killed $r4 killed $x4
	stw %r4, 144(%r31)
	stw %r3, 140(%r31)
	addis %r3, %r2, .LC64@toc@ha
	ld %r4, .LC64@toc@l(%r3)
	ld %r3, 0(%r4)
	addi %r3, %r3, 1
	std %r3, 0(%r4)
	lwz %r3, 144(%r31)
	clrlwi	%r3, %r3, 1
	lis %r4, 32640
	ori %r4, %r4, 1
	cmpw	%r3, %r4
	blt	%cr0, .LBB32_2
	b .LBB32_1
.LBB32_1:
	addis %r3, %r2, .LC65@toc@ha
	ld %r4, .LC65@toc@l(%r3)
	ld %r3, 0(%r4)
	addi %r3, %r3, 1
	std %r3, 0(%r4)
	addis %r3, %r2, .LC64@toc@ha
	ld %r4, .LC64@toc@l(%r3)
	ld %r3, 8(%r4)
	addi %r3, %r3, 1
	std %r3, 8(%r4)
	lwz %r3, 144(%r31)
	stw %r3, 148(%r31)
	b .LBB32_8
.LBB32_2:
	lwz %r3, 140(%r31)
	clrlwi	%r3, %r3, 1
	lis %r4, 32640
	ori %r4, %r4, 1
	cmpw	%r3, %r4
	blt	%cr0, .LBB32_4
	b .LBB32_3
.LBB32_3:
	addis %r3, %r2, .LC65@toc@ha
	ld %r4, .LC65@toc@l(%r3)
	ld %r3, 8(%r4)
	addi %r3, %r3, 1
	std %r3, 8(%r4)
	addis %r3, %r2, .LC64@toc@ha
	ld %r4, .LC64@toc@l(%r3)
	ld %r3, 16(%r4)
	addi %r3, %r3, 1
	std %r3, 16(%r4)
	lwz %r3, 140(%r31)
	stw %r3, 148(%r31)
	b .LBB32_8
.LBB32_4:
	lwz %r3, 144(%r31)
	lwz %r4, 140(%r31)
	bl __gtsf2
	nop
                                        # kill: def $r3 killed $r3 killed $x3
	cmpwi	%r3, 1
	blt	%cr0, .LBB32_6
	b .LBB32_5
.LBB32_5:
	addis %r3, %r2, .LC65@toc@ha
	ld %r4, .LC65@toc@l(%r3)
	ld %r3, 16(%r4)
	addi %r3, %r3, 1
	std %r3, 16(%r4)
	addis %r3, %r2, .LC64@toc@ha
	ld %r4, .LC64@toc@l(%r3)
	ld %r3, 24(%r4)
	addi %r3, %r3, 1
	std %r3, 24(%r4)
	lwz %r3, 144(%r31)
	lwz %r4, 140(%r31)
	bl __subsf3
	nop
                                        # kill: def $r3 killed $r3 killed $x3
	stw %r3, 124(%r31)                      # 4-byte Folded Spill
	b .LBB32_7
.LBB32_6:
	addis %r3, %r2, .LC65@toc@ha
	ld %r4, .LC65@toc@l(%r3)
	ld %r3, 24(%r4)
	addi %r3, %r3, 1
	std %r3, 24(%r4)
	li %r3, 0
	stw %r3, 124(%r31)                      # 4-byte Folded Spill
	b .LBB32_7
.LBB32_7:
	lwz %r3, 124(%r31)                      # 4-byte Folded Reload
	stw %r3, 148(%r31)
.LBB32_8:
	lwz %r3, 148(%r31)
	addi %r1, %r1, 160
	ld %r0, 16(%r1)
	ld %r31, -8(%r1)
	mtlr %r0
	blr
	.long	0
	.quad	0
.Lfunc_end32:
	.size	fdimf, .Lfunc_end32-.Lfunc_begin32
	.cfi_endproc
                                        # -- End function
	.globl	fmax                            # -- Begin function fmax
	.p2align	2
	.type	fmax,@function
	.section	.opd,"aw",@progbits
fmax:                                   # @fmax
	.p2align	3, 0x0
	.quad	.Lfunc_begin33
	.quad	.TOC.@tocbase
	.quad	0
	.text
.Lfunc_begin33:
	.cfi_startproc
# %bb.0:
	mflr %r0
	std %r31, -8(%r1)
	stdu %r1, -160(%r1)
	std %r0, 176(%r1)
	.cfi_def_cfa_offset 160
	.cfi_offset r31, -8
	.cfi_offset lr, 16
	mr	%r31, %r1
	.cfi_def_cfa_register r31
	std %r3, 136(%r31)
	std %r4, 128(%r31)
	addis %r3, %r2, .LC66@toc@ha
	ld %r4, .LC66@toc@l(%r3)
	ld %r3, 0(%r4)
	addi %r3, %r3, 1
	std %r3, 0(%r4)
	ld %r3, 136(%r31)
	clrldi	%r3, %r3, 1
	li %r4, 6143
	rotldi	%r4, %r4, 52
	cmpd	%r3, %r4
	blt	%cr0, .LBB33_2
	b .LBB33_1
.LBB33_1:
	addis %r3, %r2, .LC67@toc@ha
	ld %r4, .LC67@toc@l(%r3)
	ld %r3, 0(%r4)
	addi %r3, %r3, 1
	std %r3, 0(%r4)
	addis %r3, %r2, .LC66@toc@ha
	ld %r4, .LC66@toc@l(%r3)
	ld %r3, 8(%r4)
	addi %r3, %r3, 1
	std %r3, 8(%r4)
	ld %r3, 128(%r31)
	std %r3, 144(%r31)
	b .LBB33_13
.LBB33_2:
	ld %r3, 128(%r31)
	clrldi	%r3, %r3, 1
	li %r4, 6143
	rotldi	%r4, %r4, 52
	cmpd	%r3, %r4
	blt	%cr0, .LBB33_4
	b .LBB33_3
.LBB33_3:
	addis %r3, %r2, .LC67@toc@ha
	ld %r4, .LC67@toc@l(%r3)
	ld %r3, 8(%r4)
	addi %r3, %r3, 1
	std %r3, 8(%r4)
	addis %r3, %r2, .LC66@toc@ha
	ld %r4, .LC66@toc@l(%r3)
	ld %r3, 16(%r4)
	addi %r3, %r3, 1
	std %r3, 16(%r4)
	ld %r3, 136(%r31)
	std %r3, 144(%r31)
	b .LBB33_13
.LBB33_4:
	ld %r3, 136(%r31)
	rldicl %r3, %r3, 1, 63
                                        # kill: def $r3 killed $r3 killed $x3
	ld %r4, 128(%r31)
	rldicl %r4, %r4, 1, 63
                                        # kill: def $r4 killed $r4 killed $x4
	cmpw	%r3, %r4
	beq	%cr0, .LBB33_9
# %bb.5:
	addis %r3, %r2, .LC66@toc@ha
	ld %r4, .LC66@toc@l(%r3)
	ld %r3, 24(%r4)
	addi %r3, %r3, 1
	std %r3, 24(%r4)
	ld %r3, 136(%r31)
	cmpdi	%r3, 0
	bge %cr0, .LBB33_7
# %bb.6:
	addis %r3, %r2, .LC67@toc@ha
	ld %r4, .LC67@toc@l(%r3)
	ld %r3, 16(%r4)
	addi %r3, %r3, 1
	std %r3, 16(%r4)
	addis %r3, %r2, .LC66@toc@ha
	ld %r4, .LC66@toc@l(%r3)
	ld %r3, 32(%r4)
	addi %r3, %r3, 1
	std %r3, 32(%r4)
	ld %r3, 128(%r31)
	std %r3, 120(%r31)                      # 8-byte Folded Spill
	b .LBB33_8
.LBB33_7:
	addis %r3, %r2, .LC67@toc@ha
	ld %r4, .LC67@toc@l(%r3)
	ld %r3, 24(%r4)
	addi %r3, %r3, 1
	std %r3, 24(%r4)
	ld %r3, 136(%r31)
	std %r3, 120(%r31)                      # 8-byte Folded Spill
	b .LBB33_8
.LBB33_8:
	ld %r3, 120(%r31)                       # 8-byte Folded Reload
	std %r3, 144(%r31)
	b .LBB33_13
.LBB33_9:
	ld %r3, 136(%r31)
	ld %r4, 128(%r31)
	bl __ltdf2
	nop
                                        # kill: def $r3 killed $r3 killed $x3
	cmpwi	%r3, -1
	bgt	%cr0, .LBB33_11
	b .LBB33_10
.LBB33_10:
	addis %r3, %r2, .LC67@toc@ha
	ld %r4, .LC67@toc@l(%r3)
	ld %r3, 32(%r4)
	addi %r3, %r3, 1
	std %r3, 32(%r4)
	addis %r3, %r2, .LC66@toc@ha
	ld %r4, .LC66@toc@l(%r3)
	ld %r3, 40(%r4)
	addi %r3, %r3, 1
	std %r3, 40(%r4)
	ld %r3, 128(%r31)
	std %r3, 112(%r31)                      # 8-byte Folded Spill
	b .LBB33_12
.LBB33_11:
	addis %r3, %r2, .LC67@toc@ha
	ld %r4, .LC67@toc@l(%r3)
	ld %r3, 40(%r4)
	addi %r3, %r3, 1
	std %r3, 40(%r4)
	ld %r3, 136(%r31)
	std %r3, 112(%r31)                      # 8-byte Folded Spill
	b .LBB33_12
.LBB33_12:
	ld %r3, 112(%r31)                       # 8-byte Folded Reload
	std %r3, 144(%r31)
.LBB33_13:
	ld %r3, 144(%r31)
	addi %r1, %r1, 160
	ld %r0, 16(%r1)
	ld %r31, -8(%r1)
	mtlr %r0
	blr
	.long	0
	.quad	0
.Lfunc_end33:
	.size	fmax, .Lfunc_end33-.Lfunc_begin33
	.cfi_endproc
                                        # -- End function
	.globl	fmaxf                           # -- Begin function fmaxf
	.p2align	2
	.type	fmaxf,@function
	.section	.opd,"aw",@progbits
fmaxf:                                  # @fmaxf
	.p2align	3, 0x0
	.quad	.Lfunc_begin34
	.quad	.TOC.@tocbase
	.quad	0
	.text
.Lfunc_begin34:
	.cfi_startproc
# %bb.0:
	mflr %r0
	std %r31, -8(%r1)
	stdu %r1, -160(%r1)
	std %r0, 176(%r1)
	.cfi_def_cfa_offset 160
	.cfi_offset r31, -8
	.cfi_offset lr, 16
	mr	%r31, %r1
	.cfi_def_cfa_register r31
	std %r4, 128(%r31)                      # 8-byte Folded Spill
	mr	%r4, %r3
	ld %r3, 128(%r31)                       # 8-byte Folded Reload
                                        # kill: def $r3 killed $r3 killed $x3
                                        # kill: def $r4 killed $r4 killed $x4
	stw %r4, 144(%r31)
	stw %r3, 140(%r31)
	addis %r3, %r2, .LC68@toc@ha
	ld %r4, .LC68@toc@l(%r3)
	ld %r3, 0(%r4)
	addi %r3, %r3, 1
	std %r3, 0(%r4)
	lwz %r3, 144(%r31)
	clrlwi	%r3, %r3, 1
	lis %r4, 32640
	ori %r4, %r4, 1
	cmpw	%r3, %r4
	blt	%cr0, .LBB34_2
	b .LBB34_1
.LBB34_1:
	addis %r3, %r2, .LC69@toc@ha
	ld %r4, .LC69@toc@l(%r3)
	ld %r3, 0(%r4)
	addi %r3, %r3, 1
	std %r3, 0(%r4)
	addis %r3, %r2, .LC68@toc@ha
	ld %r4, .LC68@toc@l(%r3)
	ld %r3, 8(%r4)
	addi %r3, %r3, 1
	std %r3, 8(%r4)
	lwz %r3, 140(%r31)
	stw %r3, 148(%r31)
	b .LBB34_13
.LBB34_2:
	lwz %r3, 140(%r31)
	clrlwi	%r3, %r3, 1
	lis %r4, 32640
	ori %r4, %r4, 1
	cmpw	%r3, %r4
	blt	%cr0, .LBB34_4
	b .LBB34_3
.LBB34_3:
	addis %r3, %r2, .LC69@toc@ha
	ld %r4, .LC69@toc@l(%r3)
	ld %r3, 8(%r4)
	addi %r3, %r3, 1
	std %r3, 8(%r4)
	addis %r3, %r2, .LC68@toc@ha
	ld %r4, .LC68@toc@l(%r3)
	ld %r3, 16(%r4)
	addi %r3, %r3, 1
	std %r3, 16(%r4)
	lwz %r3, 144(%r31)
	stw %r3, 148(%r31)
	b .LBB34_13
.LBB34_4:
	lwz %r3, 144(%r31)
	srwi %r3, %r3, 31
	lwz %r4, 140(%r31)
	srwi %r4, %r4, 31
                                        # kill: def $r5 killed $r4
	cmpw	%r3, %r4
	beq	%cr0, .LBB34_9
# %bb.5:
	addis %r3, %r2, .LC68@toc@ha
	ld %r4, .LC68@toc@l(%r3)
	ld %r3, 24(%r4)
	addi %r3, %r3, 1
	std %r3, 24(%r4)
	lwz %r3, 144(%r31)
	cmpwi	%r3, 0
	bge %cr0, .LBB34_7
# %bb.6:
	addis %r3, %r2, .LC69@toc@ha
	ld %r4, .LC69@toc@l(%r3)
	ld %r3, 16(%r4)
	addi %r3, %r3, 1
	std %r3, 16(%r4)
	addis %r3, %r2, .LC68@toc@ha
	ld %r4, .LC68@toc@l(%r3)
	ld %r3, 32(%r4)
	addi %r3, %r3, 1
	std %r3, 32(%r4)
	lwz %r3, 140(%r31)
	stw %r3, 124(%r31)                      # 4-byte Folded Spill
	b .LBB34_8
.LBB34_7:
	addis %r3, %r2, .LC69@toc@ha
	ld %r4, .LC69@toc@l(%r3)
	ld %r3, 24(%r4)
	addi %r3, %r3, 1
	std %r3, 24(%r4)
	lwz %r3, 144(%r31)
	stw %r3, 124(%r31)                      # 4-byte Folded Spill
	b .LBB34_8
.LBB34_8:
	lwz %r3, 124(%r31)                      # 4-byte Folded Reload
	stw %r3, 148(%r31)
	b .LBB34_13
.LBB34_9:
	lwz %r3, 144(%r31)
	lwz %r4, 140(%r31)
	bl __ltsf2
	nop
                                        # kill: def $r3 killed $r3 killed $x3
	cmpwi	%r3, -1
	bgt	%cr0, .LBB34_11
	b .LBB34_10
.LBB34_10:
	addis %r3, %r2, .LC69@toc@ha
	ld %r4, .LC69@toc@l(%r3)
	ld %r3, 32(%r4)
	addi %r3, %r3, 1
	std %r3, 32(%r4)
	addis %r3, %r2, .LC68@toc@ha
	ld %r4, .LC68@toc@l(%r3)
	ld %r3, 40(%r4)
	addi %r3, %r3, 1
	std %r3, 40(%r4)
	lwz %r3, 140(%r31)
	stw %r3, 120(%r31)                      # 4-byte Folded Spill
	b .LBB34_12
.LBB34_11:
	addis %r3, %r2, .LC69@toc@ha
	ld %r4, .LC69@toc@l(%r3)
	ld %r3, 40(%r4)
	addi %r3, %r3, 1
	std %r3, 40(%r4)
	lwz %r3, 144(%r31)
	stw %r3, 120(%r31)                      # 4-byte Folded Spill
	b .LBB34_12
.LBB34_12:
	lwz %r3, 120(%r31)                      # 4-byte Folded Reload
	stw %r3, 148(%r31)
.LBB34_13:
	lwz %r3, 148(%r31)
	addi %r1, %r1, 160
	ld %r0, 16(%r1)
	ld %r31, -8(%r1)
	mtlr %r0
	blr
	.long	0
	.quad	0
.Lfunc_end34:
	.size	fmaxf, .Lfunc_end34-.Lfunc_begin34
	.cfi_endproc
                                        # -- End function
	.globl	fmaxl                           # -- Begin function fmaxl
	.p2align	2
	.type	fmaxl,@function
	.section	.opd,"aw",@progbits
fmaxl:                                  # @fmaxl
	.p2align	3, 0x0
	.quad	.Lfunc_begin35
	.quad	.TOC.@tocbase
	.quad	0
	.text
.Lfunc_begin35:
	.cfi_startproc
# %bb.0:
	mflr %r0
	std %r31, -8(%r1)
	stdu %r1, -208(%r1)
	std %r0, 224(%r1)
	.cfi_def_cfa_offset 208
	.cfi_offset r31, -8
	.cfi_offset lr, 16
	mr	%r31, %r1
	.cfi_def_cfa_register r31
	std %r3, 160(%r31)
	std %r4, 168(%r31)
	std %r6, 152(%r31)
	std %r5, 144(%r31)
	addis %r3, %r2, .LC70@toc@ha
	ld %r4, .LC70@toc@l(%r3)
	ld %r3, 0(%r4)
	addi %r3, %r3, 1
	std %r3, 0(%r4)
	ld %r3, 160(%r31)
	clrldi	%r3, %r3, 1
	li %r4, 6143
	rotldi	%r4, %r4, 52
	cmpd	%r3, %r4
	blt	%cr0, .LBB35_2
	b .LBB35_1
.LBB35_1:
	addis %r3, %r2, .LC71@toc@ha
	ld %r4, .LC71@toc@l(%r3)
	ld %r3, 0(%r4)
	addi %r3, %r3, 1
	std %r3, 0(%r4)
	addis %r3, %r2, .LC70@toc@ha
	ld %r4, .LC70@toc@l(%r3)
	ld %r3, 8(%r4)
	addi %r3, %r3, 1
	std %r3, 8(%r4)
	ld %r3, 144(%r31)
	ld %r4, 152(%r31)
	std %r4, 184(%r31)
	std %r3, 176(%r31)
	b .LBB35_13
.LBB35_2:
	ld %r3, 144(%r31)
	clrldi	%r3, %r3, 1
	li %r4, 6143
	rotldi	%r4, %r4, 52
	cmpd	%r3, %r4
	blt	%cr0, .LBB35_4
	b .LBB35_3
.LBB35_3:
	addis %r3, %r2, .LC71@toc@ha
	ld %r4, .LC71@toc@l(%r3)
	ld %r3, 8(%r4)
	addi %r3, %r3, 1
	std %r3, 8(%r4)
	addis %r3, %r2, .LC70@toc@ha
	ld %r4, .LC70@toc@l(%r3)
	ld %r3, 16(%r4)
	addi %r3, %r3, 1
	std %r3, 16(%r4)
	ld %r3, 160(%r31)
	ld %r4, 168(%r31)
	std %r4, 184(%r31)
	std %r3, 176(%r31)
	b .LBB35_13
.LBB35_4:
	ld %r3, 160(%r31)
	rldicl %r3, %r3, 1, 63
                                        # kill: def $r3 killed $r3 killed $x3
	ld %r4, 144(%r31)
	rldicl %r4, %r4, 1, 63
                                        # kill: def $r4 killed $r4 killed $x4
                                        # kill: def $r5 killed $r4
	cmpw	%r3, %r4
	beq	%cr0, .LBB35_9
# %bb.5:
	addis %r3, %r2, .LC70@toc@ha
	ld %r4, .LC70@toc@l(%r3)
	ld %r3, 24(%r4)
	addi %r3, %r3, 1
	std %r3, 24(%r4)
	ld %r3, 160(%r31)
	cmpdi	%r3, 0
	bge %cr0, .LBB35_7
# %bb.6:
	addis %r3, %r2, .LC71@toc@ha
	ld %r4, .LC71@toc@l(%r3)
	ld %r3, 16(%r4)
	addi %r3, %r3, 1
	std %r3, 16(%r4)
	addis %r3, %r2, .LC70@toc@ha
	ld %r4, .LC70@toc@l(%r3)
	ld %r3, 32(%r4)
	addi %r3, %r3, 1
	std %r3, 32(%r4)
	ld %r3, 152(%r31)
	ld %r4, 144(%r31)
	std %r4, 128(%r31)                      # 8-byte Folded Spill
	std %r3, 136(%r31)                      # 8-byte Folded Spill
	b .LBB35_8
.LBB35_7:
	addis %r3, %r2, .LC71@toc@ha
	ld %r4, .LC71@toc@l(%r3)
	ld %r3, 24(%r4)
	addi %r3, %r3, 1
	std %r3, 24(%r4)
	ld %r3, 168(%r31)
	ld %r4, 160(%r31)
	std %r4, 128(%r31)                      # 8-byte Folded Spill
	std %r3, 136(%r31)                      # 8-byte Folded Spill
	b .LBB35_8
.LBB35_8:
	ld %r4, 128(%r31)                       # 8-byte Folded Reload
	ld %r3, 136(%r31)                       # 8-byte Folded Reload
	std %r4, 176(%r31)
	std %r3, 184(%r31)
	b .LBB35_13
.LBB35_9:
	ld %r3, 160(%r31)
	ld %r4, 168(%r31)
	ld %r5, 144(%r31)
	ld %r6, 152(%r31)
	bl __gcc_qlt
	nop
                                        # kill: def $r3 killed $r3 killed $x3
	cmpwi	%r3, -1
	bgt	%cr0, .LBB35_11
	b .LBB35_10
.LBB35_10:
	addis %r3, %r2, .LC71@toc@ha
	ld %r4, .LC71@toc@l(%r3)
	ld %r3, 32(%r4)
	addi %r3, %r3, 1
	std %r3, 32(%r4)
	addis %r3, %r2, .LC70@toc@ha
	ld %r4, .LC70@toc@l(%r3)
	ld %r3, 40(%r4)
	addi %r3, %r3, 1
	std %r3, 40(%r4)
	ld %r3, 152(%r31)
	ld %r4, 144(%r31)
	std %r4, 112(%r31)                      # 8-byte Folded Spill
	std %r3, 120(%r31)                      # 8-byte Folded Spill
	b .LBB35_12
.LBB35_11:
	addis %r3, %r2, .LC71@toc@ha
	ld %r4, .LC71@toc@l(%r3)
	ld %r3, 40(%r4)
	addi %r3, %r3, 1
	std %r3, 40(%r4)
	ld %r3, 168(%r31)
	ld %r4, 160(%r31)
	std %r4, 112(%r31)                      # 8-byte Folded Spill
	std %r3, 120(%r31)                      # 8-byte Folded Spill
	b .LBB35_12
.LBB35_12:
	ld %r4, 112(%r31)                       # 8-byte Folded Reload
	ld %r3, 120(%r31)                       # 8-byte Folded Reload
	std %r4, 176(%r31)
	std %r3, 184(%r31)
.LBB35_13:
	ld %r3, 176(%r31)
	ld %r4, 184(%r31)
	addi %r1, %r1, 208
	ld %r0, 16(%r1)
	ld %r31, -8(%r1)
	mtlr %r0
	blr
	.long	0
	.quad	0
.Lfunc_end35:
	.size	fmaxl, .Lfunc_end35-.Lfunc_begin35
	.cfi_endproc
                                        # -- End function
	.globl	fmin                            # -- Begin function fmin
	.p2align	2
	.type	fmin,@function
	.section	.opd,"aw",@progbits
fmin:                                   # @fmin
	.p2align	3, 0x0
	.quad	.Lfunc_begin36
	.quad	.TOC.@tocbase
	.quad	0
	.text
.Lfunc_begin36:
	.cfi_startproc
# %bb.0:
	mflr %r0
	std %r31, -8(%r1)
	stdu %r1, -160(%r1)
	std %r0, 176(%r1)
	.cfi_def_cfa_offset 160
	.cfi_offset r31, -8
	.cfi_offset lr, 16
	mr	%r31, %r1
	.cfi_def_cfa_register r31
	std %r3, 136(%r31)
	std %r4, 128(%r31)
	addis %r3, %r2, .LC72@toc@ha
	ld %r4, .LC72@toc@l(%r3)
	ld %r3, 0(%r4)
	addi %r3, %r3, 1
	std %r3, 0(%r4)
	ld %r3, 136(%r31)
	clrldi	%r3, %r3, 1
	li %r4, 6143
	rotldi	%r4, %r4, 52
	cmpd	%r3, %r4
	blt	%cr0, .LBB36_2
	b .LBB36_1
.LBB36_1:
	addis %r3, %r2, .LC73@toc@ha
	ld %r4, .LC73@toc@l(%r3)
	ld %r3, 0(%r4)
	addi %r3, %r3, 1
	std %r3, 0(%r4)
	addis %r3, %r2, .LC72@toc@ha
	ld %r4, .LC72@toc@l(%r3)
	ld %r3, 8(%r4)
	addi %r3, %r3, 1
	std %r3, 8(%r4)
	ld %r3, 128(%r31)
	std %r3, 144(%r31)
	b .LBB36_13
.LBB36_2:
	ld %r3, 128(%r31)
	clrldi	%r3, %r3, 1
	li %r4, 6143
	rotldi	%r4, %r4, 52
	cmpd	%r3, %r4
	blt	%cr0, .LBB36_4
	b .LBB36_3
.LBB36_3:
	addis %r3, %r2, .LC73@toc@ha
	ld %r4, .LC73@toc@l(%r3)
	ld %r3, 8(%r4)
	addi %r3, %r3, 1
	std %r3, 8(%r4)
	addis %r3, %r2, .LC72@toc@ha
	ld %r4, .LC72@toc@l(%r3)
	ld %r3, 16(%r4)
	addi %r3, %r3, 1
	std %r3, 16(%r4)
	ld %r3, 136(%r31)
	std %r3, 144(%r31)
	b .LBB36_13
.LBB36_4:
	ld %r3, 136(%r31)
	rldicl %r3, %r3, 1, 63
                                        # kill: def $r3 killed $r3 killed $x3
	ld %r4, 128(%r31)
	rldicl %r4, %r4, 1, 63
                                        # kill: def $r4 killed $r4 killed $x4
	cmpw	%r3, %r4
	beq	%cr0, .LBB36_9
# %bb.5:
	addis %r3, %r2, .LC72@toc@ha
	ld %r4, .LC72@toc@l(%r3)
	ld %r3, 24(%r4)
	addi %r3, %r3, 1
	std %r3, 24(%r4)
	ld %r3, 136(%r31)
	cmpdi	%r3, 0
	bge %cr0, .LBB36_7
# %bb.6:
	addis %r3, %r2, .LC73@toc@ha
	ld %r4, .LC73@toc@l(%r3)
	ld %r3, 16(%r4)
	addi %r3, %r3, 1
	std %r3, 16(%r4)
	addis %r3, %r2, .LC72@toc@ha
	ld %r4, .LC72@toc@l(%r3)
	ld %r3, 32(%r4)
	addi %r3, %r3, 1
	std %r3, 32(%r4)
	ld %r3, 136(%r31)
	std %r3, 120(%r31)                      # 8-byte Folded Spill
	b .LBB36_8
.LBB36_7:
	addis %r3, %r2, .LC73@toc@ha
	ld %r4, .LC73@toc@l(%r3)
	ld %r3, 24(%r4)
	addi %r3, %r3, 1
	std %r3, 24(%r4)
	ld %r3, 128(%r31)
	std %r3, 120(%r31)                      # 8-byte Folded Spill
	b .LBB36_8
.LBB36_8:
	ld %r3, 120(%r31)                       # 8-byte Folded Reload
	std %r3, 144(%r31)
	b .LBB36_13
.LBB36_9:
	ld %r3, 136(%r31)
	ld %r4, 128(%r31)
	bl __ltdf2
	nop
                                        # kill: def $r3 killed $r3 killed $x3
	cmpwi	%r3, -1
	bgt	%cr0, .LBB36_11
	b .LBB36_10
.LBB36_10:
	addis %r3, %r2, .LC73@toc@ha
	ld %r4, .LC73@toc@l(%r3)
	ld %r3, 32(%r4)
	addi %r3, %r3, 1
	std %r3, 32(%r4)
	addis %r3, %r2, .LC72@toc@ha
	ld %r4, .LC72@toc@l(%r3)
	ld %r3, 40(%r4)
	addi %r3, %r3, 1
	std %r3, 40(%r4)
	ld %r3, 136(%r31)
	std %r3, 112(%r31)                      # 8-byte Folded Spill
	b .LBB36_12
.LBB36_11:
	addis %r3, %r2, .LC73@toc@ha
	ld %r4, .LC73@toc@l(%r3)
	ld %r3, 40(%r4)
	addi %r3, %r3, 1
	std %r3, 40(%r4)
	ld %r3, 128(%r31)
	std %r3, 112(%r31)                      # 8-byte Folded Spill
	b .LBB36_12
.LBB36_12:
	ld %r3, 112(%r31)                       # 8-byte Folded Reload
	std %r3, 144(%r31)
.LBB36_13:
	ld %r3, 144(%r31)
	addi %r1, %r1, 160
	ld %r0, 16(%r1)
	ld %r31, -8(%r1)
	mtlr %r0
	blr
	.long	0
	.quad	0
.Lfunc_end36:
	.size	fmin, .Lfunc_end36-.Lfunc_begin36
	.cfi_endproc
                                        # -- End function
	.globl	fminf                           # -- Begin function fminf
	.p2align	2
	.type	fminf,@function
	.section	.opd,"aw",@progbits
fminf:                                  # @fminf
	.p2align	3, 0x0
	.quad	.Lfunc_begin37
	.quad	.TOC.@tocbase
	.quad	0
	.text
.Lfunc_begin37:
	.cfi_startproc
# %bb.0:
	mflr %r0
	std %r31, -8(%r1)
	stdu %r1, -160(%r1)
	std %r0, 176(%r1)
	.cfi_def_cfa_offset 160
	.cfi_offset r31, -8
	.cfi_offset lr, 16
	mr	%r31, %r1
	.cfi_def_cfa_register r31
	std %r4, 128(%r31)                      # 8-byte Folded Spill
	mr	%r4, %r3
	ld %r3, 128(%r31)                       # 8-byte Folded Reload
                                        # kill: def $r3 killed $r3 killed $x3
                                        # kill: def $r4 killed $r4 killed $x4
	stw %r4, 144(%r31)
	stw %r3, 140(%r31)
	addis %r3, %r2, .LC74@toc@ha
	ld %r4, .LC74@toc@l(%r3)
	ld %r3, 0(%r4)
	addi %r3, %r3, 1
	std %r3, 0(%r4)
	lwz %r3, 144(%r31)
	clrlwi	%r3, %r3, 1
	lis %r4, 32640
	ori %r4, %r4, 1
	cmpw	%r3, %r4
	blt	%cr0, .LBB37_2
	b .LBB37_1
.LBB37_1:
	addis %r3, %r2, .LC75@toc@ha
	ld %r4, .LC75@toc@l(%r3)
	ld %r3, 0(%r4)
	addi %r3, %r3, 1
	std %r3, 0(%r4)
	addis %r3, %r2, .LC74@toc@ha
	ld %r4, .LC74@toc@l(%r3)
	ld %r3, 8(%r4)
	addi %r3, %r3, 1
	std %r3, 8(%r4)
	lwz %r3, 140(%r31)
	stw %r3, 148(%r31)
	b .LBB37_13
.LBB37_2:
	lwz %r3, 140(%r31)
	clrlwi	%r3, %r3, 1
	lis %r4, 32640
	ori %r4, %r4, 1
	cmpw	%r3, %r4
	blt	%cr0, .LBB37_4
	b .LBB37_3
.LBB37_3:
	addis %r3, %r2, .LC75@toc@ha
	ld %r4, .LC75@toc@l(%r3)
	ld %r3, 8(%r4)
	addi %r3, %r3, 1
	std %r3, 8(%r4)
	addis %r3, %r2, .LC74@toc@ha
	ld %r4, .LC74@toc@l(%r3)
	ld %r3, 16(%r4)
	addi %r3, %r3, 1
	std %r3, 16(%r4)
	lwz %r3, 144(%r31)
	stw %r3, 148(%r31)
	b .LBB37_13
.LBB37_4:
	lwz %r3, 144(%r31)
	srwi %r3, %r3, 31
	lwz %r4, 140(%r31)
	srwi %r4, %r4, 31
                                        # kill: def $r5 killed $r4
	cmpw	%r3, %r4
	beq	%cr0, .LBB37_9
# %bb.5:
	addis %r3, %r2, .LC74@toc@ha
	ld %r4, .LC74@toc@l(%r3)
	ld %r3, 24(%r4)
	addi %r3, %r3, 1
	std %r3, 24(%r4)
	lwz %r3, 144(%r31)
	cmpwi	%r3, 0
	bge %cr0, .LBB37_7
# %bb.6:
	addis %r3, %r2, .LC75@toc@ha
	ld %r4, .LC75@toc@l(%r3)
	ld %r3, 16(%r4)
	addi %r3, %r3, 1
	std %r3, 16(%r4)
	addis %r3, %r2, .LC74@toc@ha
	ld %r4, .LC74@toc@l(%r3)
	ld %r3, 32(%r4)
	addi %r3, %r3, 1
	std %r3, 32(%r4)
	lwz %r3, 144(%r31)
	stw %r3, 124(%r31)                      # 4-byte Folded Spill
	b .LBB37_8
.LBB37_7:
	addis %r3, %r2, .LC75@toc@ha
	ld %r4, .LC75@toc@l(%r3)
	ld %r3, 24(%r4)
	addi %r3, %r3, 1
	std %r3, 24(%r4)
	lwz %r3, 140(%r31)
	stw %r3, 124(%r31)                      # 4-byte Folded Spill
	b .LBB37_8
.LBB37_8:
	lwz %r3, 124(%r31)                      # 4-byte Folded Reload
	stw %r3, 148(%r31)
	b .LBB37_13
.LBB37_9:
	lwz %r3, 144(%r31)
	lwz %r4, 140(%r31)
	bl __ltsf2
	nop
                                        # kill: def $r3 killed $r3 killed $x3
	cmpwi	%r3, -1
	bgt	%cr0, .LBB37_11
	b .LBB37_10
.LBB37_10:
	addis %r3, %r2, .LC75@toc@ha
	ld %r4, .LC75@toc@l(%r3)
	ld %r3, 32(%r4)
	addi %r3, %r3, 1
	std %r3, 32(%r4)
	addis %r3, %r2, .LC74@toc@ha
	ld %r4, .LC74@toc@l(%r3)
	ld %r3, 40(%r4)
	addi %r3, %r3, 1
	std %r3, 40(%r4)
	lwz %r3, 144(%r31)
	stw %r3, 120(%r31)                      # 4-byte Folded Spill
	b .LBB37_12
.LBB37_11:
	addis %r3, %r2, .LC75@toc@ha
	ld %r4, .LC75@toc@l(%r3)
	ld %r3, 40(%r4)
	addi %r3, %r3, 1
	std %r3, 40(%r4)
	lwz %r3, 140(%r31)
	stw %r3, 120(%r31)                      # 4-byte Folded Spill
	b .LBB37_12
.LBB37_12:
	lwz %r3, 120(%r31)                      # 4-byte Folded Reload
	stw %r3, 148(%r31)
.LBB37_13:
	lwz %r3, 148(%r31)
	addi %r1, %r1, 160
	ld %r0, 16(%r1)
	ld %r31, -8(%r1)
	mtlr %r0
	blr
	.long	0
	.quad	0
.Lfunc_end37:
	.size	fminf, .Lfunc_end37-.Lfunc_begin37
	.cfi_endproc
                                        # -- End function
	.globl	fminl                           # -- Begin function fminl
	.p2align	2
	.type	fminl,@function
	.section	.opd,"aw",@progbits
fminl:                                  # @fminl
	.p2align	3, 0x0
	.quad	.Lfunc_begin38
	.quad	.TOC.@tocbase
	.quad	0
	.text
.Lfunc_begin38:
	.cfi_startproc
# %bb.0:
	mflr %r0
	std %r31, -8(%r1)
	stdu %r1, -208(%r1)
	std %r0, 224(%r1)
	.cfi_def_cfa_offset 208
	.cfi_offset r31, -8
	.cfi_offset lr, 16
	mr	%r31, %r1
	.cfi_def_cfa_register r31
	std %r3, 160(%r31)
	std %r4, 168(%r31)
	std %r6, 152(%r31)
	std %r5, 144(%r31)
	addis %r3, %r2, .LC76@toc@ha
	ld %r4, .LC76@toc@l(%r3)
	ld %r3, 0(%r4)
	addi %r3, %r3, 1
	std %r3, 0(%r4)
	ld %r3, 160(%r31)
	clrldi	%r3, %r3, 1
	li %r4, 6143
	rotldi	%r4, %r4, 52
	cmpd	%r3, %r4
	blt	%cr0, .LBB38_2
	b .LBB38_1
.LBB38_1:
	addis %r3, %r2, .LC77@toc@ha
	ld %r4, .LC77@toc@l(%r3)
	ld %r3, 0(%r4)
	addi %r3, %r3, 1
	std %r3, 0(%r4)
	addis %r3, %r2, .LC76@toc@ha
	ld %r4, .LC76@toc@l(%r3)
	ld %r3, 8(%r4)
	addi %r3, %r3, 1
	std %r3, 8(%r4)
	ld %r3, 144(%r31)
	ld %r4, 152(%r31)
	std %r4, 184(%r31)
	std %r3, 176(%r31)
	b .LBB38_13
.LBB38_2:
	ld %r3, 144(%r31)
	clrldi	%r3, %r3, 1
	li %r4, 6143
	rotldi	%r4, %r4, 52
	cmpd	%r3, %r4
	blt	%cr0, .LBB38_4
	b .LBB38_3
.LBB38_3:
	addis %r3, %r2, .LC77@toc@ha
	ld %r4, .LC77@toc@l(%r3)
	ld %r3, 8(%r4)
	addi %r3, %r3, 1
	std %r3, 8(%r4)
	addis %r3, %r2, .LC76@toc@ha
	ld %r4, .LC76@toc@l(%r3)
	ld %r3, 16(%r4)
	addi %r3, %r3, 1
	std %r3, 16(%r4)
	ld %r3, 160(%r31)
	ld %r4, 168(%r31)
	std %r4, 184(%r31)
	std %r3, 176(%r31)
	b .LBB38_13
.LBB38_4:
	ld %r3, 160(%r31)
	rldicl %r3, %r3, 1, 63
                                        # kill: def $r3 killed $r3 killed $x3
	ld %r4, 144(%r31)
	rldicl %r4, %r4, 1, 63
                                        # kill: def $r4 killed $r4 killed $x4
                                        # kill: def $r5 killed $r4
	cmpw	%r3, %r4
	beq	%cr0, .LBB38_9
# %bb.5:
	addis %r3, %r2, .LC76@toc@ha
	ld %r4, .LC76@toc@l(%r3)
	ld %r3, 24(%r4)
	addi %r3, %r3, 1
	std %r3, 24(%r4)
	ld %r3, 160(%r31)
	cmpdi	%r3, 0
	bge %cr0, .LBB38_7
# %bb.6:
	addis %r3, %r2, .LC77@toc@ha
	ld %r4, .LC77@toc@l(%r3)
	ld %r3, 16(%r4)
	addi %r3, %r3, 1
	std %r3, 16(%r4)
	addis %r3, %r2, .LC76@toc@ha
	ld %r4, .LC76@toc@l(%r3)
	ld %r3, 32(%r4)
	addi %r3, %r3, 1
	std %r3, 32(%r4)
	ld %r3, 168(%r31)
	ld %r4, 160(%r31)
	std %r4, 128(%r31)                      # 8-byte Folded Spill
	std %r3, 136(%r31)                      # 8-byte Folded Spill
	b .LBB38_8
.LBB38_7:
	addis %r3, %r2, .LC77@toc@ha
	ld %r4, .LC77@toc@l(%r3)
	ld %r3, 24(%r4)
	addi %r3, %r3, 1
	std %r3, 24(%r4)
	ld %r3, 152(%r31)
	ld %r4, 144(%r31)
	std %r4, 128(%r31)                      # 8-byte Folded Spill
	std %r3, 136(%r31)                      # 8-byte Folded Spill
	b .LBB38_8
.LBB38_8:
	ld %r4, 128(%r31)                       # 8-byte Folded Reload
	ld %r3, 136(%r31)                       # 8-byte Folded Reload
	std %r4, 176(%r31)
	std %r3, 184(%r31)
	b .LBB38_13
.LBB38_9:
	ld %r3, 160(%r31)
	ld %r4, 168(%r31)
	ld %r5, 144(%r31)
	ld %r6, 152(%r31)
	bl __gcc_qlt
	nop
                                        # kill: def $r3 killed $r3 killed $x3
	cmpwi	%r3, -1
	bgt	%cr0, .LBB38_11
	b .LBB38_10
.LBB38_10:
	addis %r3, %r2, .LC77@toc@ha
	ld %r4, .LC77@toc@l(%r3)
	ld %r3, 32(%r4)
	addi %r3, %r3, 1
	std %r3, 32(%r4)
	addis %r3, %r2, .LC76@toc@ha
	ld %r4, .LC76@toc@l(%r3)
	ld %r3, 40(%r4)
	addi %r3, %r3, 1
	std %r3, 40(%r4)
	ld %r3, 168(%r31)
	ld %r4, 160(%r31)
	std %r4, 112(%r31)                      # 8-byte Folded Spill
	std %r3, 120(%r31)                      # 8-byte Folded Spill
	b .LBB38_12
.LBB38_11:
	addis %r3, %r2, .LC77@toc@ha
	ld %r4, .LC77@toc@l(%r3)
	ld %r3, 40(%r4)
	addi %r3, %r3, 1
	std %r3, 40(%r4)
	ld %r3, 152(%r31)
	ld %r4, 144(%r31)
	std %r4, 112(%r31)                      # 8-byte Folded Spill
	std %r3, 120(%r31)                      # 8-byte Folded Spill
	b .LBB38_12
.LBB38_12:
	ld %r4, 112(%r31)                       # 8-byte Folded Reload
	ld %r3, 120(%r31)                       # 8-byte Folded Reload
	std %r4, 176(%r31)
	std %r3, 184(%r31)
.LBB38_13:
	ld %r3, 176(%r31)
	ld %r4, 184(%r31)
	addi %r1, %r1, 208
	ld %r0, 16(%r1)
	ld %r31, -8(%r1)
	mtlr %r0
	blr
	.long	0
	.quad	0
.Lfunc_end38:
	.size	fminl, .Lfunc_end38-.Lfunc_begin38
	.cfi_endproc
                                        # -- End function
	.globl	l64a                            # -- Begin function l64a
	.p2align	2
	.type	l64a,@function
	.section	.opd,"aw",@progbits
l64a:                                   # @l64a
	.p2align	3, 0x0
	.quad	.Lfunc_begin39
	.quad	.TOC.@tocbase
	.quad	0
	.text
.Lfunc_begin39:
	.cfi_startproc
# %bb.0:
	addis %r4, %r2, .LC78@toc@ha
	ld %r4, .LC78@toc@l(%r4)
	ld %r4, 0(%r4)
	addi %r4, %r4, 1
	addis %r5, %r2, .LC78@toc@ha
	ld %r5, .LC78@toc@l(%r5)
	std %r4, 0(%r5)
	std %r3, -16(%r1)
	addis %r3, %r2, .LC79@toc@ha
	ld %r3, .LC79@toc@l(%r3)
	ld %r3, 0(%r3)
	addi %r3, %r3, 1
	addis %r4, %r2, .LC79@toc@ha
	ld %r4, .LC79@toc@l(%r4)
	std %r3, 0(%r4)
	ld %r3, -16(%r1)
                                        # kill: def $r3 killed $r3 killed $x3
	stw %r3, -28(%r1)
	addis %r3, %r2, .LC80@toc@ha
	ld %r3, .LC80@toc@l(%r3)
	std %r3, -24(%r1)
.LBB39_1:                               # =>This Inner Loop Header: Depth=1
	lwz %r3, -28(%r1)
	cmpwi	%r3, 0
	beq	%cr0, .LBB39_4
# %bb.2:                                #   in Loop: Header=BB39_1 Depth=1
	addis %r3, %r2, .LC79@toc@ha
	ld %r3, .LC79@toc@l(%r3)
	ld %r3, 8(%r3)
	addi %r3, %r3, 1
	addis %r4, %r2, .LC79@toc@ha
	ld %r4, .LC79@toc@l(%r4)
	std %r3, 8(%r4)
	lwz %r3, -28(%r1)
	li %r4, 63
	and %r3, %r3, %r4
	clrldi	%r4, %r3, 32
	addis %r3, %r2, .LC81@toc@ha
	ld %r3, .LC81@toc@l(%r3)
	add %r3, %r3, %r4
	lbz %r3, 0(%r3)
	ld %r4, -24(%r1)
	stb %r3, 0(%r4)
# %bb.3:                                #   in Loop: Header=BB39_1 Depth=1
	addis %r3, %r2, .LC78@toc@ha
	ld %r3, .LC78@toc@l(%r3)
	ld %r3, 8(%r3)
	addi %r3, %r3, 1
	addis %r4, %r2, .LC78@toc@ha
	ld %r4, .LC78@toc@l(%r4)
	std %r3, 8(%r4)
	ld %r3, -24(%r1)
	addi %r3, %r3, 1
	std %r3, -24(%r1)
	lwz %r3, -28(%r1)
	li %r4, 6
	srw %r3, %r3, %r4
	stw %r3, -28(%r1)
	b .LBB39_1
.LBB39_4:
	ld %r4, -24(%r1)
	li %r3, 0
	stb %r3, 0(%r4)
	addis %r3, %r2, .LC80@toc@ha
	ld %r3, .LC80@toc@l(%r3)
	blr
	.long	0
	.quad	0
.Lfunc_end39:
	.size	l64a, .Lfunc_end39-.Lfunc_begin39
	.cfi_endproc
                                        # -- End function
	.globl	srand                           # -- Begin function srand
	.p2align	2
	.type	srand,@function
	.section	.opd,"aw",@progbits
srand:                                  # @srand
	.p2align	3, 0x0
	.quad	.Lfunc_begin40
	.quad	.TOC.@tocbase
	.quad	0
	.text
.Lfunc_begin40:
	.cfi_startproc
# %bb.0:
                                        # kill: def $r3 killed $r3 killed $x3
	addis %r4, %r2, .LC82@toc@ha
	ld %r5, .LC82@toc@l(%r4)
	ld %r4, 0(%r5)
	addi %r4, %r4, 1
	std %r4, 0(%r5)
	stw %r3, -12(%r1)
	addis %r3, %r2, .LC83@toc@ha
	ld %r4, .LC83@toc@l(%r3)
	ld %r3, 0(%r4)
	addi %r3, %r3, 1
	std %r3, 0(%r4)
	lwz %r3, -12(%r1)
	addi %r3, %r3, -1
	clrldi	%r3, %r3, 32
	addis %r4, %r2, .LC84@toc@ha
	ld %r4, .LC84@toc@l(%r4)
	std %r3, 0(%r4)
	blr
	.long	0
	.quad	0
.Lfunc_end40:
	.size	srand, .Lfunc_end40-.Lfunc_begin40
	.cfi_endproc
                                        # -- End function
	.globl	rand                            # -- Begin function rand
	.p2align	2
	.type	rand,@function
	.section	.opd,"aw",@progbits
rand:                                   # @rand
	.p2align	3, 0x0
	.quad	.Lfunc_begin41
	.quad	.TOC.@tocbase
	.quad	0
	.text
.Lfunc_begin41:
	.cfi_startproc
# %bb.0:
	addis %r3, %r2, .LC85@toc@ha
	ld %r4, .LC85@toc@l(%r3)
	ld %r3, 0(%r4)
	addi %r3, %r3, 1
	std %r3, 0(%r4)
	addis %r3, %r2, .LC86@toc@ha
	ld %r4, .LC86@toc@l(%r3)
	ld %r3, 0(%r4)
	addi %r3, %r3, 1
	std %r3, 0(%r4)
	addis %r3, %r2, .LC84@toc@ha
	ld %r3, .LC84@toc@l(%r3)
	ld %r4, 0(%r3)
	lis %r5, 22609
	ori %r5, %r5, 62509
	rldic %r5, %r5, 32, 1
	oris %r5, %r5, 19605
	ori %r5, %r5, 32557
	mulld %r4, %r4, %r5
	addi %r4, %r4, 1
	std %r4, 0(%r3)
	ld %r3, 0(%r3)
	rldicl %r3, %r3, 31, 33
                                        # kill: def $r3 killed $r3 killed $x3
	extsw %r3, %r3
	blr
	.long	0
	.quad	0
.Lfunc_end41:
	.size	rand, .Lfunc_end41-.Lfunc_begin41
	.cfi_endproc
                                        # -- End function
	.globl	insque                          # -- Begin function insque
	.p2align	2
	.type	insque,@function
	.section	.opd,"aw",@progbits
insque:                                 # @insque
	.p2align	3, 0x0
	.quad	.Lfunc_begin42
	.quad	.TOC.@tocbase
	.quad	0
	.text
.Lfunc_begin42:
	.cfi_startproc
# %bb.0:
	std %r3, -16(%r1)
	std %r4, -24(%r1)
	addis %r3, %r2, .LC87@toc@ha
	ld %r3, .LC87@toc@l(%r3)
	ld %r3, 0(%r3)
	addi %r3, %r3, 1
	addis %r4, %r2, .LC87@toc@ha
	ld %r4, .LC87@toc@l(%r4)
	std %r3, 0(%r4)
	ld %r3, -16(%r1)
	std %r3, -32(%r1)
	ld %r3, -24(%r1)
	std %r3, -40(%r1)
	ld %r3, -40(%r1)
	li %r4, 0
	cmpd	%r3, %r4
	bne	%cr0, .LBB42_2
# %bb.1:
	addis %r3, %r2, .LC88@toc@ha
	ld %r3, .LC88@toc@l(%r3)
	ld %r3, 8(%r3)
	addi %r3, %r3, 1
	addis %r4, %r2, .LC88@toc@ha
	ld %r4, .LC88@toc@l(%r4)
	std %r3, 8(%r4)
	addis %r3, %r2, .LC87@toc@ha
	ld %r3, .LC87@toc@l(%r3)
	ld %r3, 8(%r3)
	addi %r3, %r3, 1
	addis %r4, %r2, .LC87@toc@ha
	ld %r4, .LC87@toc@l(%r4)
	std %r3, 8(%r4)
	ld %r4, -32(%r1)
	li %r3, 0
	std %r3, 8(%r4)
	ld %r4, -32(%r1)
	li %r3, 0
	std %r3, 0(%r4)
	b .LBB42_4
.LBB42_2:
	addis %r3, %r2, .LC88@toc@ha
	ld %r3, .LC88@toc@l(%r3)
	ld %r3, 0(%r3)
	addi %r3, %r3, 1
	addis %r4, %r2, .LC88@toc@ha
	ld %r4, .LC88@toc@l(%r4)
	std %r3, 0(%r4)
	ld %r3, -40(%r1)
	ld %r3, 0(%r3)
	ld %r4, -32(%r1)
	std %r3, 0(%r4)
	ld %r3, -40(%r1)
	ld %r4, -32(%r1)
	std %r3, 8(%r4)
	ld %r3, -32(%r1)
	ld %r4, -40(%r1)
	std %r3, 0(%r4)
	ld %r3, -32(%r1)
	ld %r3, 0(%r3)
	li %r4, 0
	cmpd	%r3, %r4
	beq	%cr0, .LBB42_4
# %bb.3:
	addis %r3, %r2, .LC88@toc@ha
	ld %r3, .LC88@toc@l(%r3)
	ld %r3, 16(%r3)
	addi %r3, %r3, 1
	addis %r4, %r2, .LC88@toc@ha
	ld %r4, .LC88@toc@l(%r4)
	std %r3, 16(%r4)
	addis %r3, %r2, .LC87@toc@ha
	ld %r3, .LC87@toc@l(%r3)
	ld %r3, 16(%r3)
	addi %r3, %r3, 1
	addis %r4, %r2, .LC87@toc@ha
	ld %r4, .LC87@toc@l(%r4)
	std %r3, 16(%r4)
	ld %r3, -32(%r1)
	ld %r4, -32(%r1)
	ld %r4, 0(%r4)
	std %r3, 8(%r4)
.LBB42_4:
	blr
	.long	0
	.quad	0
.Lfunc_end42:
	.size	insque, .Lfunc_end42-.Lfunc_begin42
	.cfi_endproc
                                        # -- End function
	.globl	remque                          # -- Begin function remque
	.p2align	2
	.type	remque,@function
	.section	.opd,"aw",@progbits
remque:                                 # @remque
	.p2align	3, 0x0
	.quad	.Lfunc_begin43
	.quad	.TOC.@tocbase
	.quad	0
	.text
.Lfunc_begin43:
	.cfi_startproc
# %bb.0:
	addis %r4, %r2, .LC89@toc@ha
	ld %r4, .LC89@toc@l(%r4)
	ld %r4, 0(%r4)
	addi %r4, %r4, 1
	addis %r5, %r2, .LC89@toc@ha
	ld %r5, .LC89@toc@l(%r5)
	std %r4, 0(%r5)
	std %r3, -16(%r1)
	addis %r3, %r2, .LC90@toc@ha
	ld %r3, .LC90@toc@l(%r3)
	ld %r3, 0(%r3)
	addi %r3, %r3, 1
	addis %r4, %r2, .LC90@toc@ha
	ld %r4, .LC90@toc@l(%r4)
	std %r3, 0(%r4)
	ld %r3, -16(%r1)
	std %r3, -24(%r1)
	ld %r3, -24(%r1)
	ld %r3, 0(%r3)
	li %r4, 0
	cmpd	%r3, %r4
	beq	%cr0, .LBB43_2
# %bb.1:
	addis %r3, %r2, .LC89@toc@ha
	ld %r3, .LC89@toc@l(%r3)
	ld %r3, 8(%r3)
	addi %r3, %r3, 1
	addis %r4, %r2, .LC89@toc@ha
	ld %r4, .LC89@toc@l(%r4)
	std %r3, 8(%r4)
	addis %r3, %r2, .LC90@toc@ha
	ld %r3, .LC90@toc@l(%r3)
	ld %r3, 8(%r3)
	addi %r3, %r3, 1
	addis %r4, %r2, .LC90@toc@ha
	ld %r4, .LC90@toc@l(%r4)
	std %r3, 8(%r4)
	ld %r3, -24(%r1)
	ld %r3, 8(%r3)
	ld %r4, -24(%r1)
	ld %r4, 0(%r4)
	std %r3, 8(%r4)
.LBB43_2:
	ld %r3, -24(%r1)
	ld %r3, 8(%r3)
	li %r4, 0
	cmpd	%r3, %r4
	beq	%cr0, .LBB43_4
# %bb.3:
	addis %r3, %r2, .LC89@toc@ha
	ld %r3, .LC89@toc@l(%r3)
	ld %r3, 16(%r3)
	addi %r3, %r3, 1
	addis %r4, %r2, .LC89@toc@ha
	ld %r4, .LC89@toc@l(%r4)
	std %r3, 16(%r4)
	addis %r3, %r2, .LC90@toc@ha
	ld %r3, .LC90@toc@l(%r3)
	ld %r3, 16(%r3)
	addi %r3, %r3, 1
	addis %r4, %r2, .LC90@toc@ha
	ld %r4, .LC90@toc@l(%r4)
	std %r3, 16(%r4)
	ld %r3, -24(%r1)
	ld %r3, 0(%r3)
	ld %r4, -24(%r1)
	ld %r4, 8(%r4)
	std %r3, 0(%r4)
.LBB43_4:
	blr
	.long	0
	.quad	0
.Lfunc_end43:
	.size	remque, .Lfunc_end43-.Lfunc_begin43
	.cfi_endproc
                                        # -- End function
	.globl	lsearch                         # -- Begin function lsearch
	.p2align	2
	.type	lsearch,@function
	.section	.opd,"aw",@progbits
lsearch:                                # @lsearch
	.p2align	3, 0x0
	.quad	.Lfunc_begin44
	.quad	.TOC.@tocbase
	.quad	0
	.text
.Lfunc_begin44:
	.cfi_startproc
# %bb.0:
	mflr %r0
	std %r31, -8(%r1)
	stdu %r1, -208(%r1)
	std %r0, 224(%r1)
	.cfi_def_cfa_offset 208
	.cfi_offset r31, -8
	.cfi_offset lr, 16
	mr	%r31, %r1
	.cfi_def_cfa_register r31
	std %r3, 184(%r31)
	std %r4, 176(%r31)
	std %r5, 168(%r31)
	std %r6, 160(%r31)
	std %r7, 152(%r31)
	addis %r3, %r2, .LC91@toc@ha
	ld %r3, .LC91@toc@l(%r3)
	ld %r3, 0(%r3)
	addi %r3, %r3, 1
	addis %r4, %r2, .LC91@toc@ha
	ld %r4, .LC91@toc@l(%r4)
	std %r3, 0(%r4)
	ld %r3, 160(%r31)
	std %r3, 120(%r31)                      # 8-byte Folded Spill
	ld %r3, 176(%r31)
	std %r3, 144(%r31)
	ld %r3, 168(%r31)
	ld %r3, 0(%r3)
	std %r3, 136(%r31)
	li %r3, 0
	std %r3, 128(%r31)
.LBB44_1:                               # =>This Inner Loop Header: Depth=1
	ld %r3, 128(%r31)
	ld %r4, 136(%r31)
	cmpld	%r3, %r4
	bge %cr0, .LBB44_6
# %bb.2:                                #   in Loop: Header=BB44_1 Depth=1
	ld %r7, 120(%r31)                       # 8-byte Folded Reload
	addis %r3, %r2, .LC91@toc@ha
	ld %r3, .LC91@toc@l(%r3)
	ld %r3, 8(%r3)
	addi %r3, %r3, 1
	addis %r4, %r2, .LC91@toc@ha
	ld %r4, .LC91@toc@l(%r4)
	std %r3, 8(%r4)
	ld %r5, 152(%r31)
	ld %r3, 184(%r31)
	ld %r4, 144(%r31)
	ld %r6, 128(%r31)
	mulld %r6, %r6, %r7
	add %r4, %r4, %r6
	mr	%r6, %r2
	std %r6, 40(%r1)
	ld %r6, 8(%r5)
	ld %r11, 16(%r5)
	ld %r5, 0(%r5)
	mr	%r2, %r6
	mtctr %r5
	bctrl
	ld 2, 40(%r1)
                                        # kill: def $r3 killed $r3 killed $x3
	cmpwi	%r3, 0
	bne	%cr0, .LBB44_4
# %bb.3:
	ld %r5, 120(%r31)                       # 8-byte Folded Reload
	addis %r3, %r2, .LC92@toc@ha
	ld %r3, .LC92@toc@l(%r3)
	ld %r3, 0(%r3)
	addi %r3, %r3, 1
	addis %r4, %r2, .LC92@toc@ha
	ld %r4, .LC92@toc@l(%r4)
	std %r3, 0(%r4)
	addis %r3, %r2, .LC91@toc@ha
	ld %r3, .LC91@toc@l(%r3)
	ld %r3, 16(%r3)
	addi %r3, %r3, 1
	addis %r4, %r2, .LC91@toc@ha
	ld %r4, .LC91@toc@l(%r4)
	std %r3, 16(%r4)
	ld %r3, 144(%r31)
	ld %r4, 128(%r31)
	mulld %r4, %r4, %r5
	add %r3, %r3, %r4
	std %r3, 192(%r31)
	b .LBB44_7
.LBB44_4:                               #   in Loop: Header=BB44_1 Depth=1
	b .LBB44_5
.LBB44_5:                               #   in Loop: Header=BB44_1 Depth=1
	addis %r3, %r2, .LC92@toc@ha
	ld %r3, .LC92@toc@l(%r3)
	ld %r3, 8(%r3)
	addi %r3, %r3, 1
	addis %r4, %r2, .LC92@toc@ha
	ld %r4, .LC92@toc@l(%r4)
	std %r3, 8(%r4)
	ld %r3, 128(%r31)
	addi %r3, %r3, 1
	std %r3, 128(%r31)
	b .LBB44_1
.LBB44_6:
	ld %r5, 120(%r31)                       # 8-byte Folded Reload
	addis %r3, %r2, .LC92@toc@ha
	ld %r3, .LC92@toc@l(%r3)
	ld %r3, 16(%r3)
	addi %r3, %r3, 1
	addis %r4, %r2, .LC92@toc@ha
	ld %r4, .LC92@toc@l(%r4)
	std %r3, 16(%r4)
	ld %r3, 136(%r31)
	addi %r3, %r3, 1
	ld %r4, 168(%r31)
	std %r3, 0(%r4)
	ld %r3, 144(%r31)
	ld %r4, 136(%r31)
	mulld %r4, %r4, %r5
	add %r3, %r3, %r4
	std %r3, 112(%r31)                      # 8-byte Folded Spill
	ld %r4, 184(%r31)
	ld %r5, 160(%r31)
	bl memcpy
	nop
                                        # kill: def $x4 killed $x3
	ld %r3, 112(%r31)                       # 8-byte Folded Reload
	std %r3, 192(%r31)
.LBB44_7:
	ld %r3, 192(%r31)
	addi %r1, %r1, 208
	ld %r0, 16(%r1)
	ld %r31, -8(%r1)
	mtlr %r0
	blr
	.long	0
	.quad	0
.Lfunc_end44:
	.size	lsearch, .Lfunc_end44-.Lfunc_begin44
	.cfi_endproc
                                        # -- End function
	.globl	lfind                           # -- Begin function lfind
	.p2align	2
	.type	lfind,@function
	.section	.opd,"aw",@progbits
lfind:                                  # @lfind
	.p2align	3, 0x0
	.quad	.Lfunc_begin45
	.quad	.TOC.@tocbase
	.quad	0
	.text
.Lfunc_begin45:
	.cfi_startproc
# %bb.0:
	mflr %r0
	std %r31, -8(%r1)
	stdu %r1, -208(%r1)
	std %r0, 224(%r1)
	.cfi_def_cfa_offset 208
	.cfi_offset r31, -8
	.cfi_offset lr, 16
	mr	%r31, %r1
	.cfi_def_cfa_register r31
	std %r3, 184(%r31)
	std %r4, 176(%r31)
	std %r5, 168(%r31)
	std %r6, 160(%r31)
	std %r7, 152(%r31)
	addis %r3, %r2, .LC93@toc@ha
	ld %r3, .LC93@toc@l(%r3)
	ld %r3, 0(%r3)
	addi %r3, %r3, 1
	addis %r4, %r2, .LC93@toc@ha
	ld %r4, .LC93@toc@l(%r4)
	std %r3, 0(%r4)
	ld %r3, 160(%r31)
	std %r3, 120(%r31)                      # 8-byte Folded Spill
	ld %r3, 176(%r31)
	std %r3, 144(%r31)
	ld %r3, 168(%r31)
	ld %r3, 0(%r3)
	std %r3, 136(%r31)
	li %r3, 0
	std %r3, 128(%r31)
.LBB45_1:                               # =>This Inner Loop Header: Depth=1
	ld %r3, 128(%r31)
	ld %r4, 136(%r31)
	cmpld	%r3, %r4
	bge %cr0, .LBB45_6
# %bb.2:                                #   in Loop: Header=BB45_1 Depth=1
	ld %r7, 120(%r31)                       # 8-byte Folded Reload
	addis %r3, %r2, .LC93@toc@ha
	ld %r3, .LC93@toc@l(%r3)
	ld %r3, 8(%r3)
	addi %r3, %r3, 1
	addis %r4, %r2, .LC93@toc@ha
	ld %r4, .LC93@toc@l(%r4)
	std %r3, 8(%r4)
	ld %r5, 152(%r31)
	ld %r3, 184(%r31)
	ld %r4, 144(%r31)
	ld %r6, 128(%r31)
	mulld %r6, %r6, %r7
	add %r4, %r4, %r6
	mr	%r6, %r2
	std %r6, 40(%r1)
	ld %r6, 8(%r5)
	ld %r11, 16(%r5)
	ld %r5, 0(%r5)
	mr	%r2, %r6
	mtctr %r5
	bctrl
	ld 2, 40(%r1)
                                        # kill: def $r3 killed $r3 killed $x3
	cmpwi	%r3, 0
	bne	%cr0, .LBB45_4
# %bb.3:
	ld %r5, 120(%r31)                       # 8-byte Folded Reload
	addis %r3, %r2, .LC94@toc@ha
	ld %r3, .LC94@toc@l(%r3)
	ld %r3, 0(%r3)
	addi %r3, %r3, 1
	addis %r4, %r2, .LC94@toc@ha
	ld %r4, .LC94@toc@l(%r4)
	std %r3, 0(%r4)
	addis %r3, %r2, .LC93@toc@ha
	ld %r3, .LC93@toc@l(%r3)
	ld %r3, 16(%r3)
	addi %r3, %r3, 1
	addis %r4, %r2, .LC93@toc@ha
	ld %r4, .LC93@toc@l(%r4)
	std %r3, 16(%r4)
	ld %r3, 144(%r31)
	ld %r4, 128(%r31)
	mulld %r4, %r4, %r5
	add %r3, %r3, %r4
	std %r3, 192(%r31)
	b .LBB45_7
.LBB45_4:                               #   in Loop: Header=BB45_1 Depth=1
	b .LBB45_5
.LBB45_5:                               #   in Loop: Header=BB45_1 Depth=1
	addis %r3, %r2, .LC94@toc@ha
	ld %r3, .LC94@toc@l(%r3)
	ld %r3, 8(%r3)
	addi %r3, %r3, 1
	addis %r4, %r2, .LC94@toc@ha
	ld %r4, .LC94@toc@l(%r4)
	std %r3, 8(%r4)
	ld %r3, 128(%r31)
	addi %r3, %r3, 1
	std %r3, 128(%r31)
	b .LBB45_1
.LBB45_6:
	addis %r3, %r2, .LC94@toc@ha
	ld %r3, .LC94@toc@l(%r3)
	ld %r3, 16(%r3)
	addi %r3, %r3, 1
	addis %r4, %r2, .LC94@toc@ha
	ld %r4, .LC94@toc@l(%r4)
	std %r3, 16(%r4)
	li %r3, 0
	std %r3, 192(%r31)
.LBB45_7:
	ld %r3, 192(%r31)
	addi %r1, %r1, 208
	ld %r0, 16(%r1)
	ld %r31, -8(%r1)
	mtlr %r0
	blr
	.long	0
	.quad	0
.Lfunc_end45:
	.size	lfind, .Lfunc_end45-.Lfunc_begin45
	.cfi_endproc
                                        # -- End function
	.globl	abs                             # -- Begin function abs
	.p2align	2
	.type	abs,@function
	.section	.opd,"aw",@progbits
abs:                                    # @abs
	.p2align	3, 0x0
	.quad	.Lfunc_begin46
	.quad	.TOC.@tocbase
	.quad	0
	.text
.Lfunc_begin46:
	.cfi_startproc
# %bb.0:
                                        # kill: def $r3 killed $r3 killed $x3
	stw %r3, -12(%r1)
	addis %r3, %r2, .LC95@toc@ha
	ld %r3, .LC95@toc@l(%r3)
	ld %r3, 0(%r3)
	addi %r3, %r3, 1
	addis %r4, %r2, .LC95@toc@ha
	ld %r4, .LC95@toc@l(%r4)
	std %r3, 0(%r4)
	lwz %r3, -12(%r1)
	cmpwi	%r3, 0
	ble %cr0, .LBB46_2
# %bb.1:
	addis %r3, %r2, .LC96@toc@ha
	ld %r3, .LC96@toc@l(%r3)
	ld %r3, 0(%r3)
	addi %r3, %r3, 1
	addis %r4, %r2, .LC96@toc@ha
	ld %r4, .LC96@toc@l(%r4)
	std %r3, 0(%r4)
	addis %r3, %r2, .LC95@toc@ha
	ld %r3, .LC95@toc@l(%r3)
	ld %r3, 8(%r3)
	addi %r3, %r3, 1
	addis %r4, %r2, .LC95@toc@ha
	ld %r4, .LC95@toc@l(%r4)
	std %r3, 8(%r4)
	lwz %r3, -12(%r1)
	stw %r3, -16(%r1)                       # 4-byte Folded Spill
	b .LBB46_3
.LBB46_2:
	addis %r3, %r2, .LC96@toc@ha
	ld %r4, .LC96@toc@l(%r3)
	ld %r3, 8(%r4)
	addi %r3, %r3, 1
	std %r3, 8(%r4)
	lwz %r3, -12(%r1)
	neg %r3, %r3
	stw %r3, -16(%r1)                       # 4-byte Folded Spill
.LBB46_3:
	lwz %r3, -16(%r1)                       # 4-byte Folded Reload
	extsw %r3, %r3
	blr
	.long	0
	.quad	0
.Lfunc_end46:
	.size	abs, .Lfunc_end46-.Lfunc_begin46
	.cfi_endproc
                                        # -- End function
	.globl	atoi                            # -- Begin function atoi
	.p2align	2
	.type	atoi,@function
	.section	.opd,"aw",@progbits
atoi:                                   # @atoi
	.p2align	3, 0x0
	.quad	.Lfunc_begin47
	.quad	.TOC.@tocbase
	.quad	0
	.text
.Lfunc_begin47:
	.cfi_startproc
# %bb.0:
	mflr %r0
	std %r31, -8(%r1)
	stdu %r1, -144(%r1)
	std %r0, 160(%r1)
	.cfi_def_cfa_offset 144
	.cfi_offset r31, -8
	.cfi_offset lr, 16
	mr	%r31, %r1
	.cfi_def_cfa_register r31
	std %r3, 128(%r31)
	addis %r3, %r2, .LC97@toc@ha
	ld %r3, .LC97@toc@l(%r3)
	ld %r3, 0(%r3)
	addi %r3, %r3, 1
	addis %r4, %r2, .LC97@toc@ha
	ld %r4, .LC97@toc@l(%r4)
	std %r3, 0(%r4)
	li %r3, 0
	stw %r3, 124(%r31)
	li %r3, 0
	stw %r3, 120(%r31)
.LBB47_1:                               # =>This Inner Loop Header: Depth=1
	ld %r3, 128(%r31)
	lbz %r3, 0(%r3)
	mr	%r4, %r2
	std %r4, 40(%r1)
	extsw %r3, %r3
	addis %r4, %r2, .LC98@toc@ha
	ld %r4, .LC98@toc@l(%r4)
	ld %r5, 8(%r4)
	ld %r11, 16(%r4)
	ld %r4, 0(%r4)
	mr	%r2, %r5
	mtctr %r4
	bctrl
	ld 2, 40(%r1)
                                        # kill: def $r3 killed $r3 killed $x3
	cmpwi	%r3, 0
	beq	%cr0, .LBB47_3
# %bb.2:                                #   in Loop: Header=BB47_1 Depth=1
	addis %r3, %r2, .LC99@toc@ha
	ld %r3, .LC99@toc@l(%r3)
	ld %r3, 0(%r3)
	addi %r3, %r3, 1
	addis %r4, %r2, .LC99@toc@ha
	ld %r4, .LC99@toc@l(%r4)
	std %r3, 0(%r4)
	addis %r3, %r2, .LC97@toc@ha
	ld %r3, .LC97@toc@l(%r3)
	ld %r3, 8(%r3)
	addi %r3, %r3, 1
	addis %r4, %r2, .LC97@toc@ha
	ld %r4, .LC97@toc@l(%r4)
	std %r3, 8(%r4)
	ld %r3, 128(%r31)
	addi %r3, %r3, 1
	std %r3, 128(%r31)
	b .LBB47_1
.LBB47_3:
	ld %r3, 128(%r31)
	lbz %r3, 0(%r3)
	stw %r3, 116(%r31)                      # 4-byte Folded Spill
	cmplwi	%r3, 43
	beq	%cr0, .LBB47_6
	b .LBB47_4
.LBB47_4:
	lwz %r3, 116(%r31)                      # 4-byte Folded Reload
	cmplwi	%r3, 45
	bne	%cr0, .LBB47_8
	b .LBB47_5
.LBB47_5:
	addis %r3, %r2, .LC99@toc@ha
	ld %r3, .LC99@toc@l(%r3)
	ld %r3, 8(%r3)
	addi %r3, %r3, 1
	addis %r4, %r2, .LC99@toc@ha
	ld %r4, .LC99@toc@l(%r4)
	std %r3, 8(%r4)
	addis %r3, %r2, .LC97@toc@ha
	ld %r3, .LC97@toc@l(%r3)
	ld %r3, 24(%r3)
	addi %r3, %r3, 1
	addis %r4, %r2, .LC97@toc@ha
	ld %r4, .LC97@toc@l(%r4)
	std %r3, 24(%r4)
	li %r3, 1
	stw %r3, 120(%r31)
	b .LBB47_7
.LBB47_6:
	addis %r3, %r2, .LC99@toc@ha
	ld %r3, .LC99@toc@l(%r3)
	ld %r3, 16(%r3)
	addi %r3, %r3, 1
	addis %r4, %r2, .LC99@toc@ha
	ld %r4, .LC99@toc@l(%r4)
	std %r3, 16(%r4)
	addis %r3, %r2, .LC97@toc@ha
	ld %r3, .LC97@toc@l(%r3)
	ld %r3, 32(%r3)
	addi %r3, %r3, 1
	addis %r4, %r2, .LC97@toc@ha
	ld %r4, .LC97@toc@l(%r4)
	std %r3, 32(%r4)
.LBB47_7:
	ld %r3, 128(%r31)
	addi %r3, %r3, 1
	std %r3, 128(%r31)
.LBB47_8:
	addis %r3, %r2, .LC97@toc@ha
	ld %r3, .LC97@toc@l(%r3)
	ld %r3, 16(%r3)
	addi %r3, %r3, 1
	addis %r4, %r2, .LC97@toc@ha
	ld %r4, .LC97@toc@l(%r4)
	std %r3, 16(%r4)
.LBB47_9:                               # =>This Inner Loop Header: Depth=1
	ld %r3, 128(%r31)
	lbz %r3, 0(%r3)
	mr	%r4, %r2
	std %r4, 40(%r1)
	extsw %r3, %r3
	addis %r4, %r2, .LC100@toc@ha
	ld %r4, .LC100@toc@l(%r4)
	ld %r5, 8(%r4)
	ld %r11, 16(%r4)
	ld %r4, 0(%r4)
	mr	%r2, %r5
	mtctr %r4
	bctrl
	ld 2, 40(%r1)
                                        # kill: def $r3 killed $r3 killed $x3
	cmpwi	%r3, 0
	beq	%cr0, .LBB47_11
# %bb.10:                               #   in Loop: Header=BB47_9 Depth=1
	addis %r3, %r2, .LC99@toc@ha
	ld %r4, .LC99@toc@l(%r3)
	ld %r3, 24(%r4)
	addi %r3, %r3, 1
	std %r3, 24(%r4)
	addis %r3, %r2, .LC97@toc@ha
	ld %r4, .LC97@toc@l(%r3)
	ld %r3, 40(%r4)
	addi %r3, %r3, 1
	std %r3, 40(%r4)
	lwz %r3, 124(%r31)
	mulli %r4, %r3, 10
	ld %r3, 128(%r31)
	addi %r5, %r3, 1
	std %r5, 128(%r31)
	lbz %r3, 0(%r3)
	addi %r3, %r3, -48
	sub	%r3, %r4, %r3
	stw %r3, 124(%r31)
	b .LBB47_9
.LBB47_11:
	lwz %r3, 120(%r31)
	cmpwi	%r3, 0
	beq	%cr0, .LBB47_13
# %bb.12:
	addis %r3, %r2, .LC99@toc@ha
	ld %r3, .LC99@toc@l(%r3)
	ld %r3, 32(%r3)
	addi %r3, %r3, 1
	addis %r4, %r2, .LC99@toc@ha
	ld %r4, .LC99@toc@l(%r4)
	std %r3, 32(%r4)
	addis %r3, %r2, .LC97@toc@ha
	ld %r3, .LC97@toc@l(%r3)
	ld %r3, 48(%r3)
	addi %r3, %r3, 1
	addis %r4, %r2, .LC97@toc@ha
	ld %r4, .LC97@toc@l(%r4)
	std %r3, 48(%r4)
	lwz %r3, 124(%r31)
	stw %r3, 112(%r31)                      # 4-byte Folded Spill
	b .LBB47_14
.LBB47_13:
	addis %r3, %r2, .LC99@toc@ha
	ld %r4, .LC99@toc@l(%r3)
	ld %r3, 40(%r4)
	addi %r3, %r3, 1
	std %r3, 40(%r4)
	lwz %r3, 124(%r31)
	neg %r3, %r3
	stw %r3, 112(%r31)                      # 4-byte Folded Spill
.LBB47_14:
	lwz %r3, 112(%r31)                      # 4-byte Folded Reload
	extsw %r3, %r3
	addi %r1, %r1, 144
	ld %r0, 16(%r1)
	ld %r31, -8(%r1)
	mtlr %r0
	blr
	.long	0
	.quad	0
.Lfunc_end47:
	.size	atoi, .Lfunc_end47-.Lfunc_begin47
	.cfi_endproc
                                        # -- End function
	.globl	atol                            # -- Begin function atol
	.p2align	2
	.type	atol,@function
	.section	.opd,"aw",@progbits
atol:                                   # @atol
	.p2align	3, 0x0
	.quad	.Lfunc_begin48
	.quad	.TOC.@tocbase
	.quad	0
	.text
.Lfunc_begin48:
	.cfi_startproc
# %bb.0:
	mflr %r0
	std %r31, -8(%r1)
	stdu %r1, -160(%r1)
	std %r0, 176(%r1)
	.cfi_def_cfa_offset 160
	.cfi_offset r31, -8
	.cfi_offset lr, 16
	mr	%r31, %r1
	.cfi_def_cfa_register r31
	std %r3, 144(%r31)
	addis %r3, %r2, .LC101@toc@ha
	ld %r3, .LC101@toc@l(%r3)
	ld %r3, 0(%r3)
	addi %r3, %r3, 1
	addis %r4, %r2, .LC101@toc@ha
	ld %r4, .LC101@toc@l(%r4)
	std %r3, 0(%r4)
	li %r3, 0
	std %r3, 136(%r31)
	li %r3, 0
	stw %r3, 132(%r31)
.LBB48_1:                               # =>This Inner Loop Header: Depth=1
	ld %r3, 144(%r31)
	lbz %r3, 0(%r3)
	mr	%r4, %r2
	std %r4, 40(%r1)
	extsw %r3, %r3
	addis %r4, %r2, .LC98@toc@ha
	ld %r4, .LC98@toc@l(%r4)
	ld %r5, 8(%r4)
	ld %r11, 16(%r4)
	ld %r4, 0(%r4)
	mr	%r2, %r5
	mtctr %r4
	bctrl
	ld 2, 40(%r1)
                                        # kill: def $r3 killed $r3 killed $x3
	cmpwi	%r3, 0
	beq	%cr0, .LBB48_3
# %bb.2:                                #   in Loop: Header=BB48_1 Depth=1
	addis %r3, %r2, .LC102@toc@ha
	ld %r3, .LC102@toc@l(%r3)
	ld %r3, 0(%r3)
	addi %r3, %r3, 1
	addis %r4, %r2, .LC102@toc@ha
	ld %r4, .LC102@toc@l(%r4)
	std %r3, 0(%r4)
	addis %r3, %r2, .LC101@toc@ha
	ld %r3, .LC101@toc@l(%r3)
	ld %r3, 8(%r3)
	addi %r3, %r3, 1
	addis %r4, %r2, .LC101@toc@ha
	ld %r4, .LC101@toc@l(%r4)
	std %r3, 8(%r4)
	ld %r3, 144(%r31)
	addi %r3, %r3, 1
	std %r3, 144(%r31)
	b .LBB48_1
.LBB48_3:
	ld %r3, 144(%r31)
	lbz %r3, 0(%r3)
	stw %r3, 128(%r31)                      # 4-byte Folded Spill
	cmplwi	%r3, 43
	beq	%cr0, .LBB48_6
	b .LBB48_4
.LBB48_4:
	lwz %r3, 128(%r31)                      # 4-byte Folded Reload
	cmplwi	%r3, 45
	bne	%cr0, .LBB48_8
	b .LBB48_5
.LBB48_5:
	addis %r3, %r2, .LC102@toc@ha
	ld %r3, .LC102@toc@l(%r3)
	ld %r3, 8(%r3)
	addi %r3, %r3, 1
	addis %r4, %r2, .LC102@toc@ha
	ld %r4, .LC102@toc@l(%r4)
	std %r3, 8(%r4)
	addis %r3, %r2, .LC101@toc@ha
	ld %r3, .LC101@toc@l(%r3)
	ld %r3, 24(%r3)
	addi %r3, %r3, 1
	addis %r4, %r2, .LC101@toc@ha
	ld %r4, .LC101@toc@l(%r4)
	std %r3, 24(%r4)
	li %r3, 1
	stw %r3, 132(%r31)
	b .LBB48_7
.LBB48_6:
	addis %r3, %r2, .LC102@toc@ha
	ld %r3, .LC102@toc@l(%r3)
	ld %r3, 16(%r3)
	addi %r3, %r3, 1
	addis %r4, %r2, .LC102@toc@ha
	ld %r4, .LC102@toc@l(%r4)
	std %r3, 16(%r4)
	addis %r3, %r2, .LC101@toc@ha
	ld %r3, .LC101@toc@l(%r3)
	ld %r3, 32(%r3)
	addi %r3, %r3, 1
	addis %r4, %r2, .LC101@toc@ha
	ld %r4, .LC101@toc@l(%r4)
	std %r3, 32(%r4)
.LBB48_7:
	ld %r3, 144(%r31)
	addi %r3, %r3, 1
	std %r3, 144(%r31)
.LBB48_8:
	addis %r3, %r2, .LC101@toc@ha
	ld %r3, .LC101@toc@l(%r3)
	ld %r3, 16(%r3)
	addi %r3, %r3, 1
	addis %r4, %r2, .LC101@toc@ha
	ld %r4, .LC101@toc@l(%r4)
	std %r3, 16(%r4)
.LBB48_9:                               # =>This Inner Loop Header: Depth=1
	ld %r3, 144(%r31)
	lbz %r3, 0(%r3)
	mr	%r4, %r2
	std %r4, 40(%r1)
	extsw %r3, %r3
	addis %r4, %r2, .LC100@toc@ha
	ld %r4, .LC100@toc@l(%r4)
	ld %r5, 8(%r4)
	ld %r11, 16(%r4)
	ld %r4, 0(%r4)
	mr	%r2, %r5
	mtctr %r4
	bctrl
	ld 2, 40(%r1)
                                        # kill: def $r3 killed $r3 killed $x3
	cmpwi	%r3, 0
	beq	%cr0, .LBB48_11
# %bb.10:                               #   in Loop: Header=BB48_9 Depth=1
	addis %r3, %r2, .LC102@toc@ha
	ld %r4, .LC102@toc@l(%r3)
	ld %r3, 24(%r4)
	addi %r3, %r3, 1
	std %r3, 24(%r4)
	addis %r3, %r2, .LC101@toc@ha
	ld %r4, .LC101@toc@l(%r3)
	ld %r3, 40(%r4)
	addi %r3, %r3, 1
	std %r3, 40(%r4)
	ld %r3, 136(%r31)
	mulli %r4, %r3, 10
	ld %r3, 144(%r31)
	addi %r5, %r3, 1
	std %r5, 144(%r31)
	lbz %r3, 0(%r3)
	addi %r3, %r3, -48
	extsw %r3, %r3
	sub	%r3, %r4, %r3
	std %r3, 136(%r31)
	b .LBB48_9
.LBB48_11:
	lwz %r3, 132(%r31)
	cmpwi	%r3, 0
	beq	%cr0, .LBB48_13
# %bb.12:
	addis %r3, %r2, .LC102@toc@ha
	ld %r3, .LC102@toc@l(%r3)
	ld %r3, 32(%r3)
	addi %r3, %r3, 1
	addis %r4, %r2, .LC102@toc@ha
	ld %r4, .LC102@toc@l(%r4)
	std %r3, 32(%r4)
	addis %r3, %r2, .LC101@toc@ha
	ld %r3, .LC101@toc@l(%r3)
	ld %r3, 48(%r3)
	addi %r3, %r3, 1
	addis %r4, %r2, .LC101@toc@ha
	ld %r4, .LC101@toc@l(%r4)
	std %r3, 48(%r4)
	ld %r3, 136(%r31)
	std %r3, 120(%r31)                      # 8-byte Folded Spill
	b .LBB48_14
.LBB48_13:
	addis %r3, %r2, .LC102@toc@ha
	ld %r4, .LC102@toc@l(%r3)
	ld %r3, 40(%r4)
	addi %r3, %r3, 1
	std %r3, 40(%r4)
	ld %r3, 136(%r31)
	neg %r3, %r3
	std %r3, 120(%r31)                      # 8-byte Folded Spill
.LBB48_14:
	ld %r3, 120(%r31)                       # 8-byte Folded Reload
	addi %r1, %r1, 160
	ld %r0, 16(%r1)
	ld %r31, -8(%r1)
	mtlr %r0
	blr
	.long	0
	.quad	0
.Lfunc_end48:
	.size	atol, .Lfunc_end48-.Lfunc_begin48
	.cfi_endproc
                                        # -- End function
	.globl	atoll                           # -- Begin function atoll
	.p2align	2
	.type	atoll,@function
	.section	.opd,"aw",@progbits
atoll:                                  # @atoll
	.p2align	3, 0x0
	.quad	.Lfunc_begin49
	.quad	.TOC.@tocbase
	.quad	0
	.text
.Lfunc_begin49:
	.cfi_startproc
# %bb.0:
	mflr %r0
	std %r31, -8(%r1)
	stdu %r1, -160(%r1)
	std %r0, 176(%r1)
	.cfi_def_cfa_offset 160
	.cfi_offset r31, -8
	.cfi_offset lr, 16
	mr	%r31, %r1
	.cfi_def_cfa_register r31
	std %r3, 144(%r31)
	addis %r3, %r2, .LC103@toc@ha
	ld %r3, .LC103@toc@l(%r3)
	ld %r3, 0(%r3)
	addi %r3, %r3, 1
	addis %r4, %r2, .LC103@toc@ha
	ld %r4, .LC103@toc@l(%r4)
	std %r3, 0(%r4)
	li %r3, 0
	std %r3, 136(%r31)
	li %r3, 0
	stw %r3, 132(%r31)
.LBB49_1:                               # =>This Inner Loop Header: Depth=1
	ld %r3, 144(%r31)
	lbz %r3, 0(%r3)
	mr	%r4, %r2
	std %r4, 40(%r1)
	extsw %r3, %r3
	addis %r4, %r2, .LC98@toc@ha
	ld %r4, .LC98@toc@l(%r4)
	ld %r5, 8(%r4)
	ld %r11, 16(%r4)
	ld %r4, 0(%r4)
	mr	%r2, %r5
	mtctr %r4
	bctrl
	ld 2, 40(%r1)
                                        # kill: def $r3 killed $r3 killed $x3
	cmpwi	%r3, 0
	beq	%cr0, .LBB49_3
# %bb.2:                                #   in Loop: Header=BB49_1 Depth=1
	addis %r3, %r2, .LC104@toc@ha
	ld %r3, .LC104@toc@l(%r3)
	ld %r3, 0(%r3)
	addi %r3, %r3, 1
	addis %r4, %r2, .LC104@toc@ha
	ld %r4, .LC104@toc@l(%r4)
	std %r3, 0(%r4)
	addis %r3, %r2, .LC103@toc@ha
	ld %r3, .LC103@toc@l(%r3)
	ld %r3, 8(%r3)
	addi %r3, %r3, 1
	addis %r4, %r2, .LC103@toc@ha
	ld %r4, .LC103@toc@l(%r4)
	std %r3, 8(%r4)
	ld %r3, 144(%r31)
	addi %r3, %r3, 1
	std %r3, 144(%r31)
	b .LBB49_1
.LBB49_3:
	ld %r3, 144(%r31)
	lbz %r3, 0(%r3)
	stw %r3, 128(%r31)                      # 4-byte Folded Spill
	cmplwi	%r3, 43
	beq	%cr0, .LBB49_6
	b .LBB49_4
.LBB49_4:
	lwz %r3, 128(%r31)                      # 4-byte Folded Reload
	cmplwi	%r3, 45
	bne	%cr0, .LBB49_8
	b .LBB49_5
.LBB49_5:
	addis %r3, %r2, .LC104@toc@ha
	ld %r3, .LC104@toc@l(%r3)
	ld %r3, 8(%r3)
	addi %r3, %r3, 1
	addis %r4, %r2, .LC104@toc@ha
	ld %r4, .LC104@toc@l(%r4)
	std %r3, 8(%r4)
	addis %r3, %r2, .LC103@toc@ha
	ld %r3, .LC103@toc@l(%r3)
	ld %r3, 24(%r3)
	addi %r3, %r3, 1
	addis %r4, %r2, .LC103@toc@ha
	ld %r4, .LC103@toc@l(%r4)
	std %r3, 24(%r4)
	li %r3, 1
	stw %r3, 132(%r31)
	b .LBB49_7
.LBB49_6:
	addis %r3, %r2, .LC104@toc@ha
	ld %r3, .LC104@toc@l(%r3)
	ld %r3, 16(%r3)
	addi %r3, %r3, 1
	addis %r4, %r2, .LC104@toc@ha
	ld %r4, .LC104@toc@l(%r4)
	std %r3, 16(%r4)
	addis %r3, %r2, .LC103@toc@ha
	ld %r3, .LC103@toc@l(%r3)
	ld %r3, 32(%r3)
	addi %r3, %r3, 1
	addis %r4, %r2, .LC103@toc@ha
	ld %r4, .LC103@toc@l(%r4)
	std %r3, 32(%r4)
.LBB49_7:
	ld %r3, 144(%r31)
	addi %r3, %r3, 1
	std %r3, 144(%r31)
.LBB49_8:
	addis %r3, %r2, .LC103@toc@ha
	ld %r3, .LC103@toc@l(%r3)
	ld %r3, 16(%r3)
	addi %r3, %r3, 1
	addis %r4, %r2, .LC103@toc@ha
	ld %r4, .LC103@toc@l(%r4)
	std %r3, 16(%r4)
.LBB49_9:                               # =>This Inner Loop Header: Depth=1
	ld %r3, 144(%r31)
	lbz %r3, 0(%r3)
	mr	%r4, %r2
	std %r4, 40(%r1)
	extsw %r3, %r3
	addis %r4, %r2, .LC100@toc@ha
	ld %r4, .LC100@toc@l(%r4)
	ld %r5, 8(%r4)
	ld %r11, 16(%r4)
	ld %r4, 0(%r4)
	mr	%r2, %r5
	mtctr %r4
	bctrl
	ld 2, 40(%r1)
                                        # kill: def $r3 killed $r3 killed $x3
	cmpwi	%r3, 0
	beq	%cr0, .LBB49_11
# %bb.10:                               #   in Loop: Header=BB49_9 Depth=1
	addis %r3, %r2, .LC104@toc@ha
	ld %r4, .LC104@toc@l(%r3)
	ld %r3, 24(%r4)
	addi %r3, %r3, 1
	std %r3, 24(%r4)
	addis %r3, %r2, .LC103@toc@ha
	ld %r4, .LC103@toc@l(%r3)
	ld %r3, 40(%r4)
	addi %r3, %r3, 1
	std %r3, 40(%r4)
	ld %r3, 136(%r31)
	mulli %r4, %r3, 10
	ld %r3, 144(%r31)
	addi %r5, %r3, 1
	std %r5, 144(%r31)
	lbz %r3, 0(%r3)
	addi %r3, %r3, -48
	extsw %r3, %r3
	sub	%r3, %r4, %r3
	std %r3, 136(%r31)
	b .LBB49_9
.LBB49_11:
	lwz %r3, 132(%r31)
	cmpwi	%r3, 0
	beq	%cr0, .LBB49_13
# %bb.12:
	addis %r3, %r2, .LC104@toc@ha
	ld %r3, .LC104@toc@l(%r3)
	ld %r3, 32(%r3)
	addi %r3, %r3, 1
	addis %r4, %r2, .LC104@toc@ha
	ld %r4, .LC104@toc@l(%r4)
	std %r3, 32(%r4)
	addis %r3, %r2, .LC103@toc@ha
	ld %r3, .LC103@toc@l(%r3)
	ld %r3, 48(%r3)
	addi %r3, %r3, 1
	addis %r4, %r2, .LC103@toc@ha
	ld %r4, .LC103@toc@l(%r4)
	std %r3, 48(%r4)
	ld %r3, 136(%r31)
	std %r3, 120(%r31)                      # 8-byte Folded Spill
	b .LBB49_14
.LBB49_13:
	addis %r3, %r2, .LC104@toc@ha
	ld %r4, .LC104@toc@l(%r3)
	ld %r3, 40(%r4)
	addi %r3, %r3, 1
	std %r3, 40(%r4)
	ld %r3, 136(%r31)
	neg %r3, %r3
	std %r3, 120(%r31)                      # 8-byte Folded Spill
.LBB49_14:
	ld %r3, 120(%r31)                       # 8-byte Folded Reload
	addi %r1, %r1, 160
	ld %r0, 16(%r1)
	ld %r31, -8(%r1)
	mtlr %r0
	blr
	.long	0
	.quad	0
.Lfunc_end49:
	.size	atoll, .Lfunc_end49-.Lfunc_begin49
	.cfi_endproc
                                        # -- End function
	.globl	bsearch                         # -- Begin function bsearch
	.p2align	2
	.type	bsearch,@function
	.section	.opd,"aw",@progbits
bsearch:                                # @bsearch
	.p2align	3, 0x0
	.quad	.Lfunc_begin50
	.quad	.TOC.@tocbase
	.quad	0
	.text
.Lfunc_begin50:
	.cfi_startproc
# %bb.0:
	mflr %r0
	std %r31, -8(%r1)
	stdu %r1, -192(%r1)
	std %r0, 208(%r1)
	.cfi_def_cfa_offset 192
	.cfi_offset r31, -8
	.cfi_offset lr, 16
	mr	%r31, %r1
	.cfi_def_cfa_register r31
	std %r3, 168(%r31)
	std %r4, 160(%r31)
	std %r5, 152(%r31)
	std %r6, 144(%r31)
	std %r7, 136(%r31)
	addis %r3, %r2, .LC105@toc@ha
	ld %r3, .LC105@toc@l(%r3)
	ld %r3, 0(%r3)
	addi %r3, %r3, 1
	addis %r4, %r2, .LC105@toc@ha
	ld %r4, .LC105@toc@l(%r4)
	std %r3, 0(%r4)
.LBB50_1:                               # =>This Inner Loop Header: Depth=1
	ld %r3, 152(%r31)
	cmpldi	%r3, 0
	ble %cr0, .LBB50_9
# %bb.2:                                #   in Loop: Header=BB50_1 Depth=1
	addis %r3, %r2, .LC105@toc@ha
	ld %r4, .LC105@toc@l(%r3)
	ld %r3, 8(%r4)
	addi %r3, %r3, 1
	std %r3, 8(%r4)
	ld %r3, 160(%r31)
	ld %r4, 144(%r31)
	ld %r5, 152(%r31)
	rldicl %r5, %r5, 63, 1
	mulld %r4, %r4, %r5
	add %r3, %r3, %r4
	std %r3, 128(%r31)
	ld %r5, 136(%r31)
	ld %r3, 168(%r31)
	ld %r4, 128(%r31)
	mr	%r6, %r2
	std %r6, 40(%r1)
	ld %r6, 8(%r5)
	ld %r11, 16(%r5)
	ld %r5, 0(%r5)
	mr	%r2, %r6
	mtctr %r5
	bctrl
	ld 2, 40(%r1)
                                        # kill: def $r3 killed $r3 killed $x3
	stw %r3, 124(%r31)
	lwz %r3, 124(%r31)
	cmpwi	%r3, 0
	bge %cr0, .LBB50_4
# %bb.3:                                #   in Loop: Header=BB50_1 Depth=1
	addis %r3, %r2, .LC106@toc@ha
	ld %r4, .LC106@toc@l(%r3)
	ld %r3, 8(%r4)
	addi %r3, %r3, 1
	std %r3, 8(%r4)
	addis %r3, %r2, .LC105@toc@ha
	ld %r4, .LC105@toc@l(%r3)
	ld %r3, 16(%r4)
	addi %r3, %r3, 1
	std %r3, 16(%r4)
	ld %r3, 152(%r31)
	rldicl %r3, %r3, 63, 1
	std %r3, 152(%r31)
	b .LBB50_8
.LBB50_4:                               #   in Loop: Header=BB50_1 Depth=1
	lwz %r3, 124(%r31)
	cmpwi	%r3, 0
	ble %cr0, .LBB50_6
# %bb.5:                                #   in Loop: Header=BB50_1 Depth=1
	addis %r3, %r2, .LC105@toc@ha
	ld %r4, .LC105@toc@l(%r3)
	ld %r3, 24(%r4)
	addi %r3, %r3, 1
	std %r3, 24(%r4)
	ld %r3, 128(%r31)
	ld %r4, 144(%r31)
	add %r3, %r3, %r4
	std %r3, 160(%r31)
	ld %r4, 152(%r31)
	rldicl %r3, %r4, 63, 1
	addi %r3, %r3, 1
	sub	%r3, %r4, %r3
	std %r3, 152(%r31)
	b .LBB50_7
.LBB50_6:
	addis %r3, %r2, .LC106@toc@ha
	ld %r3, .LC106@toc@l(%r3)
	ld %r3, 16(%r3)
	addi %r3, %r3, 1
	addis %r4, %r2, .LC106@toc@ha
	ld %r4, .LC106@toc@l(%r4)
	std %r3, 16(%r4)
	ld %r3, 128(%r31)
	std %r3, 176(%r31)
	b .LBB50_10
.LBB50_7:                               #   in Loop: Header=BB50_1 Depth=1
	addis %r3, %r2, .LC106@toc@ha
	ld %r3, .LC106@toc@l(%r3)
	ld %r3, 24(%r3)
	addi %r3, %r3, 1
	addis %r4, %r2, .LC106@toc@ha
	ld %r4, .LC106@toc@l(%r4)
	std %r3, 24(%r4)
.LBB50_8:                               #   in Loop: Header=BB50_1 Depth=1
	b .LBB50_1
.LBB50_9:
	addis %r3, %r2, .LC106@toc@ha
	ld %r3, .LC106@toc@l(%r3)
	ld %r3, 0(%r3)
	addi %r3, %r3, 1
	addis %r4, %r2, .LC106@toc@ha
	ld %r4, .LC106@toc@l(%r4)
	std %r3, 0(%r4)
	li %r3, 0
	std %r3, 176(%r31)
.LBB50_10:
	ld %r3, 176(%r31)
	addi %r1, %r1, 192
	ld %r0, 16(%r1)
	ld %r31, -8(%r1)
	mtlr %r0
	blr
	.long	0
	.quad	0
.Lfunc_end50:
	.size	bsearch, .Lfunc_end50-.Lfunc_begin50
	.cfi_endproc
                                        # -- End function
	.globl	bsearch_r                       # -- Begin function bsearch_r
	.p2align	2
	.type	bsearch_r,@function
	.section	.opd,"aw",@progbits
bsearch_r:                              # @bsearch_r
	.p2align	3, 0x0
	.quad	.Lfunc_begin51
	.quad	.TOC.@tocbase
	.quad	0
	.text
.Lfunc_begin51:
	.cfi_startproc
# %bb.0:
	mflr %r0
	std %r31, -8(%r1)
	stdu %r1, -208(%r1)
	std %r0, 224(%r1)
	.cfi_def_cfa_offset 208
	.cfi_offset r31, -8
	.cfi_offset lr, 16
	mr	%r31, %r1
	.cfi_def_cfa_register r31
	std %r3, 184(%r31)
	std %r4, 176(%r31)
	std %r5, 168(%r31)
	std %r6, 160(%r31)
	std %r7, 152(%r31)
	std %r8, 144(%r31)
	addis %r3, %r2, .LC107@toc@ha
	ld %r3, .LC107@toc@l(%r3)
	ld %r3, 0(%r3)
	addi %r3, %r3, 1
	addis %r4, %r2, .LC107@toc@ha
	ld %r4, .LC107@toc@l(%r4)
	std %r3, 0(%r4)
	ld %r3, 176(%r31)
	std %r3, 136(%r31)
	ld %r3, 168(%r31)
                                        # kill: def $r3 killed $r3 killed $x3
	stw %r3, 132(%r31)
.LBB51_1:                               # =>This Inner Loop Header: Depth=1
	lwz %r3, 132(%r31)
	cmpwi	%r3, 0
	beq	%cr0, .LBB51_8
# %bb.2:                                #   in Loop: Header=BB51_1 Depth=1
	addis %r3, %r2, .LC107@toc@ha
	ld %r3, .LC107@toc@l(%r3)
	ld %r3, 8(%r3)
	addi %r3, %r3, 1
	addis %r4, %r2, .LC107@toc@ha
	ld %r4, .LC107@toc@l(%r4)
	std %r3, 8(%r4)
	ld %r3, 136(%r31)
	lwz %r4, 132(%r31)
	srawi %r4, %r4, 1
	extsw %r4, %r4
	ld %r5, 160(%r31)
	mulld %r4, %r4, %r5
	add %r3, %r3, %r4
	std %r3, 120(%r31)
	ld %r6, 152(%r31)
	ld %r3, 184(%r31)
	ld %r4, 120(%r31)
	ld %r5, 144(%r31)
	mr	%r7, %r2
	std %r7, 40(%r1)
	ld %r7, 8(%r6)
	ld %r11, 16(%r6)
	ld %r6, 0(%r6)
	mr	%r2, %r7
	mtctr %r6
	bctrl
	ld 2, 40(%r1)
                                        # kill: def $r3 killed $r3 killed $x3
	stw %r3, 128(%r31)
	lwz %r3, 128(%r31)
	cmpwi	%r3, 0
	bne	%cr0, .LBB51_4
# %bb.3:
	addis %r3, %r2, .LC108@toc@ha
	ld %r3, .LC108@toc@l(%r3)
	ld %r3, 0(%r3)
	addi %r3, %r3, 1
	addis %r4, %r2, .LC108@toc@ha
	ld %r4, .LC108@toc@l(%r4)
	std %r3, 0(%r4)
	addis %r3, %r2, .LC107@toc@ha
	ld %r3, .LC107@toc@l(%r3)
	ld %r3, 16(%r3)
	addi %r3, %r3, 1
	addis %r4, %r2, .LC107@toc@ha
	ld %r4, .LC107@toc@l(%r4)
	std %r3, 16(%r4)
	ld %r3, 120(%r31)
	std %r3, 192(%r31)
	b .LBB51_9
.LBB51_4:                               #   in Loop: Header=BB51_1 Depth=1
	lwz %r3, 128(%r31)
	cmpwi	%r3, 0
	ble %cr0, .LBB51_6
# %bb.5:                                #   in Loop: Header=BB51_1 Depth=1
	addis %r3, %r2, .LC108@toc@ha
	ld %r3, .LC108@toc@l(%r3)
	ld %r3, 8(%r3)
	addi %r3, %r3, 1
	addis %r4, %r2, .LC108@toc@ha
	ld %r4, .LC108@toc@l(%r4)
	std %r3, 8(%r4)
	addis %r3, %r2, .LC107@toc@ha
	ld %r3, .LC107@toc@l(%r3)
	ld %r3, 24(%r3)
	addi %r3, %r3, 1
	addis %r4, %r2, .LC107@toc@ha
	ld %r4, .LC107@toc@l(%r4)
	std %r3, 24(%r4)
	ld %r3, 120(%r31)
	ld %r4, 160(%r31)
	add %r3, %r3, %r4
	std %r3, 136(%r31)
	lwz %r3, 132(%r31)
	addi %r3, %r3, -1
	stw %r3, 132(%r31)
.LBB51_6:                               #   in Loop: Header=BB51_1 Depth=1
	b .LBB51_7
.LBB51_7:                               #   in Loop: Header=BB51_1 Depth=1
	addis %r3, %r2, .LC108@toc@ha
	ld %r3, .LC108@toc@l(%r3)
	ld %r3, 16(%r3)
	addi %r3, %r3, 1
	addis %r4, %r2, .LC108@toc@ha
	ld %r4, .LC108@toc@l(%r4)
	std %r3, 16(%r4)
	lwz %r3, 132(%r31)
	srawi %r3, %r3, 1
	stw %r3, 132(%r31)
	b .LBB51_1
.LBB51_8:
	addis %r3, %r2, .LC108@toc@ha
	ld %r3, .LC108@toc@l(%r3)
	ld %r3, 24(%r3)
	addi %r3, %r3, 1
	addis %r4, %r2, .LC108@toc@ha
	ld %r4, .LC108@toc@l(%r4)
	std %r3, 24(%r4)
	li %r3, 0
	std %r3, 192(%r31)
.LBB51_9:
	ld %r3, 192(%r31)
	addi %r1, %r1, 208
	ld %r0, 16(%r1)
	ld %r31, -8(%r1)
	mtlr %r0
	blr
	.long	0
	.quad	0
.Lfunc_end51:
	.size	bsearch_r, .Lfunc_end51-.Lfunc_begin51
	.cfi_endproc
                                        # -- End function
	.globl	div                             # -- Begin function div
	.p2align	2
	.type	div,@function
	.section	.opd,"aw",@progbits
div:                                    # @div
	.p2align	3, 0x0
	.quad	.Lfunc_begin52
	.quad	.TOC.@tocbase
	.quad	0
	.text
.Lfunc_begin52:
	.cfi_startproc
# %bb.0:
	std %r5, -24(%r1)                       # 8-byte Folded Spill
	mr	%r5, %r4
	mr	%r4, %r3
	ld %r3, -24(%r1)                        # 8-byte Folded Reload
                                        # kill: def $r3 killed $r3 killed $x3
                                        # kill: def $r5 killed $r5 killed $x5
	addis %r6, %r2, .LC109@toc@ha
	ld %r7, .LC109@toc@l(%r6)
	ld %r6, 0(%r7)
	addi %r6, %r6, 1
	std %r6, 0(%r7)
	stw %r5, -12(%r1)
	stw %r3, -16(%r1)
	addis %r3, %r2, .LC110@toc@ha
	ld %r5, .LC110@toc@l(%r3)
	ld %r3, 0(%r5)
	addi %r3, %r3, 1
	std %r3, 0(%r5)
	lwz %r3, -12(%r1)
	lwz %r5, -16(%r1)
	divw %r3, %r3, %r5
	stw %r3, 0(%r4)
	lwz %r5, -12(%r1)
	lwz %r6, -16(%r1)
	divw %r3, %r5, %r6
	mullw %r3, %r3, %r6
	sub	%r3, %r5, %r3
	stw %r3, 4(%r4)
	blr
	.long	0
	.quad	0
.Lfunc_end52:
	.size	div, .Lfunc_end52-.Lfunc_begin52
	.cfi_endproc
                                        # -- End function
	.globl	imaxabs                         # -- Begin function imaxabs
	.p2align	2
	.type	imaxabs,@function
	.section	.opd,"aw",@progbits
imaxabs:                                # @imaxabs
	.p2align	3, 0x0
	.quad	.Lfunc_begin53
	.quad	.TOC.@tocbase
	.quad	0
	.text
.Lfunc_begin53:
	.cfi_startproc
# %bb.0:
	std %r3, -16(%r1)
	addis %r3, %r2, .LC111@toc@ha
	ld %r3, .LC111@toc@l(%r3)
	ld %r3, 0(%r3)
	addi %r3, %r3, 1
	addis %r4, %r2, .LC111@toc@ha
	ld %r4, .LC111@toc@l(%r4)
	std %r3, 0(%r4)
	ld %r3, -16(%r1)
	cmpdi	%r3, 0
	ble %cr0, .LBB53_2
# %bb.1:
	addis %r3, %r2, .LC112@toc@ha
	ld %r3, .LC112@toc@l(%r3)
	ld %r3, 0(%r3)
	addi %r3, %r3, 1
	addis %r4, %r2, .LC112@toc@ha
	ld %r4, .LC112@toc@l(%r4)
	std %r3, 0(%r4)
	addis %r3, %r2, .LC111@toc@ha
	ld %r3, .LC111@toc@l(%r3)
	ld %r3, 8(%r3)
	addi %r3, %r3, 1
	addis %r4, %r2, .LC111@toc@ha
	ld %r4, .LC111@toc@l(%r4)
	std %r3, 8(%r4)
	ld %r3, -16(%r1)
	std %r3, -24(%r1)                       # 8-byte Folded Spill
	b .LBB53_3
.LBB53_2:
	addis %r3, %r2, .LC112@toc@ha
	ld %r4, .LC112@toc@l(%r3)
	ld %r3, 8(%r4)
	addi %r3, %r3, 1
	std %r3, 8(%r4)
	ld %r3, -16(%r1)
	neg %r3, %r3
	std %r3, -24(%r1)                       # 8-byte Folded Spill
.LBB53_3:
	ld %r3, -24(%r1)                        # 8-byte Folded Reload
	blr
	.long	0
	.quad	0
.Lfunc_end53:
	.size	imaxabs, .Lfunc_end53-.Lfunc_begin53
	.cfi_endproc
                                        # -- End function
	.globl	imaxdiv                         # -- Begin function imaxdiv
	.p2align	2
	.type	imaxdiv,@function
	.section	.opd,"aw",@progbits
imaxdiv:                                # @imaxdiv
	.p2align	3, 0x0
	.quad	.Lfunc_begin54
	.quad	.TOC.@tocbase
	.quad	0
	.text
.Lfunc_begin54:
	.cfi_startproc
# %bb.0:
	std %r4, -32(%r1)                       # 8-byte Folded Spill
	mr	%r4, %r3
	ld %r3, -32(%r1)                        # 8-byte Folded Reload
	addis %r6, %r2, .LC113@toc@ha
	ld %r7, .LC113@toc@l(%r6)
	ld %r6, 0(%r7)
	addi %r6, %r6, 1
	std %r6, 0(%r7)
	std %r3, -16(%r1)
	std %r5, -24(%r1)
	addis %r3, %r2, .LC114@toc@ha
	ld %r5, .LC114@toc@l(%r3)
	ld %r3, 0(%r5)
	addi %r3, %r3, 1
	std %r3, 0(%r5)
	ld %r3, -16(%r1)
	ld %r5, -24(%r1)
	divd %r3, %r3, %r5
	std %r3, 0(%r4)
	ld %r5, -16(%r1)
	ld %r6, -24(%r1)
	divd %r3, %r5, %r6
	mulld %r3, %r3, %r6
	sub	%r3, %r5, %r3
	std %r3, 8(%r4)
	blr
	.long	0
	.quad	0
.Lfunc_end54:
	.size	imaxdiv, .Lfunc_end54-.Lfunc_begin54
	.cfi_endproc
                                        # -- End function
	.globl	labs                            # -- Begin function labs
	.p2align	2
	.type	labs,@function
	.section	.opd,"aw",@progbits
labs:                                   # @labs
	.p2align	3, 0x0
	.quad	.Lfunc_begin55
	.quad	.TOC.@tocbase
	.quad	0
	.text
.Lfunc_begin55:
	.cfi_startproc
# %bb.0:
	std %r3, -16(%r1)
	addis %r3, %r2, .LC115@toc@ha
	ld %r3, .LC115@toc@l(%r3)
	ld %r3, 0(%r3)
	addi %r3, %r3, 1
	addis %r4, %r2, .LC115@toc@ha
	ld %r4, .LC115@toc@l(%r4)
	std %r3, 0(%r4)
	ld %r3, -16(%r1)
	cmpdi	%r3, 0
	ble %cr0, .LBB55_2
# %bb.1:
	addis %r3, %r2, .LC116@toc@ha
	ld %r3, .LC116@toc@l(%r3)
	ld %r3, 0(%r3)
	addi %r3, %r3, 1
	addis %r4, %r2, .LC116@toc@ha
	ld %r4, .LC116@toc@l(%r4)
	std %r3, 0(%r4)
	addis %r3, %r2, .LC115@toc@ha
	ld %r3, .LC115@toc@l(%r3)
	ld %r3, 8(%r3)
	addi %r3, %r3, 1
	addis %r4, %r2, .LC115@toc@ha
	ld %r4, .LC115@toc@l(%r4)
	std %r3, 8(%r4)
	ld %r3, -16(%r1)
	std %r3, -24(%r1)                       # 8-byte Folded Spill
	b .LBB55_3
.LBB55_2:
	addis %r3, %r2, .LC116@toc@ha
	ld %r4, .LC116@toc@l(%r3)
	ld %r3, 8(%r4)
	addi %r3, %r3, 1
	std %r3, 8(%r4)
	ld %r3, -16(%r1)
	neg %r3, %r3
	std %r3, -24(%r1)                       # 8-byte Folded Spill
.LBB55_3:
	ld %r3, -24(%r1)                        # 8-byte Folded Reload
	blr
	.long	0
	.quad	0
.Lfunc_end55:
	.size	labs, .Lfunc_end55-.Lfunc_begin55
	.cfi_endproc
                                        # -- End function
	.globl	ldiv                            # -- Begin function ldiv
	.p2align	2
	.type	ldiv,@function
	.section	.opd,"aw",@progbits
ldiv:                                   # @ldiv
	.p2align	3, 0x0
	.quad	.Lfunc_begin56
	.quad	.TOC.@tocbase
	.quad	0
	.text
.Lfunc_begin56:
	.cfi_startproc
# %bb.0:
	std %r4, -32(%r1)                       # 8-byte Folded Spill
	mr	%r4, %r3
	ld %r3, -32(%r1)                        # 8-byte Folded Reload
	addis %r6, %r2, .LC117@toc@ha
	ld %r7, .LC117@toc@l(%r6)
	ld %r6, 0(%r7)
	addi %r6, %r6, 1
	std %r6, 0(%r7)
	std %r3, -16(%r1)
	std %r5, -24(%r1)
	addis %r3, %r2, .LC118@toc@ha
	ld %r5, .LC118@toc@l(%r3)
	ld %r3, 0(%r5)
	addi %r3, %r3, 1
	std %r3, 0(%r5)
	ld %r3, -16(%r1)
	ld %r5, -24(%r1)
	divd %r3, %r3, %r5
	std %r3, 0(%r4)
	ld %r5, -16(%r1)
	ld %r6, -24(%r1)
	divd %r3, %r5, %r6
	mulld %r3, %r3, %r6
	sub	%r3, %r5, %r3
	std %r3, 8(%r4)
	blr
	.long	0
	.quad	0
.Lfunc_end56:
	.size	ldiv, .Lfunc_end56-.Lfunc_begin56
	.cfi_endproc
                                        # -- End function
	.globl	llabs                           # -- Begin function llabs
	.p2align	2
	.type	llabs,@function
	.section	.opd,"aw",@progbits
llabs:                                  # @llabs
	.p2align	3, 0x0
	.quad	.Lfunc_begin57
	.quad	.TOC.@tocbase
	.quad	0
	.text
.Lfunc_begin57:
	.cfi_startproc
# %bb.0:
	std %r3, -16(%r1)
	addis %r3, %r2, .LC119@toc@ha
	ld %r3, .LC119@toc@l(%r3)
	ld %r3, 0(%r3)
	addi %r3, %r3, 1
	addis %r4, %r2, .LC119@toc@ha
	ld %r4, .LC119@toc@l(%r4)
	std %r3, 0(%r4)
	ld %r3, -16(%r1)
	cmpdi	%r3, 0
	ble %cr0, .LBB57_2
# %bb.1:
	addis %r3, %r2, .LC120@toc@ha
	ld %r3, .LC120@toc@l(%r3)
	ld %r3, 0(%r3)
	addi %r3, %r3, 1
	addis %r4, %r2, .LC120@toc@ha
	ld %r4, .LC120@toc@l(%r4)
	std %r3, 0(%r4)
	addis %r3, %r2, .LC119@toc@ha
	ld %r3, .LC119@toc@l(%r3)
	ld %r3, 8(%r3)
	addi %r3, %r3, 1
	addis %r4, %r2, .LC119@toc@ha
	ld %r4, .LC119@toc@l(%r4)
	std %r3, 8(%r4)
	ld %r3, -16(%r1)
	std %r3, -24(%r1)                       # 8-byte Folded Spill
	b .LBB57_3
.LBB57_2:
	addis %r3, %r2, .LC120@toc@ha
	ld %r4, .LC120@toc@l(%r3)
	ld %r3, 8(%r4)
	addi %r3, %r3, 1
	std %r3, 8(%r4)
	ld %r3, -16(%r1)
	neg %r3, %r3
	std %r3, -24(%r1)                       # 8-byte Folded Spill
.LBB57_3:
	ld %r3, -24(%r1)                        # 8-byte Folded Reload
	blr
	.long	0
	.quad	0
.Lfunc_end57:
	.size	llabs, .Lfunc_end57-.Lfunc_begin57
	.cfi_endproc
                                        # -- End function
	.globl	lldiv                           # -- Begin function lldiv
	.p2align	2
	.type	lldiv,@function
	.section	.opd,"aw",@progbits
lldiv:                                  # @lldiv
	.p2align	3, 0x0
	.quad	.Lfunc_begin58
	.quad	.TOC.@tocbase
	.quad	0
	.text
.Lfunc_begin58:
	.cfi_startproc
# %bb.0:
	std %r4, -32(%r1)                       # 8-byte Folded Spill
	mr	%r4, %r3
	ld %r3, -32(%r1)                        # 8-byte Folded Reload
	addis %r6, %r2, .LC121@toc@ha
	ld %r7, .LC121@toc@l(%r6)
	ld %r6, 0(%r7)
	addi %r6, %r6, 1
	std %r6, 0(%r7)
	std %r3, -16(%r1)
	std %r5, -24(%r1)
	addis %r3, %r2, .LC122@toc@ha
	ld %r5, .LC122@toc@l(%r3)
	ld %r3, 0(%r5)
	addi %r3, %r3, 1
	std %r3, 0(%r5)
	ld %r3, -16(%r1)
	ld %r5, -24(%r1)
	divd %r3, %r3, %r5
	std %r3, 0(%r4)
	ld %r5, -16(%r1)
	ld %r6, -24(%r1)
	divd %r3, %r5, %r6
	mulld %r3, %r3, %r6
	sub	%r3, %r5, %r3
	std %r3, 8(%r4)
	blr
	.long	0
	.quad	0
.Lfunc_end58:
	.size	lldiv, .Lfunc_end58-.Lfunc_begin58
	.cfi_endproc
                                        # -- End function
	.globl	wcschr                          # -- Begin function wcschr
	.p2align	2
	.type	wcschr,@function
	.section	.opd,"aw",@progbits
wcschr:                                 # @wcschr
	.p2align	3, 0x0
	.quad	.Lfunc_begin59
	.quad	.TOC.@tocbase
	.quad	0
	.text
.Lfunc_begin59:
	.cfi_startproc
# %bb.0:
	std %r4, -32(%r1)                       # 8-byte Folded Spill
	mr	%r4, %r3
	ld %r3, -32(%r1)                        # 8-byte Folded Reload
                                        # kill: def $r3 killed $r3 killed $x3
	std %r4, -16(%r1)
	stw %r3, -20(%r1)
	addis %r3, %r2, .LC123@toc@ha
	ld %r3, .LC123@toc@l(%r3)
	ld %r3, 0(%r3)
	addi %r3, %r3, 1
	addis %r4, %r2, .LC123@toc@ha
	ld %r4, .LC123@toc@l(%r4)
	std %r3, 0(%r4)
.LBB59_1:                               # =>This Inner Loop Header: Depth=1
	ld %r3, -16(%r1)
	lwz %r4, 0(%r3)
	li %r3, 0
	cmpwi	%r4, 0
	stw %r3, -36(%r1)                       # 4-byte Folded Spill
	beq	%cr0, .LBB59_6
# %bb.2:                                #   in Loop: Header=BB59_1 Depth=1
	addis %r3, %r2, .LC124@toc@ha
	ld %r4, .LC124@toc@l(%r3)
	ld %r3, 0(%r4)
	addi %r3, %r3, 1
	std %r3, 0(%r4)
	addis %r3, %r2, .LC123@toc@ha
	ld %r4, .LC123@toc@l(%r3)
	ld %r3, 16(%r4)
	addi %r3, %r3, 1
	std %r3, 16(%r4)
	ld %r3, -16(%r1)
	lwz %r3, 0(%r3)
	stw %r3, -52(%r1)                       # 4-byte Folded Spill
	lwz %r4, -20(%r1)
	stw %r4, -48(%r1)                       # 4-byte Folded Spill
	xor %r3, %r3, %r4
	cmplwi	%r3, 0
	li %r3, 0
	stw %r3, -44(%r1)                       # 4-byte Folded Spill
	li %r3, 1
	stw %r3, -40(%r1)                       # 4-byte Folded Spill
	bne	%cr0, .LBB59_4
# %bb.3:                                #   in Loop: Header=BB59_1 Depth=1
	lwz %r3, -44(%r1)                       # 4-byte Folded Reload
	stw %r3, -40(%r1)                       # 4-byte Folded Spill
.LBB59_4:                               #   in Loop: Header=BB59_1 Depth=1
	lwz %r4, -52(%r1)                       # 4-byte Folded Reload
	lwz %r5, -48(%r1)                       # 4-byte Folded Reload
	lwz %r3, -40(%r1)                       # 4-byte Folded Reload
	stw %r3, -56(%r1)                       # 4-byte Folded Spill
	cmpw	%r4, %r5
	stw %r3, -36(%r1)                       # 4-byte Folded Spill
	beq	%cr0, .LBB59_6
# %bb.5:                                #   in Loop: Header=BB59_1 Depth=1
	lwz %r3, -56(%r1)                       # 4-byte Folded Reload
	addis %r4, %r2, .LC124@toc@ha
	ld %r4, .LC124@toc@l(%r4)
	ld %r4, 8(%r4)
	addi %r4, %r4, 1
	addis %r5, %r2, .LC124@toc@ha
	ld %r5, .LC124@toc@l(%r5)
	std %r4, 8(%r5)
	addis %r4, %r2, .LC123@toc@ha
	ld %r4, .LC123@toc@l(%r4)
	ld %r4, 24(%r4)
	addi %r4, %r4, 1
	addis %r5, %r2, .LC123@toc@ha
	ld %r5, .LC123@toc@l(%r5)
	std %r4, 24(%r5)
	stw %r3, -36(%r1)                       # 4-byte Folded Spill
.LBB59_6:                               #   in Loop: Header=BB59_1 Depth=1
	lwz %r3, -36(%r1)                       # 4-byte Folded Reload
	clrlwi	%r3, %r3, 31
	cmplwi	%r3, 0
	beq	%cr0, .LBB59_9
	b .LBB59_7
.LBB59_7:                               #   in Loop: Header=BB59_1 Depth=1
	addis %r3, %r2, .LC123@toc@ha
	ld %r3, .LC123@toc@l(%r3)
	ld %r3, 8(%r3)
	addi %r3, %r3, 1
	addis %r4, %r2, .LC123@toc@ha
	ld %r4, .LC123@toc@l(%r4)
	std %r3, 8(%r4)
# %bb.8:                                #   in Loop: Header=BB59_1 Depth=1
	addis %r3, %r2, .LC124@toc@ha
	ld %r3, .LC124@toc@l(%r3)
	ld %r3, 16(%r3)
	addi %r3, %r3, 1
	addis %r4, %r2, .LC124@toc@ha
	ld %r4, .LC124@toc@l(%r4)
	std %r3, 16(%r4)
	ld %r3, -16(%r1)
	addi %r3, %r3, 4
	std %r3, -16(%r1)
	b .LBB59_1
.LBB59_9:
	ld %r3, -16(%r1)
	lwz %r3, 0(%r3)
	cmpwi	%r3, 0
	beq	%cr0, .LBB59_11
# %bb.10:
	addis %r3, %r2, .LC124@toc@ha
	ld %r3, .LC124@toc@l(%r3)
	ld %r3, 24(%r3)
	addi %r3, %r3, 1
	addis %r4, %r2, .LC124@toc@ha
	ld %r4, .LC124@toc@l(%r4)
	std %r3, 24(%r4)
	addis %r3, %r2, .LC123@toc@ha
	ld %r3, .LC123@toc@l(%r3)
	ld %r3, 32(%r3)
	addi %r3, %r3, 1
	addis %r4, %r2, .LC123@toc@ha
	ld %r4, .LC123@toc@l(%r4)
	std %r3, 32(%r4)
	ld %r3, -16(%r1)
	std %r3, -64(%r1)                       # 8-byte Folded Spill
	b .LBB59_12
.LBB59_11:
	addis %r3, %r2, .LC124@toc@ha
	ld %r3, .LC124@toc@l(%r3)
	ld %r3, 32(%r3)
	addi %r3, %r3, 1
	addis %r4, %r2, .LC124@toc@ha
	ld %r4, .LC124@toc@l(%r4)
	std %r3, 32(%r4)
	li %r3, 0
	std %r3, -64(%r1)                       # 8-byte Folded Spill
.LBB59_12:
	ld %r3, -64(%r1)                        # 8-byte Folded Reload
	blr
	.long	0
	.quad	0
.Lfunc_end59:
	.size	wcschr, .Lfunc_end59-.Lfunc_begin59
	.cfi_endproc
                                        # -- End function
	.globl	wcscmp                          # -- Begin function wcscmp
	.p2align	2
	.type	wcscmp,@function
	.section	.opd,"aw",@progbits
wcscmp:                                 # @wcscmp
	.p2align	3, 0x0
	.quad	.Lfunc_begin60
	.quad	.TOC.@tocbase
	.quad	0
	.text
.Lfunc_begin60:
	.cfi_startproc
# %bb.0:
	std %r3, -16(%r1)
	std %r4, -24(%r1)
	addis %r3, %r2, .LC125@toc@ha
	ld %r3, .LC125@toc@l(%r3)
	ld %r3, 0(%r3)
	addi %r3, %r3, 1
	addis %r4, %r2, .LC125@toc@ha
	ld %r4, .LC125@toc@l(%r4)
	std %r3, 0(%r4)
.LBB60_1:                               # =>This Inner Loop Header: Depth=1
	ld %r3, -16(%r1)
	lwz %r4, 0(%r3)
	ld %r3, -24(%r1)
	lwz %r5, 0(%r3)
	li %r3, 0
	cmpw	%r4, %r5
	stw %r3, -28(%r1)                       # 4-byte Folded Spill
	bne	%cr0, .LBB60_8
# %bb.2:                                #   in Loop: Header=BB60_1 Depth=1
	addis %r3, %r2, .LC126@toc@ha
	ld %r3, .LC126@toc@l(%r3)
	ld %r3, 0(%r3)
	addi %r3, %r3, 1
	addis %r4, %r2, .LC126@toc@ha
	ld %r4, .LC126@toc@l(%r4)
	std %r3, 0(%r4)
	addis %r3, %r2, .LC125@toc@ha
	ld %r3, .LC125@toc@l(%r3)
	ld %r3, 32(%r3)
	addi %r3, %r3, 1
	addis %r4, %r2, .LC125@toc@ha
	ld %r4, .LC125@toc@l(%r4)
	std %r3, 32(%r4)
	ld %r3, -16(%r1)
	lwz %r4, 0(%r3)
	li %r3, 0
	cmpwi	%r4, 0
	stw %r3, -28(%r1)                       # 4-byte Folded Spill
	beq	%cr0, .LBB60_8
# %bb.3:                                #   in Loop: Header=BB60_1 Depth=1
	addis %r3, %r2, .LC126@toc@ha
	ld %r3, .LC126@toc@l(%r3)
	ld %r3, 8(%r3)
	addi %r3, %r3, 1
	addis %r4, %r2, .LC126@toc@ha
	ld %r4, .LC126@toc@l(%r4)
	std %r3, 8(%r4)
	addis %r3, %r2, .LC125@toc@ha
	ld %r3, .LC125@toc@l(%r3)
	ld %r3, 40(%r3)
	addi %r3, %r3, 1
	addis %r4, %r2, .LC125@toc@ha
	ld %r4, .LC125@toc@l(%r4)
	std %r3, 40(%r4)
# %bb.4:                                #   in Loop: Header=BB60_1 Depth=1
	addis %r3, %r2, .LC125@toc@ha
	ld %r4, .LC125@toc@l(%r3)
	ld %r3, 16(%r4)
	addi %r3, %r3, 1
	std %r3, 16(%r4)
	ld %r3, -24(%r1)
	lwz %r3, 0(%r3)
	stw %r3, -40(%r1)                       # 4-byte Folded Spill
	cmplwi	%r3, 0
	li %r3, 0
	stw %r3, -36(%r1)                       # 4-byte Folded Spill
	li %r3, 1
	stw %r3, -32(%r1)                       # 4-byte Folded Spill
	bne	%cr0, .LBB60_6
# %bb.5:                                #   in Loop: Header=BB60_1 Depth=1
	lwz %r3, -36(%r1)                       # 4-byte Folded Reload
	stw %r3, -32(%r1)                       # 4-byte Folded Spill
.LBB60_6:                               #   in Loop: Header=BB60_1 Depth=1
	lwz %r4, -40(%r1)                       # 4-byte Folded Reload
	lwz %r3, -32(%r1)                       # 4-byte Folded Reload
	stw %r3, -44(%r1)                       # 4-byte Folded Spill
	cmpwi	%r4, 0
	stw %r3, -28(%r1)                       # 4-byte Folded Spill
	beq	%cr0, .LBB60_8
# %bb.7:                                #   in Loop: Header=BB60_1 Depth=1
	lwz %r3, -44(%r1)                       # 4-byte Folded Reload
	addis %r4, %r2, .LC126@toc@ha
	ld %r4, .LC126@toc@l(%r4)
	ld %r4, 16(%r4)
	addi %r4, %r4, 1
	addis %r5, %r2, .LC126@toc@ha
	ld %r5, .LC126@toc@l(%r5)
	std %r4, 16(%r5)
	addis %r4, %r2, .LC125@toc@ha
	ld %r4, .LC125@toc@l(%r4)
	ld %r4, 24(%r4)
	addi %r4, %r4, 1
	addis %r5, %r2, .LC125@toc@ha
	ld %r5, .LC125@toc@l(%r5)
	std %r4, 24(%r5)
	stw %r3, -28(%r1)                       # 4-byte Folded Spill
.LBB60_8:                               #   in Loop: Header=BB60_1 Depth=1
	lwz %r3, -28(%r1)                       # 4-byte Folded Reload
	clrlwi	%r3, %r3, 31
	cmplwi	%r3, 0
	beq	%cr0, .LBB60_11
	b .LBB60_9
.LBB60_9:                               #   in Loop: Header=BB60_1 Depth=1
	addis %r3, %r2, .LC125@toc@ha
	ld %r3, .LC125@toc@l(%r3)
	ld %r3, 8(%r3)
	addi %r3, %r3, 1
	addis %r4, %r2, .LC125@toc@ha
	ld %r4, .LC125@toc@l(%r4)
	std %r3, 8(%r4)
# %bb.10:                               #   in Loop: Header=BB60_1 Depth=1
	addis %r3, %r2, .LC126@toc@ha
	ld %r3, .LC126@toc@l(%r3)
	ld %r3, 24(%r3)
	addi %r3, %r3, 1
	addis %r4, %r2, .LC126@toc@ha
	ld %r4, .LC126@toc@l(%r4)
	std %r3, 24(%r4)
	ld %r3, -16(%r1)
	addi %r3, %r3, 4
	std %r3, -16(%r1)
	ld %r3, -24(%r1)
	addi %r3, %r3, 4
	std %r3, -24(%r1)
	b .LBB60_1
.LBB60_11:
	ld %r3, -16(%r1)
	lwz %r3, 0(%r3)
	ld %r4, -24(%r1)
	lwz %r4, 0(%r4)
	cmpw	%r3, %r4
	bge %cr0, .LBB60_13
# %bb.12:
	addis %r3, %r2, .LC126@toc@ha
	ld %r3, .LC126@toc@l(%r3)
	ld %r3, 32(%r3)
	addi %r3, %r3, 1
	addis %r4, %r2, .LC126@toc@ha
	ld %r4, .LC126@toc@l(%r4)
	std %r3, 32(%r4)
	addis %r3, %r2, .LC125@toc@ha
	ld %r3, .LC125@toc@l(%r3)
	ld %r3, 48(%r3)
	addi %r3, %r3, 1
	addis %r4, %r2, .LC125@toc@ha
	ld %r4, .LC125@toc@l(%r4)
	std %r3, 48(%r4)
	lis %r3, -1
	ori %r3, %r3, 65535
	stw %r3, -48(%r1)                       # 4-byte Folded Spill
	b .LBB60_16
.LBB60_13:
	addis %r3, %r2, .LC126@toc@ha
	ld %r4, .LC126@toc@l(%r3)
	ld %r3, 40(%r4)
	addi %r3, %r3, 1
	std %r3, 40(%r4)
	ld %r3, -16(%r1)
	lwz %r3, 0(%r3)
	ld %r4, -24(%r1)
	lwz %r4, 0(%r4)
	cmpw	%r3, %r4
	li %r3, 0
	stw %r3, -56(%r1)                       # 4-byte Folded Spill
	li %r3, 1
	stw %r3, -52(%r1)                       # 4-byte Folded Spill
	bgt	%cr0, .LBB60_15
# %bb.14:
	lwz %r3, -56(%r1)                       # 4-byte Folded Reload
	stw %r3, -52(%r1)                       # 4-byte Folded Spill
.LBB60_15:
	lwz %r3, -52(%r1)                       # 4-byte Folded Reload
	stw %r3, -48(%r1)                       # 4-byte Folded Spill
.LBB60_16:
	lwz %r3, -48(%r1)                       # 4-byte Folded Reload
	extsw %r3, %r3
	blr
	.long	0
	.quad	0
.Lfunc_end60:
	.size	wcscmp, .Lfunc_end60-.Lfunc_begin60
	.cfi_endproc
                                        # -- End function
	.globl	wcscpy                          # -- Begin function wcscpy
	.p2align	2
	.type	wcscpy,@function
	.section	.opd,"aw",@progbits
wcscpy:                                 # @wcscpy
	.p2align	3, 0x0
	.quad	.Lfunc_begin61
	.quad	.TOC.@tocbase
	.quad	0
	.text
.Lfunc_begin61:
	.cfi_startproc
# %bb.0:
	addis %r5, %r2, .LC127@toc@ha
	ld %r5, .LC127@toc@l(%r5)
	ld %r5, 0(%r5)
	addi %r5, %r5, 1
	addis %r6, %r2, .LC127@toc@ha
	ld %r6, .LC127@toc@l(%r6)
	std %r5, 0(%r6)
	std %r3, -16(%r1)
	std %r4, -24(%r1)
	addis %r3, %r2, .LC128@toc@ha
	ld %r3, .LC128@toc@l(%r3)
	ld %r3, 0(%r3)
	addi %r3, %r3, 1
	addis %r4, %r2, .LC128@toc@ha
	ld %r4, .LC128@toc@l(%r4)
	std %r3, 0(%r4)
	ld %r3, -16(%r1)
	std %r3, -32(%r1)
.LBB61_1:                               # =>This Inner Loop Header: Depth=1
	ld %r3, -24(%r1)
	addi %r4, %r3, 4
	std %r4, -24(%r1)
	lwz %r3, 0(%r3)
	ld %r4, -16(%r1)
	addi %r5, %r4, 4
	std %r5, -16(%r1)
	stw %r3, 0(%r4)
	cmpwi	%r3, 0
	beq	%cr0, .LBB61_3
# %bb.2:                                #   in Loop: Header=BB61_1 Depth=1
	addis %r3, %r2, .LC127@toc@ha
	ld %r3, .LC127@toc@l(%r3)
	ld %r3, 8(%r3)
	addi %r3, %r3, 1
	addis %r4, %r2, .LC127@toc@ha
	ld %r4, .LC127@toc@l(%r4)
	std %r3, 8(%r4)
	addis %r3, %r2, .LC128@toc@ha
	ld %r3, .LC128@toc@l(%r3)
	ld %r3, 8(%r3)
	addi %r3, %r3, 1
	addis %r4, %r2, .LC128@toc@ha
	ld %r4, .LC128@toc@l(%r4)
	std %r3, 8(%r4)
	b .LBB61_1
.LBB61_3:
	ld %r3, -32(%r1)
	blr
	.long	0
	.quad	0
.Lfunc_end61:
	.size	wcscpy, .Lfunc_end61-.Lfunc_begin61
	.cfi_endproc
                                        # -- End function
	.globl	wcslen                          # -- Begin function wcslen
	.p2align	2
	.type	wcslen,@function
	.section	.opd,"aw",@progbits
wcslen:                                 # @wcslen
	.p2align	3, 0x0
	.quad	.Lfunc_begin62
	.quad	.TOC.@tocbase
	.quad	0
	.text
.Lfunc_begin62:
	.cfi_startproc
# %bb.0:
	addis %r4, %r2, .LC129@toc@ha
	ld %r4, .LC129@toc@l(%r4)
	ld %r4, 0(%r4)
	addi %r4, %r4, 1
	addis %r5, %r2, .LC129@toc@ha
	ld %r5, .LC129@toc@l(%r5)
	std %r4, 0(%r5)
	std %r3, -16(%r1)
	addis %r3, %r2, .LC130@toc@ha
	ld %r3, .LC130@toc@l(%r3)
	ld %r3, 0(%r3)
	addi %r3, %r3, 1
	addis %r4, %r2, .LC130@toc@ha
	ld %r4, .LC130@toc@l(%r4)
	std %r3, 0(%r4)
	ld %r3, -16(%r1)
	std %r3, -24(%r1)
.LBB62_1:                               # =>This Inner Loop Header: Depth=1
	ld %r3, -16(%r1)
	lwz %r3, 0(%r3)
	cmpwi	%r3, 0
	beq	%cr0, .LBB62_4
# %bb.2:                                #   in Loop: Header=BB62_1 Depth=1
	addis %r3, %r2, .LC130@toc@ha
	ld %r3, .LC130@toc@l(%r3)
	ld %r3, 8(%r3)
	addi %r3, %r3, 1
	addis %r4, %r2, .LC130@toc@ha
	ld %r4, .LC130@toc@l(%r4)
	std %r3, 8(%r4)
# %bb.3:                                #   in Loop: Header=BB62_1 Depth=1
	addis %r3, %r2, .LC129@toc@ha
	ld %r3, .LC129@toc@l(%r3)
	ld %r3, 8(%r3)
	addi %r3, %r3, 1
	addis %r4, %r2, .LC129@toc@ha
	ld %r4, .LC129@toc@l(%r4)
	std %r3, 8(%r4)
	ld %r3, -16(%r1)
	addi %r3, %r3, 4
	std %r3, -16(%r1)
	b .LBB62_1
.LBB62_4:
	ld %r4, -16(%r1)
	ld %r3, -24(%r1)
	sub	%r3, %r4, %r3
	sradi %r3, %r3, 2
	blr
	.long	0
	.quad	0
.Lfunc_end62:
	.size	wcslen, .Lfunc_end62-.Lfunc_begin62
	.cfi_endproc
                                        # -- End function
	.globl	wcsncmp                         # -- Begin function wcsncmp
	.p2align	2
	.type	wcsncmp,@function
	.section	.opd,"aw",@progbits
wcsncmp:                                # @wcsncmp
	.p2align	3, 0x0
	.quad	.Lfunc_begin63
	.quad	.TOC.@tocbase
	.quad	0
	.text
.Lfunc_begin63:
	.cfi_startproc
# %bb.0:
	std %r3, -16(%r1)
	std %r4, -24(%r1)
	std %r5, -32(%r1)
	addis %r3, %r2, .LC131@toc@ha
	ld %r3, .LC131@toc@l(%r3)
	ld %r3, 0(%r3)
	addi %r3, %r3, 1
	addis %r4, %r2, .LC131@toc@ha
	ld %r4, .LC131@toc@l(%r4)
	std %r3, 0(%r4)
.LBB63_1:                               # =>This Inner Loop Header: Depth=1
	ld %r4, -32(%r1)
	li %r3, 0
	cmpdi	%r4, 0
	stw %r3, -36(%r1)                       # 4-byte Folded Spill
	beq	%cr0, .LBB63_10
# %bb.2:                                #   in Loop: Header=BB63_1 Depth=1
	addis %r3, %r2, .LC132@toc@ha
	ld %r3, .LC132@toc@l(%r3)
	ld %r3, 0(%r3)
	addi %r3, %r3, 1
	addis %r4, %r2, .LC132@toc@ha
	ld %r4, .LC132@toc@l(%r4)
	std %r3, 0(%r4)
	addis %r3, %r2, .LC131@toc@ha
	ld %r3, .LC131@toc@l(%r3)
	ld %r3, 48(%r3)
	addi %r3, %r3, 1
	addis %r4, %r2, .LC131@toc@ha
	ld %r4, .LC131@toc@l(%r4)
	std %r3, 48(%r4)
	ld %r3, -16(%r1)
	lwz %r4, 0(%r3)
	ld %r3, -24(%r1)
	lwz %r5, 0(%r3)
	li %r3, 0
	cmpw	%r4, %r5
	stw %r3, -36(%r1)                       # 4-byte Folded Spill
	bne	%cr0, .LBB63_10
# %bb.3:                                #   in Loop: Header=BB63_1 Depth=1
	addis %r3, %r2, .LC132@toc@ha
	ld %r3, .LC132@toc@l(%r3)
	ld %r3, 8(%r3)
	addi %r3, %r3, 1
	addis %r4, %r2, .LC132@toc@ha
	ld %r4, .LC132@toc@l(%r4)
	std %r3, 8(%r4)
	addis %r3, %r2, .LC131@toc@ha
	ld %r3, .LC131@toc@l(%r3)
	ld %r3, 56(%r3)
	addi %r3, %r3, 1
	addis %r4, %r2, .LC131@toc@ha
	ld %r4, .LC131@toc@l(%r4)
	std %r3, 56(%r4)
# %bb.4:                                #   in Loop: Header=BB63_1 Depth=1
	addis %r3, %r2, .LC131@toc@ha
	ld %r3, .LC131@toc@l(%r3)
	ld %r3, 32(%r3)
	addi %r3, %r3, 1
	addis %r4, %r2, .LC131@toc@ha
	ld %r4, .LC131@toc@l(%r4)
	std %r3, 32(%r4)
	ld %r3, -16(%r1)
	lwz %r4, 0(%r3)
	li %r3, 0
	cmpwi	%r4, 0
	stw %r3, -36(%r1)                       # 4-byte Folded Spill
	beq	%cr0, .LBB63_10
# %bb.5:                                #   in Loop: Header=BB63_1 Depth=1
	addis %r3, %r2, .LC132@toc@ha
	ld %r3, .LC132@toc@l(%r3)
	ld %r3, 16(%r3)
	addi %r3, %r3, 1
	addis %r4, %r2, .LC132@toc@ha
	ld %r4, .LC132@toc@l(%r4)
	std %r3, 16(%r4)
	addis %r3, %r2, .LC131@toc@ha
	ld %r3, .LC131@toc@l(%r3)
	ld %r3, 40(%r3)
	addi %r3, %r3, 1
	addis %r4, %r2, .LC131@toc@ha
	ld %r4, .LC131@toc@l(%r4)
	std %r3, 40(%r4)
# %bb.6:                                #   in Loop: Header=BB63_1 Depth=1
	addis %r3, %r2, .LC131@toc@ha
	ld %r4, .LC131@toc@l(%r3)
	ld %r3, 16(%r4)
	addi %r3, %r3, 1
	std %r3, 16(%r4)
	ld %r3, -24(%r1)
	lwz %r3, 0(%r3)
	stw %r3, -48(%r1)                       # 4-byte Folded Spill
	cmplwi	%r3, 0
	li %r3, 0
	stw %r3, -44(%r1)                       # 4-byte Folded Spill
	li %r3, 1
	stw %r3, -40(%r1)                       # 4-byte Folded Spill
	bne	%cr0, .LBB63_8
# %bb.7:                                #   in Loop: Header=BB63_1 Depth=1
	lwz %r3, -44(%r1)                       # 4-byte Folded Reload
	stw %r3, -40(%r1)                       # 4-byte Folded Spill
.LBB63_8:                               #   in Loop: Header=BB63_1 Depth=1
	lwz %r4, -48(%r1)                       # 4-byte Folded Reload
	lwz %r3, -40(%r1)                       # 4-byte Folded Reload
	stw %r3, -52(%r1)                       # 4-byte Folded Spill
	cmpwi	%r4, 0
	stw %r3, -36(%r1)                       # 4-byte Folded Spill
	beq	%cr0, .LBB63_10
# %bb.9:                                #   in Loop: Header=BB63_1 Depth=1
	lwz %r3, -52(%r1)                       # 4-byte Folded Reload
	addis %r4, %r2, .LC132@toc@ha
	ld %r4, .LC132@toc@l(%r4)
	ld %r4, 24(%r4)
	addi %r4, %r4, 1
	addis %r5, %r2, .LC132@toc@ha
	ld %r5, .LC132@toc@l(%r5)
	std %r4, 24(%r5)
	addis %r4, %r2, .LC131@toc@ha
	ld %r4, .LC131@toc@l(%r4)
	ld %r4, 24(%r4)
	addi %r4, %r4, 1
	addis %r5, %r2, .LC131@toc@ha
	ld %r5, .LC131@toc@l(%r5)
	std %r4, 24(%r5)
	stw %r3, -36(%r1)                       # 4-byte Folded Spill
.LBB63_10:                              #   in Loop: Header=BB63_1 Depth=1
	lwz %r3, -36(%r1)                       # 4-byte Folded Reload
	clrlwi	%r3, %r3, 31
	cmplwi	%r3, 0
	beq	%cr0, .LBB63_13
	b .LBB63_11
.LBB63_11:                              #   in Loop: Header=BB63_1 Depth=1
	addis %r3, %r2, .LC131@toc@ha
	ld %r3, .LC131@toc@l(%r3)
	ld %r3, 8(%r3)
	addi %r3, %r3, 1
	addis %r4, %r2, .LC131@toc@ha
	ld %r4, .LC131@toc@l(%r4)
	std %r3, 8(%r4)
# %bb.12:                               #   in Loop: Header=BB63_1 Depth=1
	addis %r3, %r2, .LC132@toc@ha
	ld %r3, .LC132@toc@l(%r3)
	ld %r3, 32(%r3)
	addi %r3, %r3, 1
	addis %r4, %r2, .LC132@toc@ha
	ld %r4, .LC132@toc@l(%r4)
	std %r3, 32(%r4)
	ld %r3, -32(%r1)
	addi %r3, %r3, -1
	std %r3, -32(%r1)
	ld %r3, -16(%r1)
	addi %r3, %r3, 4
	std %r3, -16(%r1)
	ld %r3, -24(%r1)
	addi %r3, %r3, 4
	std %r3, -24(%r1)
	b .LBB63_1
.LBB63_13:
	ld %r3, -32(%r1)
	cmpdi	%r3, 0
	beq	%cr0, .LBB63_20
# %bb.14:
	addis %r3, %r2, .LC131@toc@ha
	ld %r3, .LC131@toc@l(%r3)
	ld %r3, 64(%r3)
	addi %r3, %r3, 1
	addis %r4, %r2, .LC131@toc@ha
	ld %r4, .LC131@toc@l(%r4)
	std %r3, 64(%r4)
	ld %r3, -16(%r1)
	lwz %r3, 0(%r3)
	ld %r4, -24(%r1)
	lwz %r4, 0(%r4)
	cmpw	%r3, %r4
	bge %cr0, .LBB63_16
# %bb.15:
	addis %r3, %r2, .LC132@toc@ha
	ld %r3, .LC132@toc@l(%r3)
	ld %r3, 40(%r3)
	addi %r3, %r3, 1
	addis %r4, %r2, .LC132@toc@ha
	ld %r4, .LC132@toc@l(%r4)
	std %r3, 40(%r4)
	addis %r3, %r2, .LC131@toc@ha
	ld %r3, .LC131@toc@l(%r3)
	ld %r3, 72(%r3)
	addi %r3, %r3, 1
	addis %r4, %r2, .LC131@toc@ha
	ld %r4, .LC131@toc@l(%r4)
	std %r3, 72(%r4)
	lis %r3, -1
	ori %r3, %r3, 65535
	stw %r3, -56(%r1)                       # 4-byte Folded Spill
	b .LBB63_19
.LBB63_16:
	addis %r3, %r2, .LC132@toc@ha
	ld %r4, .LC132@toc@l(%r3)
	ld %r3, 48(%r4)
	addi %r3, %r3, 1
	std %r3, 48(%r4)
	ld %r3, -16(%r1)
	lwz %r3, 0(%r3)
	ld %r4, -24(%r1)
	lwz %r4, 0(%r4)
	cmpw	%r3, %r4
	li %r3, 0
	stw %r3, -64(%r1)                       # 4-byte Folded Spill
	li %r3, 1
	stw %r3, -60(%r1)                       # 4-byte Folded Spill
	bgt	%cr0, .LBB63_18
# %bb.17:
	lwz %r3, -64(%r1)                       # 4-byte Folded Reload
	stw %r3, -60(%r1)                       # 4-byte Folded Spill
.LBB63_18:
	lwz %r3, -60(%r1)                       # 4-byte Folded Reload
	stw %r3, -56(%r1)                       # 4-byte Folded Spill
.LBB63_19:
	lwz %r3, -56(%r1)                       # 4-byte Folded Reload
	stw %r3, -68(%r1)                       # 4-byte Folded Spill
	b .LBB63_21
.LBB63_20:
	addis %r3, %r2, .LC132@toc@ha
	ld %r3, .LC132@toc@l(%r3)
	ld %r3, 56(%r3)
	addi %r3, %r3, 1
	addis %r4, %r2, .LC132@toc@ha
	ld %r4, .LC132@toc@l(%r4)
	std %r3, 56(%r4)
	li %r3, 0
	stw %r3, -68(%r1)                       # 4-byte Folded Spill
.LBB63_21:
	lwz %r3, -68(%r1)                       # 4-byte Folded Reload
	extsw %r3, %r3
	blr
	.long	0
	.quad	0
.Lfunc_end63:
	.size	wcsncmp, .Lfunc_end63-.Lfunc_begin63
	.cfi_endproc
                                        # -- End function
	.globl	wmemchr                         # -- Begin function wmemchr
	.p2align	2
	.type	wmemchr,@function
	.section	.opd,"aw",@progbits
wmemchr:                                # @wmemchr
	.p2align	3, 0x0
	.quad	.Lfunc_begin64
	.quad	.TOC.@tocbase
	.quad	0
	.text
.Lfunc_begin64:
	.cfi_startproc
# %bb.0:
	std %r4, -40(%r1)                       # 8-byte Folded Spill
	mr	%r4, %r3
	ld %r3, -40(%r1)                        # 8-byte Folded Reload
                                        # kill: def $r3 killed $r3 killed $x3
	std %r4, -16(%r1)
	stw %r3, -20(%r1)
	std %r5, -32(%r1)
	addis %r3, %r2, .LC133@toc@ha
	ld %r3, .LC133@toc@l(%r3)
	ld %r3, 0(%r3)
	addi %r3, %r3, 1
	addis %r4, %r2, .LC133@toc@ha
	ld %r4, .LC133@toc@l(%r4)
	std %r3, 0(%r4)
.LBB64_1:                               # =>This Inner Loop Header: Depth=1
	ld %r4, -32(%r1)
	li %r3, 0
	cmpdi	%r4, 0
	stw %r3, -44(%r1)                       # 4-byte Folded Spill
	beq	%cr0, .LBB64_6
# %bb.2:                                #   in Loop: Header=BB64_1 Depth=1
	addis %r3, %r2, .LC134@toc@ha
	ld %r4, .LC134@toc@l(%r3)
	ld %r3, 0(%r4)
	addi %r3, %r3, 1
	std %r3, 0(%r4)
	addis %r3, %r2, .LC133@toc@ha
	ld %r4, .LC133@toc@l(%r3)
	ld %r3, 16(%r4)
	addi %r3, %r3, 1
	std %r3, 16(%r4)
	ld %r3, -16(%r1)
	lwz %r3, 0(%r3)
	stw %r3, -60(%r1)                       # 4-byte Folded Spill
	lwz %r4, -20(%r1)
	stw %r4, -56(%r1)                       # 4-byte Folded Spill
	xor %r3, %r3, %r4
	cmplwi	%r3, 0
	li %r3, 0
	stw %r3, -52(%r1)                       # 4-byte Folded Spill
	li %r3, 1
	stw %r3, -48(%r1)                       # 4-byte Folded Spill
	bne	%cr0, .LBB64_4
# %bb.3:                                #   in Loop: Header=BB64_1 Depth=1
	lwz %r3, -52(%r1)                       # 4-byte Folded Reload
	stw %r3, -48(%r1)                       # 4-byte Folded Spill
.LBB64_4:                               #   in Loop: Header=BB64_1 Depth=1
	lwz %r4, -60(%r1)                       # 4-byte Folded Reload
	lwz %r5, -56(%r1)                       # 4-byte Folded Reload
	lwz %r3, -48(%r1)                       # 4-byte Folded Reload
	stw %r3, -64(%r1)                       # 4-byte Folded Spill
	cmpw	%r4, %r5
	stw %r3, -44(%r1)                       # 4-byte Folded Spill
	beq	%cr0, .LBB64_6
# %bb.5:                                #   in Loop: Header=BB64_1 Depth=1
	lwz %r3, -64(%r1)                       # 4-byte Folded Reload
	addis %r4, %r2, .LC134@toc@ha
	ld %r4, .LC134@toc@l(%r4)
	ld %r4, 8(%r4)
	addi %r4, %r4, 1
	addis %r5, %r2, .LC134@toc@ha
	ld %r5, .LC134@toc@l(%r5)
	std %r4, 8(%r5)
	addis %r4, %r2, .LC133@toc@ha
	ld %r4, .LC133@toc@l(%r4)
	ld %r4, 24(%r4)
	addi %r4, %r4, 1
	addis %r5, %r2, .LC133@toc@ha
	ld %r5, .LC133@toc@l(%r5)
	std %r4, 24(%r5)
	stw %r3, -44(%r1)                       # 4-byte Folded Spill
.LBB64_6:                               #   in Loop: Header=BB64_1 Depth=1
	lwz %r3, -44(%r1)                       # 4-byte Folded Reload
	clrlwi	%r3, %r3, 31
	cmplwi	%r3, 0
	beq	%cr0, .LBB64_9
	b .LBB64_7
.LBB64_7:                               #   in Loop: Header=BB64_1 Depth=1
	addis %r3, %r2, .LC133@toc@ha
	ld %r3, .LC133@toc@l(%r3)
	ld %r3, 8(%r3)
	addi %r3, %r3, 1
	addis %r4, %r2, .LC133@toc@ha
	ld %r4, .LC133@toc@l(%r4)
	std %r3, 8(%r4)
# %bb.8:                                #   in Loop: Header=BB64_1 Depth=1
	addis %r3, %r2, .LC134@toc@ha
	ld %r3, .LC134@toc@l(%r3)
	ld %r3, 16(%r3)
	addi %r3, %r3, 1
	addis %r4, %r2, .LC134@toc@ha
	ld %r4, .LC134@toc@l(%r4)
	std %r3, 16(%r4)
	ld %r3, -32(%r1)
	addi %r3, %r3, -1
	std %r3, -32(%r1)
	ld %r3, -16(%r1)
	addi %r3, %r3, 4
	std %r3, -16(%r1)
	b .LBB64_1
.LBB64_9:
	ld %r3, -32(%r1)
	cmpdi	%r3, 0
	beq	%cr0, .LBB64_11
# %bb.10:
	addis %r3, %r2, .LC134@toc@ha
	ld %r3, .LC134@toc@l(%r3)
	ld %r3, 24(%r3)
	addi %r3, %r3, 1
	addis %r4, %r2, .LC134@toc@ha
	ld %r4, .LC134@toc@l(%r4)
	std %r3, 24(%r4)
	addis %r3, %r2, .LC133@toc@ha
	ld %r3, .LC133@toc@l(%r3)
	ld %r3, 32(%r3)
	addi %r3, %r3, 1
	addis %r4, %r2, .LC133@toc@ha
	ld %r4, .LC133@toc@l(%r4)
	std %r3, 32(%r4)
	ld %r3, -16(%r1)
	std %r3, -72(%r1)                       # 8-byte Folded Spill
	b .LBB64_12
.LBB64_11:
	addis %r3, %r2, .LC134@toc@ha
	ld %r3, .LC134@toc@l(%r3)
	ld %r3, 32(%r3)
	addi %r3, %r3, 1
	addis %r4, %r2, .LC134@toc@ha
	ld %r4, .LC134@toc@l(%r4)
	std %r3, 32(%r4)
	li %r3, 0
	std %r3, -72(%r1)                       # 8-byte Folded Spill
.LBB64_12:
	ld %r3, -72(%r1)                        # 8-byte Folded Reload
	blr
	.long	0
	.quad	0
.Lfunc_end64:
	.size	wmemchr, .Lfunc_end64-.Lfunc_begin64
	.cfi_endproc
                                        # -- End function
	.globl	wmemcmp                         # -- Begin function wmemcmp
	.p2align	2
	.type	wmemcmp,@function
	.section	.opd,"aw",@progbits
wmemcmp:                                # @wmemcmp
	.p2align	3, 0x0
	.quad	.Lfunc_begin65
	.quad	.TOC.@tocbase
	.quad	0
	.text
.Lfunc_begin65:
	.cfi_startproc
# %bb.0:
	std %r3, -16(%r1)
	std %r4, -24(%r1)
	std %r5, -32(%r1)
	addis %r3, %r2, .LC135@toc@ha
	ld %r3, .LC135@toc@l(%r3)
	ld %r3, 0(%r3)
	addi %r3, %r3, 1
	addis %r4, %r2, .LC135@toc@ha
	ld %r4, .LC135@toc@l(%r4)
	std %r3, 0(%r4)
.LBB65_1:                               # =>This Inner Loop Header: Depth=1
	ld %r4, -32(%r1)
	li %r3, 0
	cmpdi	%r4, 0
	stw %r3, -36(%r1)                       # 4-byte Folded Spill
	beq	%cr0, .LBB65_4
# %bb.2:                                #   in Loop: Header=BB65_1 Depth=1
	addis %r3, %r2, .LC136@toc@ha
	ld %r4, .LC136@toc@l(%r3)
	ld %r3, 0(%r4)
	addi %r3, %r3, 1
	std %r3, 0(%r4)
	addis %r3, %r2, .LC135@toc@ha
	ld %r4, .LC135@toc@l(%r3)
	ld %r3, 16(%r4)
	addi %r3, %r3, 1
	std %r3, 16(%r4)
	ld %r3, -16(%r1)
	lwz %r4, 0(%r3)
	ld %r3, -24(%r1)
	lwz %r5, 0(%r3)
	xor %r3, %r4, %r5
	cntlzw	%r3, %r3
	srwi %r3, %r3, 5
	stw %r3, -40(%r1)                       # 4-byte Folded Spill
	cmpw	%r4, %r5
	stw %r3, -36(%r1)                       # 4-byte Folded Spill
	bne	%cr0, .LBB65_4
# %bb.3:                                #   in Loop: Header=BB65_1 Depth=1
	lwz %r3, -40(%r1)                       # 4-byte Folded Reload
	addis %r4, %r2, .LC136@toc@ha
	ld %r4, .LC136@toc@l(%r4)
	ld %r4, 8(%r4)
	addi %r4, %r4, 1
	addis %r5, %r2, .LC136@toc@ha
	ld %r5, .LC136@toc@l(%r5)
	std %r4, 8(%r5)
	addis %r4, %r2, .LC135@toc@ha
	ld %r4, .LC135@toc@l(%r4)
	ld %r4, 24(%r4)
	addi %r4, %r4, 1
	addis %r5, %r2, .LC135@toc@ha
	ld %r5, .LC135@toc@l(%r5)
	std %r4, 24(%r5)
	stw %r3, -36(%r1)                       # 4-byte Folded Spill
.LBB65_4:                               #   in Loop: Header=BB65_1 Depth=1
	lwz %r3, -36(%r1)                       # 4-byte Folded Reload
	clrlwi	%r3, %r3, 31
	cmplwi	%r3, 0
	beq	%cr0, .LBB65_7
	b .LBB65_5
.LBB65_5:                               #   in Loop: Header=BB65_1 Depth=1
	addis %r3, %r2, .LC135@toc@ha
	ld %r3, .LC135@toc@l(%r3)
	ld %r3, 8(%r3)
	addi %r3, %r3, 1
	addis %r4, %r2, .LC135@toc@ha
	ld %r4, .LC135@toc@l(%r4)
	std %r3, 8(%r4)
# %bb.6:                                #   in Loop: Header=BB65_1 Depth=1
	addis %r3, %r2, .LC136@toc@ha
	ld %r3, .LC136@toc@l(%r3)
	ld %r3, 16(%r3)
	addi %r3, %r3, 1
	addis %r4, %r2, .LC136@toc@ha
	ld %r4, .LC136@toc@l(%r4)
	std %r3, 16(%r4)
	ld %r3, -32(%r1)
	addi %r3, %r3, -1
	std %r3, -32(%r1)
	ld %r3, -16(%r1)
	addi %r3, %r3, 4
	std %r3, -16(%r1)
	ld %r3, -24(%r1)
	addi %r3, %r3, 4
	std %r3, -24(%r1)
	b .LBB65_1
.LBB65_7:
	ld %r3, -32(%r1)
	cmpdi	%r3, 0
	beq	%cr0, .LBB65_14
# %bb.8:
	addis %r3, %r2, .LC135@toc@ha
	ld %r3, .LC135@toc@l(%r3)
	ld %r3, 32(%r3)
	addi %r3, %r3, 1
	addis %r4, %r2, .LC135@toc@ha
	ld %r4, .LC135@toc@l(%r4)
	std %r3, 32(%r4)
	ld %r3, -16(%r1)
	lwz %r3, 0(%r3)
	ld %r4, -24(%r1)
	lwz %r4, 0(%r4)
	cmpw	%r3, %r4
	bge %cr0, .LBB65_10
# %bb.9:
	addis %r3, %r2, .LC136@toc@ha
	ld %r3, .LC136@toc@l(%r3)
	ld %r3, 24(%r3)
	addi %r3, %r3, 1
	addis %r4, %r2, .LC136@toc@ha
	ld %r4, .LC136@toc@l(%r4)
	std %r3, 24(%r4)
	addis %r3, %r2, .LC135@toc@ha
	ld %r3, .LC135@toc@l(%r3)
	ld %r3, 40(%r3)
	addi %r3, %r3, 1
	addis %r4, %r2, .LC135@toc@ha
	ld %r4, .LC135@toc@l(%r4)
	std %r3, 40(%r4)
	lis %r3, -1
	ori %r3, %r3, 65535
	stw %r3, -44(%r1)                       # 4-byte Folded Spill
	b .LBB65_13
.LBB65_10:
	addis %r3, %r2, .LC136@toc@ha
	ld %r4, .LC136@toc@l(%r3)
	ld %r3, 32(%r4)
	addi %r3, %r3, 1
	std %r3, 32(%r4)
	ld %r3, -16(%r1)
	lwz %r3, 0(%r3)
	ld %r4, -24(%r1)
	lwz %r4, 0(%r4)
	cmpw	%r3, %r4
	li %r3, 0
	stw %r3, -52(%r1)                       # 4-byte Folded Spill
	li %r3, 1
	stw %r3, -48(%r1)                       # 4-byte Folded Spill
	bgt	%cr0, .LBB65_12
# %bb.11:
	lwz %r3, -52(%r1)                       # 4-byte Folded Reload
	stw %r3, -48(%r1)                       # 4-byte Folded Spill
.LBB65_12:
	lwz %r3, -48(%r1)                       # 4-byte Folded Reload
	stw %r3, -44(%r1)                       # 4-byte Folded Spill
.LBB65_13:
	lwz %r3, -44(%r1)                       # 4-byte Folded Reload
	stw %r3, -56(%r1)                       # 4-byte Folded Spill
	b .LBB65_15
.LBB65_14:
	addis %r3, %r2, .LC136@toc@ha
	ld %r3, .LC136@toc@l(%r3)
	ld %r3, 40(%r3)
	addi %r3, %r3, 1
	addis %r4, %r2, .LC136@toc@ha
	ld %r4, .LC136@toc@l(%r4)
	std %r3, 40(%r4)
	li %r3, 0
	stw %r3, -56(%r1)                       # 4-byte Folded Spill
.LBB65_15:
	lwz %r3, -56(%r1)                       # 4-byte Folded Reload
	extsw %r3, %r3
	blr
	.long	0
	.quad	0
.Lfunc_end65:
	.size	wmemcmp, .Lfunc_end65-.Lfunc_begin65
	.cfi_endproc
                                        # -- End function
	.globl	wmemcpy                         # -- Begin function wmemcpy
	.p2align	2
	.type	wmemcpy,@function
	.section	.opd,"aw",@progbits
wmemcpy:                                # @wmemcpy
	.p2align	3, 0x0
	.quad	.Lfunc_begin66
	.quad	.TOC.@tocbase
	.quad	0
	.text
.Lfunc_begin66:
	.cfi_startproc
# %bb.0:
	addis %r6, %r2, .LC137@toc@ha
	ld %r6, .LC137@toc@l(%r6)
	ld %r6, 0(%r6)
	addi %r6, %r6, 1
	addis %r7, %r2, .LC137@toc@ha
	ld %r7, .LC137@toc@l(%r7)
	std %r6, 0(%r7)
	std %r3, -16(%r1)
	std %r4, -24(%r1)
	std %r5, -32(%r1)
	addis %r3, %r2, .LC138@toc@ha
	ld %r3, .LC138@toc@l(%r3)
	ld %r3, 0(%r3)
	addi %r3, %r3, 1
	addis %r4, %r2, .LC138@toc@ha
	ld %r4, .LC138@toc@l(%r4)
	std %r3, 0(%r4)
	ld %r3, -16(%r1)
	std %r3, -40(%r1)
.LBB66_1:                               # =>This Inner Loop Header: Depth=1
	ld %r3, -32(%r1)
	addi %r4, %r3, -1
	std %r4, -32(%r1)
	cmpdi	%r3, 0
	beq	%cr0, .LBB66_3
# %bb.2:                                #   in Loop: Header=BB66_1 Depth=1
	addis %r3, %r2, .LC137@toc@ha
	ld %r3, .LC137@toc@l(%r3)
	ld %r3, 8(%r3)
	addi %r3, %r3, 1
	addis %r4, %r2, .LC137@toc@ha
	ld %r4, .LC137@toc@l(%r4)
	std %r3, 8(%r4)
	addis %r3, %r2, .LC138@toc@ha
	ld %r3, .LC138@toc@l(%r3)
	ld %r3, 8(%r3)
	addi %r3, %r3, 1
	addis %r4, %r2, .LC138@toc@ha
	ld %r4, .LC138@toc@l(%r4)
	std %r3, 8(%r4)
	ld %r3, -24(%r1)
	addi %r4, %r3, 4
	std %r4, -24(%r1)
	lwz %r3, 0(%r3)
	ld %r4, -16(%r1)
	addi %r5, %r4, 4
	std %r5, -16(%r1)
	stw %r3, 0(%r4)
	b .LBB66_1
.LBB66_3:
	ld %r3, -40(%r1)
	blr
	.long	0
	.quad	0
.Lfunc_end66:
	.size	wmemcpy, .Lfunc_end66-.Lfunc_begin66
	.cfi_endproc
                                        # -- End function
	.globl	wmemmove                        # -- Begin function wmemmove
	.p2align	2
	.type	wmemmove,@function
	.section	.opd,"aw",@progbits
wmemmove:                               # @wmemmove
	.p2align	3, 0x0
	.quad	.Lfunc_begin67
	.quad	.TOC.@tocbase
	.quad	0
	.text
.Lfunc_begin67:
	.cfi_startproc
# %bb.0:
	std %r3, -24(%r1)
	std %r4, -32(%r1)
	std %r5, -40(%r1)
	addis %r3, %r2, .LC139@toc@ha
	ld %r3, .LC139@toc@l(%r3)
	ld %r3, 0(%r3)
	addi %r3, %r3, 1
	addis %r4, %r2, .LC139@toc@ha
	ld %r4, .LC139@toc@l(%r4)
	std %r3, 0(%r4)
	ld %r3, -24(%r1)
	std %r3, -48(%r1)
	ld %r3, -24(%r1)
	ld %r4, -32(%r1)
	cmpd	%r3, %r4
	bne	%cr0, .LBB67_2
# %bb.1:
	addis %r3, %r2, .LC140@toc@ha
	ld %r3, .LC140@toc@l(%r3)
	ld %r3, 0(%r3)
	addi %r3, %r3, 1
	addis %r4, %r2, .LC140@toc@ha
	ld %r4, .LC140@toc@l(%r4)
	std %r3, 0(%r4)
	addis %r3, %r2, .LC139@toc@ha
	ld %r3, .LC139@toc@l(%r3)
	ld %r3, 8(%r3)
	addi %r3, %r3, 1
	addis %r4, %r2, .LC139@toc@ha
	ld %r4, .LC139@toc@l(%r4)
	std %r3, 8(%r4)
	ld %r3, -24(%r1)
	std %r3, -16(%r1)
	b .LBB67_12
.LBB67_2:
	ld %r4, -24(%r1)
	ld %r3, -32(%r1)
	sub	%r3, %r4, %r3
	ld %r4, -40(%r1)
	sldi %r4, %r4, 2
	cmpld	%r3, %r4
	bge %cr0, .LBB67_7
# %bb.3:
	addis %r3, %r2, .LC140@toc@ha
	ld %r3, .LC140@toc@l(%r3)
	ld %r3, 8(%r3)
	addi %r3, %r3, 1
	addis %r4, %r2, .LC140@toc@ha
	ld %r4, .LC140@toc@l(%r4)
	std %r3, 8(%r4)
	addis %r3, %r2, .LC139@toc@ha
	ld %r3, .LC139@toc@l(%r3)
	ld %r3, 16(%r3)
	addi %r3, %r3, 1
	addis %r4, %r2, .LC139@toc@ha
	ld %r4, .LC139@toc@l(%r4)
	std %r3, 16(%r4)
.LBB67_4:                               # =>This Inner Loop Header: Depth=1
	ld %r3, -40(%r1)
	addi %r4, %r3, -1
	std %r4, -40(%r1)
	cmpdi	%r3, 0
	beq	%cr0, .LBB67_6
# %bb.5:                                #   in Loop: Header=BB67_4 Depth=1
	addis %r3, %r2, .LC140@toc@ha
	ld %r4, .LC140@toc@l(%r3)
	ld %r3, 16(%r4)
	addi %r3, %r3, 1
	std %r3, 16(%r4)
	addis %r3, %r2, .LC139@toc@ha
	ld %r4, .LC139@toc@l(%r3)
	ld %r3, 24(%r4)
	addi %r3, %r3, 1
	std %r3, 24(%r4)
	ld %r3, -32(%r1)
	ld %r4, -40(%r1)
	sldi %r5, %r4, 2
	lwzx %r3, %r3, %r5
	ld %r4, -24(%r1)
	add %r4, %r4, %r5
	stw %r3, 0(%r4)
	b .LBB67_4
.LBB67_6:
	b .LBB67_11
.LBB67_7:
	b .LBB67_8
.LBB67_8:                               # =>This Inner Loop Header: Depth=1
	ld %r3, -40(%r1)
	addi %r4, %r3, -1
	std %r4, -40(%r1)
	cmpdi	%r3, 0
	beq	%cr0, .LBB67_10
# %bb.9:                                #   in Loop: Header=BB67_8 Depth=1
	addis %r3, %r2, .LC140@toc@ha
	ld %r3, .LC140@toc@l(%r3)
	ld %r3, 24(%r3)
	addi %r3, %r3, 1
	addis %r4, %r2, .LC140@toc@ha
	ld %r4, .LC140@toc@l(%r4)
	std %r3, 24(%r4)
	addis %r3, %r2, .LC139@toc@ha
	ld %r3, .LC139@toc@l(%r3)
	ld %r3, 32(%r3)
	addi %r3, %r3, 1
	addis %r4, %r2, .LC139@toc@ha
	ld %r4, .LC139@toc@l(%r4)
	std %r3, 32(%r4)
	ld %r3, -32(%r1)
	addi %r4, %r3, 4
	std %r4, -32(%r1)
	lwz %r3, 0(%r3)
	ld %r4, -24(%r1)
	addi %r5, %r4, 4
	std %r5, -24(%r1)
	stw %r3, 0(%r4)
	b .LBB67_8
.LBB67_10:
	addis %r3, %r2, .LC140@toc@ha
	ld %r3, .LC140@toc@l(%r3)
	ld %r3, 32(%r3)
	addi %r3, %r3, 1
	addis %r4, %r2, .LC140@toc@ha
	ld %r4, .LC140@toc@l(%r4)
	std %r3, 32(%r4)
.LBB67_11:
	ld %r3, -48(%r1)
	std %r3, -16(%r1)
.LBB67_12:
	ld %r3, -16(%r1)
	blr
	.long	0
	.quad	0
.Lfunc_end67:
	.size	wmemmove, .Lfunc_end67-.Lfunc_begin67
	.cfi_endproc
                                        # -- End function
	.globl	wmemset                         # -- Begin function wmemset
	.p2align	2
	.type	wmemset,@function
	.section	.opd,"aw",@progbits
wmemset:                                # @wmemset
	.p2align	3, 0x0
	.quad	.Lfunc_begin68
	.quad	.TOC.@tocbase
	.quad	0
	.text
.Lfunc_begin68:
	.cfi_startproc
# %bb.0:
	std %r4, -48(%r1)                       # 8-byte Folded Spill
	mr	%r4, %r3
	ld %r3, -48(%r1)                        # 8-byte Folded Reload
                                        # kill: def $r3 killed $r3 killed $x3
	addis %r6, %r2, .LC141@toc@ha
	ld %r6, .LC141@toc@l(%r6)
	ld %r6, 0(%r6)
	addi %r6, %r6, 1
	addis %r7, %r2, .LC141@toc@ha
	ld %r7, .LC141@toc@l(%r7)
	std %r6, 0(%r7)
	std %r4, -16(%r1)
	stw %r3, -20(%r1)
	std %r5, -32(%r1)
	addis %r3, %r2, .LC142@toc@ha
	ld %r3, .LC142@toc@l(%r3)
	ld %r3, 0(%r3)
	addi %r3, %r3, 1
	addis %r4, %r2, .LC142@toc@ha
	ld %r4, .LC142@toc@l(%r4)
	std %r3, 0(%r4)
	ld %r3, -16(%r1)
	std %r3, -40(%r1)
.LBB68_1:                               # =>This Inner Loop Header: Depth=1
	ld %r3, -32(%r1)
	addi %r4, %r3, -1
	std %r4, -32(%r1)
	cmpdi	%r3, 0
	beq	%cr0, .LBB68_3
# %bb.2:                                #   in Loop: Header=BB68_1 Depth=1
	addis %r3, %r2, .LC141@toc@ha
	ld %r3, .LC141@toc@l(%r3)
	ld %r3, 8(%r3)
	addi %r3, %r3, 1
	addis %r4, %r2, .LC141@toc@ha
	ld %r4, .LC141@toc@l(%r4)
	std %r3, 8(%r4)
	addis %r3, %r2, .LC142@toc@ha
	ld %r3, .LC142@toc@l(%r3)
	ld %r3, 8(%r3)
	addi %r3, %r3, 1
	addis %r4, %r2, .LC142@toc@ha
	ld %r4, .LC142@toc@l(%r4)
	std %r3, 8(%r4)
	lwz %r3, -20(%r1)
	ld %r4, -16(%r1)
	addi %r5, %r4, 4
	std %r5, -16(%r1)
	stw %r3, 0(%r4)
	b .LBB68_1
.LBB68_3:
	ld %r3, -40(%r1)
	blr
	.long	0
	.quad	0
.Lfunc_end68:
	.size	wmemset, .Lfunc_end68-.Lfunc_begin68
	.cfi_endproc
                                        # -- End function
	.globl	bcopy                           # -- Begin function bcopy
	.p2align	2
	.type	bcopy,@function
	.section	.opd,"aw",@progbits
bcopy:                                  # @bcopy
	.p2align	3, 0x0
	.quad	.Lfunc_begin69
	.quad	.TOC.@tocbase
	.quad	0
	.text
.Lfunc_begin69:
	.cfi_startproc
# %bb.0:
	std %r3, -16(%r1)
	std %r4, -24(%r1)
	std %r5, -32(%r1)
	addis %r3, %r2, .LC143@toc@ha
	ld %r3, .LC143@toc@l(%r3)
	ld %r3, 0(%r3)
	addi %r3, %r3, 1
	addis %r4, %r2, .LC143@toc@ha
	ld %r4, .LC143@toc@l(%r4)
	std %r3, 0(%r4)
	ld %r3, -16(%r1)
	std %r3, -40(%r1)
	ld %r3, -24(%r1)
	std %r3, -48(%r1)
	ld %r3, -40(%r1)
	ld %r4, -48(%r1)
	cmpld	%r3, %r4
	bge %cr0, .LBB69_6
# %bb.1:
	addis %r3, %r2, .LC144@toc@ha
	ld %r3, .LC144@toc@l(%r3)
	ld %r3, 0(%r3)
	addi %r3, %r3, 1
	addis %r4, %r2, .LC144@toc@ha
	ld %r4, .LC144@toc@l(%r4)
	std %r3, 0(%r4)
	addis %r3, %r2, .LC143@toc@ha
	ld %r3, .LC143@toc@l(%r3)
	ld %r3, 8(%r3)
	addi %r3, %r3, 1
	addis %r4, %r2, .LC143@toc@ha
	ld %r4, .LC143@toc@l(%r4)
	std %r3, 8(%r4)
	ld %r4, -32(%r1)
	ld %r3, -40(%r1)
	add %r3, %r3, %r4
	std %r3, -40(%r1)
	ld %r4, -32(%r1)
	ld %r3, -48(%r1)
	add %r3, %r3, %r4
	std %r3, -48(%r1)
.LBB69_2:                               # =>This Inner Loop Header: Depth=1
	ld %r3, -32(%r1)
	cmpdi	%r3, 0
	beq	%cr0, .LBB69_5
# %bb.3:                                #   in Loop: Header=BB69_2 Depth=1
	addis %r3, %r2, .LC143@toc@ha
	ld %r3, .LC143@toc@l(%r3)
	ld %r3, 16(%r3)
	addi %r3, %r3, 1
	addis %r4, %r2, .LC143@toc@ha
	ld %r4, .LC143@toc@l(%r4)
	std %r3, 16(%r4)
	ld %r3, -40(%r1)
	addi %r4, %r3, -1
	std %r4, -40(%r1)
	lbz %r3, -1(%r3)
	ld %r4, -48(%r1)
	addi %r5, %r4, -1
	std %r5, -48(%r1)
	stb %r3, -1(%r4)
# %bb.4:                                #   in Loop: Header=BB69_2 Depth=1
	addis %r3, %r2, .LC144@toc@ha
	ld %r3, .LC144@toc@l(%r3)
	ld %r3, 8(%r3)
	addi %r3, %r3, 1
	addis %r4, %r2, .LC144@toc@ha
	ld %r4, .LC144@toc@l(%r4)
	std %r3, 8(%r4)
	ld %r3, -32(%r1)
	addi %r3, %r3, -1
	std %r3, -32(%r1)
	b .LBB69_2
.LBB69_5:
	b .LBB69_13
.LBB69_6:
	ld %r3, -40(%r1)
	ld %r4, -48(%r1)
	cmpd	%r3, %r4
	beq	%cr0, .LBB69_12
# %bb.7:
	addis %r3, %r2, .LC143@toc@ha
	ld %r3, .LC143@toc@l(%r3)
	ld %r3, 24(%r3)
	addi %r3, %r3, 1
	addis %r4, %r2, .LC143@toc@ha
	ld %r4, .LC143@toc@l(%r4)
	std %r3, 24(%r4)
.LBB69_8:                               # =>This Inner Loop Header: Depth=1
	ld %r3, -32(%r1)
	cmpdi	%r3, 0
	beq	%cr0, .LBB69_11
# %bb.9:                                #   in Loop: Header=BB69_8 Depth=1
	addis %r3, %r2, .LC144@toc@ha
	ld %r3, .LC144@toc@l(%r3)
	ld %r3, 16(%r3)
	addi %r3, %r3, 1
	addis %r4, %r2, .LC144@toc@ha
	ld %r4, .LC144@toc@l(%r4)
	std %r3, 16(%r4)
	addis %r3, %r2, .LC143@toc@ha
	ld %r3, .LC143@toc@l(%r3)
	ld %r3, 32(%r3)
	addi %r3, %r3, 1
	addis %r4, %r2, .LC143@toc@ha
	ld %r4, .LC143@toc@l(%r4)
	std %r3, 32(%r4)
	ld %r3, -40(%r1)
	addi %r4, %r3, 1
	std %r4, -40(%r1)
	lbz %r3, 0(%r3)
	ld %r4, -48(%r1)
	addi %r5, %r4, 1
	std %r5, -48(%r1)
	stb %r3, 0(%r4)
# %bb.10:                               #   in Loop: Header=BB69_8 Depth=1
	ld %r3, -32(%r1)
	addi %r3, %r3, -1
	std %r3, -32(%r1)
	b .LBB69_8
.LBB69_11:
	addis %r3, %r2, .LC144@toc@ha
	ld %r3, .LC144@toc@l(%r3)
	ld %r3, 24(%r3)
	addi %r3, %r3, 1
	addis %r4, %r2, .LC144@toc@ha
	ld %r4, .LC144@toc@l(%r4)
	std %r3, 24(%r4)
.LBB69_12:
	addis %r3, %r2, .LC144@toc@ha
	ld %r3, .LC144@toc@l(%r3)
	ld %r3, 32(%r3)
	addi %r3, %r3, 1
	addis %r4, %r2, .LC144@toc@ha
	ld %r4, .LC144@toc@l(%r4)
	std %r3, 32(%r4)
.LBB69_13:
	blr
	.long	0
	.quad	0
.Lfunc_end69:
	.size	bcopy, .Lfunc_end69-.Lfunc_begin69
	.cfi_endproc
                                        # -- End function
	.globl	rotl64                          # -- Begin function rotl64
	.p2align	2
	.type	rotl64,@function
	.section	.opd,"aw",@progbits
rotl64:                                 # @rotl64
	.p2align	3, 0x0
	.quad	.Lfunc_begin70
	.quad	.TOC.@tocbase
	.quad	0
	.text
.Lfunc_begin70:
	.cfi_startproc
# %bb.0:
	std %r4, -32(%r1)                       # 8-byte Folded Spill
	mr	%r4, %r3
	ld %r3, -32(%r1)                        # 8-byte Folded Reload
                                        # kill: def $r3 killed $r3 killed $x3
	addis %r5, %r2, .LC145@toc@ha
	ld %r6, .LC145@toc@l(%r5)
	ld %r5, 0(%r6)
	addi %r5, %r5, 1
	std %r5, 0(%r6)
	std %r4, -16(%r1)
	stw %r3, -20(%r1)
	addis %r3, %r2, .LC146@toc@ha
	ld %r4, .LC146@toc@l(%r3)
	ld %r3, 0(%r4)
	addi %r3, %r3, 1
	std %r3, 0(%r4)
	ld %r4, -16(%r1)
	lwz %r5, -20(%r1)
	sld %r3, %r4, %r5
	subfic %r5, %r5, 64
                                        # implicit-def: $x6
	mr	%r6, %r5
	clrldi	%r6, %r6, 32
	srd %r4, %r4, %r5
	or %r3, %r3, %r4
	li %r4, -1
	and %r3, %r3, %r4
	blr
	.long	0
	.quad	0
.Lfunc_end70:
	.size	rotl64, .Lfunc_end70-.Lfunc_begin70
	.cfi_endproc
                                        # -- End function
	.globl	rotr64                          # -- Begin function rotr64
	.p2align	2
	.type	rotr64,@function
	.section	.opd,"aw",@progbits
rotr64:                                 # @rotr64
	.p2align	3, 0x0
	.quad	.Lfunc_begin71
	.quad	.TOC.@tocbase
	.quad	0
	.text
.Lfunc_begin71:
	.cfi_startproc
# %bb.0:
	std %r4, -32(%r1)                       # 8-byte Folded Spill
	mr	%r4, %r3
	ld %r3, -32(%r1)                        # 8-byte Folded Reload
                                        # kill: def $r3 killed $r3 killed $x3
	addis %r5, %r2, .LC147@toc@ha
	ld %r6, .LC147@toc@l(%r5)
	ld %r5, 0(%r6)
	addi %r5, %r5, 1
	std %r5, 0(%r6)
	std %r4, -16(%r1)
	stw %r3, -20(%r1)
	addis %r3, %r2, .LC148@toc@ha
	ld %r4, .LC148@toc@l(%r3)
	ld %r3, 0(%r4)
	addi %r3, %r3, 1
	std %r3, 0(%r4)
	ld %r4, -16(%r1)
	lwz %r5, -20(%r1)
	srd %r3, %r4, %r5
	subfic %r5, %r5, 64
                                        # implicit-def: $x6
	mr	%r6, %r5
	clrldi	%r6, %r6, 32
	sld %r4, %r4, %r5
	or %r3, %r3, %r4
	li %r4, -1
	and %r3, %r3, %r4
	blr
	.long	0
	.quad	0
.Lfunc_end71:
	.size	rotr64, .Lfunc_end71-.Lfunc_begin71
	.cfi_endproc
                                        # -- End function
	.globl	rotl32                          # -- Begin function rotl32
	.p2align	2
	.type	rotl32,@function
	.section	.opd,"aw",@progbits
rotl32:                                 # @rotl32
	.p2align	3, 0x0
	.quad	.Lfunc_begin72
	.quad	.TOC.@tocbase
	.quad	0
	.text
.Lfunc_begin72:
	.cfi_startproc
# %bb.0:
	std %r4, -24(%r1)                       # 8-byte Folded Spill
	mr	%r4, %r3
	ld %r3, -24(%r1)                        # 8-byte Folded Reload
                                        # kill: def $r3 killed $r3 killed $x3
                                        # kill: def $r4 killed $r4 killed $x4
	addis %r5, %r2, .LC149@toc@ha
	ld %r6, .LC149@toc@l(%r5)
	ld %r5, 0(%r6)
	addi %r5, %r5, 1
	std %r5, 0(%r6)
	stw %r4, -12(%r1)
	stw %r3, -16(%r1)
	addis %r3, %r2, .LC150@toc@ha
	ld %r4, .LC150@toc@l(%r3)
	ld %r3, 0(%r4)
	addi %r3, %r3, 1
	std %r3, 0(%r4)
	lwz %r4, -12(%r1)
	lwz %r5, -16(%r1)
	slw %r3, %r4, %r5
	subfic %r5, %r5, 32
	srw %r4, %r4, %r5
	or %r3, %r3, %r4
	li %r4, -1
	and %r3, %r3, %r4
	clrldi	%r3, %r3, 32
	blr
	.long	0
	.quad	0
.Lfunc_end72:
	.size	rotl32, .Lfunc_end72-.Lfunc_begin72
	.cfi_endproc
                                        # -- End function
	.globl	rotr32                          # -- Begin function rotr32
	.p2align	2
	.type	rotr32,@function
	.section	.opd,"aw",@progbits
rotr32:                                 # @rotr32
	.p2align	3, 0x0
	.quad	.Lfunc_begin73
	.quad	.TOC.@tocbase
	.quad	0
	.text
.Lfunc_begin73:
	.cfi_startproc
# %bb.0:
	std %r4, -24(%r1)                       # 8-byte Folded Spill
	mr	%r4, %r3
	ld %r3, -24(%r1)                        # 8-byte Folded Reload
                                        # kill: def $r3 killed $r3 killed $x3
                                        # kill: def $r4 killed $r4 killed $x4
	addis %r5, %r2, .LC151@toc@ha
	ld %r6, .LC151@toc@l(%r5)
	ld %r5, 0(%r6)
	addi %r5, %r5, 1
	std %r5, 0(%r6)
	stw %r4, -12(%r1)
	stw %r3, -16(%r1)
	addis %r3, %r2, .LC152@toc@ha
	ld %r4, .LC152@toc@l(%r3)
	ld %r3, 0(%r4)
	addi %r3, %r3, 1
	std %r3, 0(%r4)
	lwz %r4, -12(%r1)
	lwz %r5, -16(%r1)
	srw %r3, %r4, %r5
	subfic %r5, %r5, 32
	slw %r4, %r4, %r5
	or %r3, %r3, %r4
	li %r4, -1
	and %r3, %r3, %r4
	clrldi	%r3, %r3, 32
	blr
	.long	0
	.quad	0
.Lfunc_end73:
	.size	rotr32, .Lfunc_end73-.Lfunc_begin73
	.cfi_endproc
                                        # -- End function
	.globl	rotl_sz                         # -- Begin function rotl_sz
	.p2align	2
	.type	rotl_sz,@function
	.section	.opd,"aw",@progbits
rotl_sz:                                # @rotl_sz
	.p2align	3, 0x0
	.quad	.Lfunc_begin74
	.quad	.TOC.@tocbase
	.quad	0
	.text
.Lfunc_begin74:
	.cfi_startproc
# %bb.0:
	std %r4, -32(%r1)                       # 8-byte Folded Spill
	mr	%r4, %r3
	ld %r3, -32(%r1)                        # 8-byte Folded Reload
                                        # kill: def $r3 killed $r3 killed $x3
	addis %r5, %r2, .LC153@toc@ha
	ld %r6, .LC153@toc@l(%r5)
	ld %r5, 0(%r6)
	addi %r5, %r5, 1
	std %r5, 0(%r6)
	std %r4, -16(%r1)
	stw %r3, -20(%r1)
	addis %r3, %r2, .LC154@toc@ha
	ld %r4, .LC154@toc@l(%r3)
	ld %r3, 0(%r4)
	addi %r3, %r3, 1
	std %r3, 0(%r4)
	ld %r4, -16(%r1)
	lwa %r5, -20(%r1)
	mr	%r3, %r5
	sld %r3, %r4, %r3
	subfic %r5, %r5, 64
                                        # kill: def $r5 killed $r5 killed $x5
	srd %r4, %r4, %r5
	or %r3, %r3, %r4
	li %r4, -1
	and %r3, %r3, %r4
	blr
	.long	0
	.quad	0
.Lfunc_end74:
	.size	rotl_sz, .Lfunc_end74-.Lfunc_begin74
	.cfi_endproc
                                        # -- End function
	.globl	rotr_sz                         # -- Begin function rotr_sz
	.p2align	2
	.type	rotr_sz,@function
	.section	.opd,"aw",@progbits
rotr_sz:                                # @rotr_sz
	.p2align	3, 0x0
	.quad	.Lfunc_begin75
	.quad	.TOC.@tocbase
	.quad	0
	.text
.Lfunc_begin75:
	.cfi_startproc
# %bb.0:
	std %r4, -32(%r1)                       # 8-byte Folded Spill
	mr	%r4, %r3
	ld %r3, -32(%r1)                        # 8-byte Folded Reload
                                        # kill: def $r3 killed $r3 killed $x3
	addis %r5, %r2, .LC155@toc@ha
	ld %r6, .LC155@toc@l(%r5)
	ld %r5, 0(%r6)
	addi %r5, %r5, 1
	std %r5, 0(%r6)
	std %r4, -16(%r1)
	stw %r3, -20(%r1)
	addis %r3, %r2, .LC156@toc@ha
	ld %r4, .LC156@toc@l(%r3)
	ld %r3, 0(%r4)
	addi %r3, %r3, 1
	std %r3, 0(%r4)
	ld %r4, -16(%r1)
	lwa %r5, -20(%r1)
	mr	%r3, %r5
	srd %r3, %r4, %r3
	subfic %r5, %r5, 64
                                        # kill: def $r5 killed $r5 killed $x5
	sld %r4, %r4, %r5
	or %r3, %r3, %r4
	li %r4, -1
	and %r3, %r3, %r4
	blr
	.long	0
	.quad	0
.Lfunc_end75:
	.size	rotr_sz, .Lfunc_end75-.Lfunc_begin75
	.cfi_endproc
                                        # -- End function
	.globl	rotl16                          # -- Begin function rotl16
	.p2align	2
	.type	rotl16,@function
	.section	.opd,"aw",@progbits
rotl16:                                 # @rotl16
	.p2align	3, 0x0
	.quad	.Lfunc_begin76
	.quad	.TOC.@tocbase
	.quad	0
	.text
.Lfunc_begin76:
	.cfi_startproc
# %bb.0:
	std %r4, -24(%r1)                       # 8-byte Folded Spill
	mr	%r4, %r3
	ld %r3, -24(%r1)                        # 8-byte Folded Reload
                                        # kill: def $r3 killed $r3 killed $x3
                                        # kill: def $r4 killed $r4 killed $x4
	addis %r5, %r2, .LC157@toc@ha
	ld %r6, .LC157@toc@l(%r5)
	ld %r5, 0(%r6)
	addi %r5, %r5, 1
	std %r5, 0(%r6)
	sth %r4, -10(%r1)
	stw %r3, -16(%r1)
	addis %r3, %r2, .LC158@toc@ha
	ld %r4, .LC158@toc@l(%r3)
	ld %r3, 0(%r4)
	addi %r3, %r3, 1
	std %r3, 0(%r4)
	lhz %r4, -10(%r1)
	lwz %r5, -16(%r1)
	slw %r3, %r4, %r5
	subfic %r5, %r5, 16
	srw %r4, %r4, %r5
	or %r3, %r3, %r4
	lis %r4, 0
	ori %r4, %r4, 65535
	and %r3, %r3, %r4
	clrldi	%r3, %r3, 48
	blr
	.long	0
	.quad	0
.Lfunc_end76:
	.size	rotl16, .Lfunc_end76-.Lfunc_begin76
	.cfi_endproc
                                        # -- End function
	.globl	rotr16                          # -- Begin function rotr16
	.p2align	2
	.type	rotr16,@function
	.section	.opd,"aw",@progbits
rotr16:                                 # @rotr16
	.p2align	3, 0x0
	.quad	.Lfunc_begin77
	.quad	.TOC.@tocbase
	.quad	0
	.text
.Lfunc_begin77:
	.cfi_startproc
# %bb.0:
	std %r4, -24(%r1)                       # 8-byte Folded Spill
	mr	%r4, %r3
	ld %r3, -24(%r1)                        # 8-byte Folded Reload
                                        # kill: def $r3 killed $r3 killed $x3
                                        # kill: def $r4 killed $r4 killed $x4
	addis %r5, %r2, .LC159@toc@ha
	ld %r6, .LC159@toc@l(%r5)
	ld %r5, 0(%r6)
	addi %r5, %r5, 1
	std %r5, 0(%r6)
	sth %r4, -10(%r1)
	stw %r3, -16(%r1)
	addis %r3, %r2, .LC160@toc@ha
	ld %r4, .LC160@toc@l(%r3)
	ld %r3, 0(%r4)
	addi %r3, %r3, 1
	std %r3, 0(%r4)
	lhz %r4, -10(%r1)
	lwz %r5, -16(%r1)
	srw %r3, %r4, %r5
	subfic %r5, %r5, 16
	slw %r4, %r4, %r5
	or %r3, %r3, %r4
	lis %r4, 0
	ori %r4, %r4, 65535
	and %r3, %r3, %r4
	clrldi	%r3, %r3, 48
	blr
	.long	0
	.quad	0
.Lfunc_end77:
	.size	rotr16, .Lfunc_end77-.Lfunc_begin77
	.cfi_endproc
                                        # -- End function
	.globl	rotl8                           # -- Begin function rotl8
	.p2align	2
	.type	rotl8,@function
	.section	.opd,"aw",@progbits
rotl8:                                  # @rotl8
	.p2align	3, 0x0
	.quad	.Lfunc_begin78
	.quad	.TOC.@tocbase
	.quad	0
	.text
.Lfunc_begin78:
	.cfi_startproc
# %bb.0:
	std %r4, -24(%r1)                       # 8-byte Folded Spill
	mr	%r4, %r3
	ld %r3, -24(%r1)                        # 8-byte Folded Reload
                                        # kill: def $r3 killed $r3 killed $x3
                                        # kill: def $r4 killed $r4 killed $x4
	addis %r5, %r2, .LC161@toc@ha
	ld %r6, .LC161@toc@l(%r5)
	ld %r5, 0(%r6)
	addi %r5, %r5, 1
	std %r5, 0(%r6)
	stb %r4, -9(%r1)
	stw %r3, -16(%r1)
	addis %r3, %r2, .LC162@toc@ha
	ld %r4, .LC162@toc@l(%r3)
	ld %r3, 0(%r4)
	addi %r3, %r3, 1
	std %r3, 0(%r4)
	lbz %r4, -9(%r1)
	lwz %r5, -16(%r1)
	slw %r3, %r4, %r5
	subfic %r5, %r5, 8
	srw %r4, %r4, %r5
	or %r3, %r3, %r4
	li %r4, 255
	and %r3, %r3, %r4
	clrldi	%r3, %r3, 56
	blr
	.long	0
	.quad	0
.Lfunc_end78:
	.size	rotl8, .Lfunc_end78-.Lfunc_begin78
	.cfi_endproc
                                        # -- End function
	.globl	rotr8                           # -- Begin function rotr8
	.p2align	2
	.type	rotr8,@function
	.section	.opd,"aw",@progbits
rotr8:                                  # @rotr8
	.p2align	3, 0x0
	.quad	.Lfunc_begin79
	.quad	.TOC.@tocbase
	.quad	0
	.text
.Lfunc_begin79:
	.cfi_startproc
# %bb.0:
	std %r4, -24(%r1)                       # 8-byte Folded Spill
	mr	%r4, %r3
	ld %r3, -24(%r1)                        # 8-byte Folded Reload
                                        # kill: def $r3 killed $r3 killed $x3
                                        # kill: def $r4 killed $r4 killed $x4
	addis %r5, %r2, .LC163@toc@ha
	ld %r6, .LC163@toc@l(%r5)
	ld %r5, 0(%r6)
	addi %r5, %r5, 1
	std %r5, 0(%r6)
	stb %r4, -9(%r1)
	stw %r3, -16(%r1)
	addis %r3, %r2, .LC164@toc@ha
	ld %r4, .LC164@toc@l(%r3)
	ld %r3, 0(%r4)
	addi %r3, %r3, 1
	std %r3, 0(%r4)
	lbz %r4, -9(%r1)
	lwz %r5, -16(%r1)
	srw %r3, %r4, %r5
	subfic %r5, %r5, 8
	slw %r4, %r4, %r5
	or %r3, %r3, %r4
	li %r4, 255
	and %r3, %r3, %r4
	clrldi	%r3, %r3, 56
	blr
	.long	0
	.quad	0
.Lfunc_end79:
	.size	rotr8, .Lfunc_end79-.Lfunc_begin79
	.cfi_endproc
                                        # -- End function
	.globl	bswap_16                        # -- Begin function bswap_16
	.p2align	2
	.type	bswap_16,@function
	.section	.opd,"aw",@progbits
bswap_16:                               # @bswap_16
	.p2align	3, 0x0
	.quad	.Lfunc_begin80
	.quad	.TOC.@tocbase
	.quad	0
	.text
.Lfunc_begin80:
	.cfi_startproc
# %bb.0:
                                        # kill: def $r3 killed $r3 killed $x3
	addis %r4, %r2, .LC165@toc@ha
	ld %r4, .LC165@toc@l(%r4)
	ld %r4, 0(%r4)
	addi %r4, %r4, 1
	addis %r5, %r2, .LC165@toc@ha
	ld %r5, .LC165@toc@l(%r5)
	std %r4, 0(%r5)
	sth %r3, -10(%r1)
	addis %r3, %r2, .LC166@toc@ha
	ld %r3, .LC166@toc@l(%r3)
	ld %r3, 0(%r3)
	addi %r3, %r3, 1
	addis %r4, %r2, .LC166@toc@ha
	ld %r4, .LC166@toc@l(%r4)
	std %r3, 0(%r4)
	li %r3, 255
	sth %r3, -12(%r1)
	lhz %r3, -10(%r1)
	lhz %r4, -12(%r1)
	li %r5, 8
	slw %r4, %r4, %r5
	and %r3, %r3, %r4
	srawi %r3, %r3, 8
	lhz %r4, -10(%r1)
	lhz %r5, -12(%r1)
	li %r6, 0
	slw %r5, %r5, %r6
	and %r4, %r4, %r5
	li %r5, 8
	slw %r4, %r4, %r5
	or %r3, %r3, %r4
	clrldi	%r3, %r3, 48
	blr
	.long	0
	.quad	0
.Lfunc_end80:
	.size	bswap_16, .Lfunc_end80-.Lfunc_begin80
	.cfi_endproc
                                        # -- End function
	.globl	bswap_32                        # -- Begin function bswap_32
	.p2align	2
	.type	bswap_32,@function
	.section	.opd,"aw",@progbits
bswap_32:                               # @bswap_32
	.p2align	3, 0x0
	.quad	.Lfunc_begin81
	.quad	.TOC.@tocbase
	.quad	0
	.text
.Lfunc_begin81:
	.cfi_startproc
# %bb.0:
                                        # kill: def $r3 killed $r3 killed $x3
	addis %r4, %r2, .LC167@toc@ha
	ld %r4, .LC167@toc@l(%r4)
	ld %r4, 0(%r4)
	addi %r4, %r4, 1
	addis %r5, %r2, .LC167@toc@ha
	ld %r5, .LC167@toc@l(%r5)
	std %r4, 0(%r5)
	stw %r3, -12(%r1)
	addis %r3, %r2, .LC168@toc@ha
	ld %r3, .LC168@toc@l(%r3)
	ld %r3, 0(%r3)
	addi %r3, %r3, 1
	addis %r4, %r2, .LC168@toc@ha
	ld %r4, .LC168@toc@l(%r4)
	std %r3, 0(%r4)
	li %r3, 255
	stw %r3, -16(%r1)
	lwz %r3, -12(%r1)
	lwz %r4, -16(%r1)
	li %r5, 24
	slw %r4, %r4, %r5
	and %r3, %r3, %r4
	li %r4, 24
	srw %r3, %r3, %r4
	lwz %r4, -12(%r1)
	lwz %r5, -16(%r1)
	li %r6, 16
	slw %r5, %r5, %r6
	and %r4, %r4, %r5
	li %r5, 8
	srw %r4, %r4, %r5
	or %r3, %r3, %r4
	lwz %r4, -12(%r1)
	lwz %r5, -16(%r1)
	li %r6, 8
	slw %r5, %r5, %r6
	and %r4, %r4, %r5
	li %r5, 8
	slw %r4, %r4, %r5
	or %r3, %r3, %r4
	lwz %r4, -12(%r1)
	lwz %r5, -16(%r1)
	li %r6, 0
	slw %r5, %r5, %r6
	and %r4, %r4, %r5
	li %r5, 24
	slw %r4, %r4, %r5
	or %r3, %r3, %r4
	clrldi	%r3, %r3, 32
	blr
	.long	0
	.quad	0
.Lfunc_end81:
	.size	bswap_32, .Lfunc_end81-.Lfunc_begin81
	.cfi_endproc
                                        # -- End function
	.globl	bswap_64                        # -- Begin function bswap_64
	.p2align	2
	.type	bswap_64,@function
	.section	.opd,"aw",@progbits
bswap_64:                               # @bswap_64
	.p2align	3, 0x0
	.quad	.Lfunc_begin82
	.quad	.TOC.@tocbase
	.quad	0
	.text
.Lfunc_begin82:
	.cfi_startproc
# %bb.0:
	addis %r4, %r2, .LC169@toc@ha
	ld %r5, .LC169@toc@l(%r4)
	ld %r4, 0(%r5)
	addi %r4, %r4, 1
	std %r4, 0(%r5)
	std %r3, -16(%r1)
	addis %r3, %r2, .LC170@toc@ha
	ld %r4, .LC170@toc@l(%r3)
	ld %r3, 0(%r4)
	addi %r3, %r3, 1
	std %r3, 0(%r4)
	li %r3, 255
	std %r3, -24(%r1)
	ld %r4, -16(%r1)
	ld %r5, -24(%r1)
	sldi %r3, %r5, 56
	and %r3, %r4, %r3
	rldicl %r3, %r3, 8, 56
	sldi %r6, %r5, 48
	and %r7, %r4, %r6
	rldicl %r7, %r7, 24, 40
	or %r3, %r3, %r7
	sldi %r7, %r5, 40
	and %r8, %r4, %r7
	rldicl %r8, %r8, 40, 24
	or %r3, %r3, %r8
	sldi %r8, %r5, 32
	and %r9, %r4, %r8
	rldicl %r9, %r9, 56, 8
	or %r3, %r3, %r9
	sldi %r9, %r4, 8
	and %r8, %r8, %r9
	or %r3, %r3, %r8
	sldi %r8, %r4, 24
	and %r7, %r7, %r8
	or %r3, %r3, %r7
	sldi %r7, %r4, 40
	and %r6, %r6, %r7
	or %r3, %r3, %r6
	and %r4, %r4, %r5
	sldi %r4, %r4, 56
	or %r3, %r3, %r4
	blr
	.long	0
	.quad	0
.Lfunc_end82:
	.size	bswap_64, .Lfunc_end82-.Lfunc_begin82
	.cfi_endproc
                                        # -- End function
	.globl	ffs                             # -- Begin function ffs
	.p2align	2
	.type	ffs,@function
	.section	.opd,"aw",@progbits
ffs:                                    # @ffs
	.p2align	3, 0x0
	.quad	.Lfunc_begin83
	.quad	.TOC.@tocbase
	.quad	0
	.text
.Lfunc_begin83:
	.cfi_startproc
# %bb.0:
                                        # kill: def $r3 killed $r3 killed $x3
	stw %r3, -16(%r1)
	addis %r3, %r2, .LC171@toc@ha
	ld %r3, .LC171@toc@l(%r3)
	ld %r3, 0(%r3)
	addi %r3, %r3, 1
	addis %r4, %r2, .LC171@toc@ha
	ld %r4, .LC171@toc@l(%r4)
	std %r3, 0(%r4)
	li %r3, 0
	stw %r3, -20(%r1)
.LBB83_1:                               # =>This Inner Loop Header: Depth=1
	lwz %r3, -20(%r1)
	cmpldi	%r3, 32
	bge %cr0, .LBB83_6
# %bb.2:                                #   in Loop: Header=BB83_1 Depth=1
	addis %r3, %r2, .LC171@toc@ha
	ld %r3, .LC171@toc@l(%r3)
	ld %r3, 8(%r3)
	addi %r3, %r3, 1
	addis %r4, %r2, .LC171@toc@ha
	ld %r4, .LC171@toc@l(%r4)
	std %r3, 8(%r4)
	lwz %r3, -16(%r1)
	lwz %r5, -20(%r1)
	li %r4, 1
	slw %r4, %r4, %r5
	and %r3, %r3, %r4
	cmpwi	%r3, 0
	beq	%cr0, .LBB83_4
# %bb.3:
	addis %r3, %r2, .LC172@toc@ha
	ld %r3, .LC172@toc@l(%r3)
	ld %r3, 0(%r3)
	addi %r3, %r3, 1
	addis %r4, %r2, .LC172@toc@ha
	ld %r4, .LC172@toc@l(%r4)
	std %r3, 0(%r4)
	addis %r3, %r2, .LC171@toc@ha
	ld %r3, .LC171@toc@l(%r3)
	ld %r3, 16(%r3)
	addi %r3, %r3, 1
	addis %r4, %r2, .LC171@toc@ha
	ld %r4, .LC171@toc@l(%r4)
	std %r3, 16(%r4)
	lwz %r3, -20(%r1)
	addi %r3, %r3, 1
	stw %r3, -12(%r1)
	b .LBB83_7
.LBB83_4:                               #   in Loop: Header=BB83_1 Depth=1
	b .LBB83_5
.LBB83_5:                               #   in Loop: Header=BB83_1 Depth=1
	addis %r3, %r2, .LC172@toc@ha
	ld %r3, .LC172@toc@l(%r3)
	ld %r3, 8(%r3)
	addi %r3, %r3, 1
	addis %r4, %r2, .LC172@toc@ha
	ld %r4, .LC172@toc@l(%r4)
	std %r3, 8(%r4)
	lwz %r3, -20(%r1)
	addi %r3, %r3, 1
	stw %r3, -20(%r1)
	b .LBB83_1
.LBB83_6:
	addis %r3, %r2, .LC172@toc@ha
	ld %r3, .LC172@toc@l(%r3)
	ld %r3, 16(%r3)
	addi %r3, %r3, 1
	addis %r4, %r2, .LC172@toc@ha
	ld %r4, .LC172@toc@l(%r4)
	std %r3, 16(%r4)
	li %r3, 0
	stw %r3, -12(%r1)
.LBB83_7:
	lwa %r3, -12(%r1)
	blr
	.long	0
	.quad	0
.Lfunc_end83:
	.size	ffs, .Lfunc_end83-.Lfunc_begin83
	.cfi_endproc
                                        # -- End function
	.globl	libiberty_ffs                   # -- Begin function libiberty_ffs
	.p2align	2
	.type	libiberty_ffs,@function
	.section	.opd,"aw",@progbits
libiberty_ffs:                          # @libiberty_ffs
	.p2align	3, 0x0
	.quad	.Lfunc_begin84
	.quad	.TOC.@tocbase
	.quad	0
	.text
.Lfunc_begin84:
	.cfi_startproc
# %bb.0:
                                        # kill: def $r3 killed $r3 killed $x3
	stw %r3, -16(%r1)
	addis %r3, %r2, .LC173@toc@ha
	ld %r3, .LC173@toc@l(%r3)
	ld %r3, 0(%r3)
	addi %r3, %r3, 1
	addis %r4, %r2, .LC173@toc@ha
	ld %r4, .LC173@toc@l(%r4)
	std %r3, 0(%r4)
	lwz %r3, -16(%r1)
	cmpwi	%r3, 0
	bne	%cr0, .LBB84_2
# %bb.1:
	addis %r3, %r2, .LC174@toc@ha
	ld %r3, .LC174@toc@l(%r3)
	ld %r3, 8(%r3)
	addi %r3, %r3, 1
	addis %r4, %r2, .LC174@toc@ha
	ld %r4, .LC174@toc@l(%r4)
	std %r3, 8(%r4)
	addis %r3, %r2, .LC173@toc@ha
	ld %r3, .LC173@toc@l(%r3)
	ld %r3, 8(%r3)
	addi %r3, %r3, 1
	addis %r4, %r2, .LC173@toc@ha
	ld %r4, .LC173@toc@l(%r4)
	std %r3, 8(%r4)
	li %r3, 0
	stw %r3, -12(%r1)
	b .LBB84_7
.LBB84_2:
	addis %r3, %r2, .LC174@toc@ha
	ld %r3, .LC174@toc@l(%r3)
	ld %r3, 0(%r3)
	addi %r3, %r3, 1
	addis %r4, %r2, .LC174@toc@ha
	ld %r4, .LC174@toc@l(%r4)
	std %r3, 0(%r4)
	li %r3, 1
	stw %r3, -20(%r1)
.LBB84_3:                               # =>This Inner Loop Header: Depth=1
	lbz %r3, -13(%r1)
	clrlwi	%r3, %r3, 31
	cmplwi	%r3, 0
	bne	%cr0, .LBB84_6
	b .LBB84_4
.LBB84_4:                               #   in Loop: Header=BB84_3 Depth=1
	addis %r3, %r2, .LC173@toc@ha
	ld %r3, .LC173@toc@l(%r3)
	ld %r3, 16(%r3)
	addi %r3, %r3, 1
	addis %r4, %r2, .LC173@toc@ha
	ld %r4, .LC173@toc@l(%r4)
	std %r3, 16(%r4)
	lwz %r3, -16(%r1)
	srawi %r3, %r3, 1
	stw %r3, -16(%r1)
# %bb.5:                                #   in Loop: Header=BB84_3 Depth=1
	addis %r3, %r2, .LC174@toc@ha
	ld %r3, .LC174@toc@l(%r3)
	ld %r3, 16(%r3)
	addi %r3, %r3, 1
	addis %r4, %r2, .LC174@toc@ha
	ld %r4, .LC174@toc@l(%r4)
	std %r3, 16(%r4)
	lwz %r3, -20(%r1)
	addi %r3, %r3, 1
	stw %r3, -20(%r1)
	b .LBB84_3
.LBB84_6:
	lwz %r3, -20(%r1)
	stw %r3, -12(%r1)
.LBB84_7:
	lwa %r3, -12(%r1)
	blr
	.long	0
	.quad	0
.Lfunc_end84:
	.size	libiberty_ffs, .Lfunc_end84-.Lfunc_begin84
	.cfi_endproc
                                        # -- End function
	.globl	gl_isinff                       # -- Begin function gl_isinff
	.p2align	2
	.type	gl_isinff,@function
	.section	.opd,"aw",@progbits
gl_isinff:                              # @gl_isinff
	.p2align	3, 0x0
	.quad	.Lfunc_begin85
	.quad	.TOC.@tocbase
	.quad	0
	.text
.Lfunc_begin85:
	.cfi_startproc
# %bb.0:
	mflr %r0
	std %r31, -8(%r1)
	stdu %r1, -160(%r1)
	std %r0, 176(%r1)
	.cfi_def_cfa_offset 160
	.cfi_offset r31, -8
	.cfi_offset lr, 16
	mr	%r31, %r1
	.cfi_def_cfa_register r31
                                        # kill: def $r3 killed $r3 killed $x3
	addis %r4, %r2, .LC175@toc@ha
	ld %r5, .LC175@toc@l(%r4)
	ld %r4, 0(%r5)
	addi %r4, %r4, 1
	std %r4, 0(%r5)
	stw %r3, 148(%r31)
	addis %r3, %r2, .LC176@toc@ha
	ld %r4, .LC176@toc@l(%r3)
	ld %r3, 0(%r4)
	addi %r3, %r3, 1
	std %r3, 0(%r4)
	lwz %r3, 148(%r31)
	li %r4, -129
	rldicl %r4, %r4, 16, 32
	bl __ltsf2
	nop
	mr	%r4, %r3
	li %r3, 1
	cmpwi	%r4, 0
	stw %r3, 144(%r31)                      # 4-byte Folded Spill
	blt	%cr0, .LBB85_5
	b .LBB85_1
.LBB85_1:
	addis %r3, %r2, .LC175@toc@ha
	ld %r4, .LC175@toc@l(%r3)
	ld %r3, 8(%r4)
	addi %r3, %r3, 1
	std %r3, 8(%r4)
	addis %r3, %r2, .LC176@toc@ha
	ld %r4, .LC176@toc@l(%r3)
	ld %r3, 8(%r4)
	addi %r3, %r3, 1
	std %r3, 8(%r4)
	lwz %r3, 148(%r31)
	lis %r4, 32639
	ori %r4, %r4, 65535
	bl __gtsf2
	nop
                                        # kill: def $r3 killed $r3 killed $x3
	cmpwi	%r3, 0
	mfcr %r3                                # cr0
	stw %r3, 132(%r31)
	li %r3, 0
	stw %r3, 136(%r31)                      # 4-byte Folded Spill
	li %r3, 1
	stw %r3, 140(%r31)                      # 4-byte Folded Spill
	bgt	%cr0, .LBB85_3
# %bb.2:
	lwz %r3, 136(%r31)                      # 4-byte Folded Reload
	stw %r3, 140(%r31)                      # 4-byte Folded Spill
.LBB85_3:
	lwz %r3, 132(%r31)
	mtcrf 128, %r3                          # cr0
	lwz %r3, 140(%r31)                      # 4-byte Folded Reload
	stw %r3, 128(%r31)                      # 4-byte Folded Spill
	stw %r3, 144(%r31)                      # 4-byte Folded Spill
	bgt	%cr0, .LBB85_5
	b .LBB85_4
.LBB85_4:
	lwz %r3, 128(%r31)                      # 4-byte Folded Reload
	addis %r4, %r2, .LC175@toc@ha
	ld %r4, .LC175@toc@l(%r4)
	ld %r4, 16(%r4)
	addi %r4, %r4, 1
	addis %r5, %r2, .LC175@toc@ha
	ld %r5, .LC175@toc@l(%r5)
	std %r4, 16(%r5)
	addis %r4, %r2, .LC176@toc@ha
	ld %r4, .LC176@toc@l(%r4)
	ld %r4, 16(%r4)
	addi %r4, %r4, 1
	addis %r5, %r2, .LC176@toc@ha
	ld %r5, .LC176@toc@l(%r5)
	std %r4, 16(%r5)
	stw %r3, 144(%r31)                      # 4-byte Folded Spill
.LBB85_5:
	lwz %r3, 144(%r31)                      # 4-byte Folded Reload
	clrlwi	%r3, %r3, 31
	extsw %r3, %r3
	addi %r1, %r1, 160
	ld %r0, 16(%r1)
	ld %r31, -8(%r1)
	mtlr %r0
	blr
	.long	0
	.quad	0
.Lfunc_end85:
	.size	gl_isinff, .Lfunc_end85-.Lfunc_begin85
	.cfi_endproc
                                        # -- End function
	.globl	gl_isinfd                       # -- Begin function gl_isinfd
	.p2align	2
	.type	gl_isinfd,@function
	.section	.opd,"aw",@progbits
gl_isinfd:                              # @gl_isinfd
	.p2align	3, 0x0
	.quad	.Lfunc_begin86
	.quad	.TOC.@tocbase
	.quad	0
	.text
.Lfunc_begin86:
	.cfi_startproc
# %bb.0:
	mflr %r0
	std %r31, -8(%r1)
	stdu %r1, -176(%r1)
	std %r0, 192(%r1)
	.cfi_def_cfa_offset 176
	.cfi_offset r31, -8
	.cfi_offset lr, 16
	mr	%r31, %r1
	.cfi_def_cfa_register r31
	addis %r4, %r2, .LC177@toc@ha
	ld %r5, .LC177@toc@l(%r4)
	ld %r4, 0(%r5)
	addi %r4, %r4, 1
	std %r4, 0(%r5)
	std %r3, 160(%r31)
	addis %r3, %r2, .LC178@toc@ha
	ld %r4, .LC178@toc@l(%r3)
	ld %r3, 0(%r4)
	addi %r3, %r3, 1
	std %r3, 0(%r4)
	ld %r3, 160(%r31)
	li %r4, -17
	rotldi	%r4, %r4, 48
	bl __ltdf2
	nop
	mr	%r4, %r3
	li %r3, 1
	cmpwi	%r4, 0
	stw %r3, 156(%r31)                      # 4-byte Folded Spill
	blt	%cr0, .LBB86_5
	b .LBB86_1
.LBB86_1:
	addis %r3, %r2, .LC177@toc@ha
	ld %r4, .LC177@toc@l(%r3)
	ld %r3, 8(%r4)
	addi %r3, %r3, 1
	std %r3, 8(%r4)
	addis %r3, %r2, .LC178@toc@ha
	ld %r4, .LC178@toc@l(%r3)
	ld %r3, 8(%r4)
	addi %r3, %r3, 1
	std %r3, 8(%r4)
	ld %r3, 160(%r31)
	li %r4, -33
	rldicl %r4, %r4, 47, 1
	bl __gtdf2
	nop
                                        # kill: def $r3 killed $r3 killed $x3
	cmpwi	%r3, 0
	mfcr %r3                                # cr0
	stw %r3, 144(%r31)
	li %r3, 0
	stw %r3, 148(%r31)                      # 4-byte Folded Spill
	li %r3, 1
	stw %r3, 152(%r31)                      # 4-byte Folded Spill
	bgt	%cr0, .LBB86_3
# %bb.2:
	lwz %r3, 148(%r31)                      # 4-byte Folded Reload
	stw %r3, 152(%r31)                      # 4-byte Folded Spill
.LBB86_3:
	lwz %r3, 144(%r31)
	mtcrf 128, %r3                          # cr0
	lwz %r3, 152(%r31)                      # 4-byte Folded Reload
	stw %r3, 140(%r31)                      # 4-byte Folded Spill
	stw %r3, 156(%r31)                      # 4-byte Folded Spill
	bgt	%cr0, .LBB86_5
	b .LBB86_4
.LBB86_4:
	lwz %r3, 140(%r31)                      # 4-byte Folded Reload
	addis %r4, %r2, .LC177@toc@ha
	ld %r4, .LC177@toc@l(%r4)
	ld %r4, 16(%r4)
	addi %r4, %r4, 1
	addis %r5, %r2, .LC177@toc@ha
	ld %r5, .LC177@toc@l(%r5)
	std %r4, 16(%r5)
	addis %r4, %r2, .LC178@toc@ha
	ld %r4, .LC178@toc@l(%r4)
	ld %r4, 16(%r4)
	addi %r4, %r4, 1
	addis %r5, %r2, .LC178@toc@ha
	ld %r5, .LC178@toc@l(%r5)
	std %r4, 16(%r5)
	stw %r3, 156(%r31)                      # 4-byte Folded Spill
.LBB86_5:
	lwz %r3, 156(%r31)                      # 4-byte Folded Reload
	clrlwi	%r3, %r3, 31
	extsw %r3, %r3
	addi %r1, %r1, 176
	ld %r0, 16(%r1)
	ld %r31, -8(%r1)
	mtlr %r0
	blr
	.long	0
	.quad	0
.Lfunc_end86:
	.size	gl_isinfd, .Lfunc_end86-.Lfunc_begin86
	.cfi_endproc
                                        # -- End function
	.globl	gl_isinfl                       # -- Begin function gl_isinfl
	.p2align	2
	.type	gl_isinfl,@function
	.section	.opd,"aw",@progbits
gl_isinfl:                              # @gl_isinfl
	.p2align	3, 0x0
	.quad	.Lfunc_begin87
	.quad	.TOC.@tocbase
	.quad	0
	.text
.Lfunc_begin87:
	.cfi_startproc
# %bb.0:
	mflr %r0
	std %r31, -8(%r1)
	stdu %r1, -192(%r1)
	std %r0, 208(%r1)
	.cfi_def_cfa_offset 192
	.cfi_offset r31, -8
	.cfi_offset lr, 16
	mr	%r31, %r1
	.cfi_def_cfa_register r31
	addis %r5, %r2, .LC179@toc@ha
	ld %r6, .LC179@toc@l(%r5)
	ld %r5, 0(%r6)
	addi %r5, %r5, 1
	std %r5, 0(%r6)
	std %r4, 168(%r31)
	std %r3, 160(%r31)
	addis %r3, %r2, .LC180@toc@ha
	ld %r4, .LC180@toc@l(%r3)
	ld %r3, 0(%r4)
	addi %r3, %r3, 1
	std %r3, 0(%r4)
	ld %r3, 160(%r31)
	ld %r4, 168(%r31)
	li %r5, -17
	rotldi	%r5, %r5, 48
	li %r6, -4152
	rotldi	%r6, %r6, 52
	bl __gcc_qlt
	nop
	mr	%r4, %r3
	li %r3, 1
	cmpwi	%r4, 0
	stw %r3, 156(%r31)                      # 4-byte Folded Spill
	blt	%cr0, .LBB87_5
	b .LBB87_1
.LBB87_1:
	addis %r3, %r2, .LC179@toc@ha
	ld %r4, .LC179@toc@l(%r3)
	ld %r3, 8(%r4)
	addi %r3, %r3, 1
	std %r3, 8(%r4)
	addis %r3, %r2, .LC180@toc@ha
	ld %r4, .LC180@toc@l(%r3)
	ld %r3, 8(%r4)
	addi %r3, %r3, 1
	std %r3, 8(%r4)
	ld %r3, 160(%r31)
	ld %r4, 168(%r31)
	li %r5, -33
	rldicl %r5, %r5, 47, 1
	li %r6, -6200
	rotldi	%r6, %r6, 52
	bl __gcc_qgt
	nop
                                        # kill: def $r3 killed $r3 killed $x3
	cmpwi	%r3, 0
	mfcr %r3                                # cr0
	stw %r3, 144(%r31)
	li %r3, 0
	stw %r3, 148(%r31)                      # 4-byte Folded Spill
	li %r3, 1
	stw %r3, 152(%r31)                      # 4-byte Folded Spill
	bgt	%cr0, .LBB87_3
# %bb.2:
	lwz %r3, 148(%r31)                      # 4-byte Folded Reload
	stw %r3, 152(%r31)                      # 4-byte Folded Spill
.LBB87_3:
	lwz %r3, 144(%r31)
	mtcrf 128, %r3                          # cr0
	lwz %r3, 152(%r31)                      # 4-byte Folded Reload
	stw %r3, 140(%r31)                      # 4-byte Folded Spill
	stw %r3, 156(%r31)                      # 4-byte Folded Spill
	bgt	%cr0, .LBB87_5
	b .LBB87_4
.LBB87_4:
	lwz %r3, 140(%r31)                      # 4-byte Folded Reload
	addis %r4, %r2, .LC179@toc@ha
	ld %r4, .LC179@toc@l(%r4)
	ld %r4, 16(%r4)
	addi %r4, %r4, 1
	addis %r5, %r2, .LC179@toc@ha
	ld %r5, .LC179@toc@l(%r5)
	std %r4, 16(%r5)
	addis %r4, %r2, .LC180@toc@ha
	ld %r4, .LC180@toc@l(%r4)
	ld %r4, 16(%r4)
	addi %r4, %r4, 1
	addis %r5, %r2, .LC180@toc@ha
	ld %r5, .LC180@toc@l(%r5)
	std %r4, 16(%r5)
	stw %r3, 156(%r31)                      # 4-byte Folded Spill
.LBB87_5:
	lwz %r3, 156(%r31)                      # 4-byte Folded Reload
	clrlwi	%r3, %r3, 31
	extsw %r3, %r3
	addi %r1, %r1, 192
	ld %r0, 16(%r1)
	ld %r31, -8(%r1)
	mtlr %r0
	blr
	.long	0
	.quad	0
.Lfunc_end87:
	.size	gl_isinfl, .Lfunc_end87-.Lfunc_begin87
	.cfi_endproc
                                        # -- End function
	.globl	_Qp_itoq                        # -- Begin function _Qp_itoq
	.p2align	2
	.type	_Qp_itoq,@function
	.section	.opd,"aw",@progbits
_Qp_itoq:                               # @_Qp_itoq
	.p2align	3, 0x0
	.quad	.Lfunc_begin88
	.quad	.TOC.@tocbase
	.quad	0
	.text
.Lfunc_begin88:
	.cfi_startproc
# %bb.0:
	mflr %r0
	std %r31, -8(%r1)
	stdu %r1, -144(%r1)
	std %r0, 160(%r1)
	.cfi_def_cfa_offset 144
	.cfi_offset r31, -8
	.cfi_offset lr, 16
	mr	%r31, %r1
	.cfi_def_cfa_register r31
	std %r4, 112(%r31)                      # 8-byte Folded Spill
	mr	%r4, %r3
	ld %r3, 112(%r31)                       # 8-byte Folded Reload
                                        # kill: def $r3 killed $r3 killed $x3
	addis %r5, %r2, .LC181@toc@ha
	ld %r6, .LC181@toc@l(%r5)
	ld %r5, 0(%r6)
	addi %r5, %r5, 1
	std %r5, 0(%r6)
	std %r4, 128(%r31)
	stw %r3, 124(%r31)
	addis %r3, %r2, .LC182@toc@ha
	ld %r4, .LC182@toc@l(%r3)
	ld %r3, 0(%r4)
	addi %r3, %r3, 1
	std %r3, 0(%r4)
	lwa %r3, 124(%r31)
	bl __floatsidf
	nop
	bl __gcc_dtoq
	nop
	mr	%r5, %r4
	ld %r4, 128(%r31)
	std %r5, 8(%r4)
	std %r3, 0(%r4)
	addi %r1, %r1, 144
	ld %r0, 16(%r1)
	ld %r31, -8(%r1)
	mtlr %r0
	blr
	.long	0
	.quad	0
.Lfunc_end88:
	.size	_Qp_itoq, .Lfunc_end88-.Lfunc_begin88
	.cfi_endproc
                                        # -- End function
	.globl	ldexpf                          # -- Begin function ldexpf
	.p2align	2
	.type	ldexpf,@function
	.section	.opd,"aw",@progbits
ldexpf:                                 # @ldexpf
	.p2align	3, 0x0
	.quad	.Lfunc_begin89
	.quad	.TOC.@tocbase
	.quad	0
	.text
.Lfunc_begin89:
	.cfi_startproc
# %bb.0:
	mflr %r0
	std %r31, -8(%r1)
	stdu %r1, -160(%r1)
	std %r0, 176(%r1)
	.cfi_def_cfa_offset 160
	.cfi_offset r31, -8
	.cfi_offset lr, 16
	mr	%r31, %r1
	.cfi_def_cfa_register r31
	std %r4, 128(%r31)                      # 8-byte Folded Spill
	mr	%r4, %r3
	ld %r3, 128(%r31)                       # 8-byte Folded Reload
                                        # kill: def $r3 killed $r3 killed $x3
                                        # kill: def $r4 killed $r4 killed $x4
	addis %r5, %r2, .LC183@toc@ha
	ld %r6, .LC183@toc@l(%r5)
	ld %r5, 0(%r6)
	addi %r5, %r5, 1
	std %r5, 0(%r6)
	stw %r4, 148(%r31)
	stw %r3, 144(%r31)
	addis %r3, %r2, .LC184@toc@ha
	ld %r4, .LC184@toc@l(%r3)
	ld %r3, 0(%r4)
	addi %r3, %r3, 1
	std %r3, 0(%r4)
	lwz %r3, 148(%r31)
	clrlwi	%r3, %r3, 1
	lis %r4, 32640
	cmpw	%r3, %r4
	bgt	%cr0, .LBB89_12
	b .LBB89_1
.LBB89_1:
	addis %r3, %r2, .LC183@toc@ha
	ld %r4, .LC183@toc@l(%r3)
	ld %r3, 8(%r4)
	addi %r3, %r3, 1
	std %r3, 8(%r4)
	addis %r3, %r2, .LC184@toc@ha
	ld %r4, .LC184@toc@l(%r3)
	ld %r3, 16(%r4)
	addi %r3, %r3, 1
	std %r3, 16(%r4)
	lwz %r4, 148(%r31)
	std %r4, 120(%r31)                      # 8-byte Folded Spill
	mr	%r3, %r4
	bl __addsf3
	nop
	ld %r4, 120(%r31)                       # 8-byte Folded Reload
	bl __eqsf2
	nop
                                        # kill: def $r3 killed $r3 killed $x3
	cmplwi	%r3, 0
	beq	%cr0, .LBB89_12
	b .LBB89_2
.LBB89_2:
	addis %r3, %r2, .LC183@toc@ha
	ld %r3, .LC183@toc@l(%r3)
	ld %r3, 16(%r3)
	addi %r3, %r3, 1
	addis %r4, %r2, .LC183@toc@ha
	ld %r4, .LC183@toc@l(%r4)
	std %r3, 16(%r4)
	addis %r3, %r2, .LC184@toc@ha
	ld %r3, .LC184@toc@l(%r3)
	ld %r3, 24(%r3)
	addi %r3, %r3, 1
	addis %r4, %r2, .LC184@toc@ha
	ld %r4, .LC184@toc@l(%r4)
	std %r3, 24(%r4)
# %bb.3:
	addis %r3, %r2, .LC184@toc@ha
	ld %r5, .LC184@toc@l(%r3)
	ld %r3, 8(%r5)
	addi %r3, %r3, 1
	std %r3, 8(%r5)
	lwz %r3, 144(%r31)
	srwi %r6, %r3, 31
                                        # implicit-def: $x4
	mr	%r4, %r6
	clrldi	%r6, %r4, 32
	ld %r4, 32(%r5)
	add %r4, %r4, %r6
	std %r4, 32(%r5)
	cmpwi	%r3, 0
	lis %r3, 16384
	stw %r3, 112(%r31)                      # 4-byte Folded Spill
	lis %r3, 16128
	stw %r3, 116(%r31)                      # 4-byte Folded Spill
	blt	%cr0, .LBB89_5
# %bb.4:
	lwz %r3, 112(%r31)                      # 4-byte Folded Reload
	stw %r3, 116(%r31)                      # 4-byte Folded Spill
.LBB89_5:
	lwz %r3, 116(%r31)                      # 4-byte Folded Reload
	stw %r3, 140(%r31)
.LBB89_6:                               # =>This Inner Loop Header: Depth=1
	addis %r3, %r2, .LC184@toc@ha
	ld %r4, .LC184@toc@l(%r3)
	ld %r3, 40(%r4)
	addi %r3, %r3, 1
	std %r3, 40(%r4)
	lwz %r4, 144(%r31)
	srawi %r3, %r4, 1
	addze %r3, %r3
	slwi %r3, %r3, 1
	sub	%r3, %r4, %r3
	cmpwi	%r3, 0
	beq	%cr0, .LBB89_8
# %bb.7:                                #   in Loop: Header=BB89_6 Depth=1
	addis %r3, %r2, .LC183@toc@ha
	ld %r4, .LC183@toc@l(%r3)
	ld %r3, 24(%r4)
	addi %r3, %r3, 1
	std %r3, 24(%r4)
	addis %r3, %r2, .LC184@toc@ha
	ld %r4, .LC184@toc@l(%r3)
	ld %r3, 48(%r4)
	addi %r3, %r3, 1
	std %r3, 48(%r4)
	lwz %r4, 140(%r31)
	lwz %r3, 148(%r31)
	bl __mulsf3
	nop
	stw %r3, 148(%r31)
.LBB89_8:                               #   in Loop: Header=BB89_6 Depth=1
	lwz %r3, 144(%r31)
	li %r4, 2
	divw %r3, %r3, %r4
	stw %r3, 144(%r31)
	lwz %r3, 144(%r31)
	cmpwi	%r3, 0
	bne	%cr0, .LBB89_10
# %bb.9:
	addis %r3, %r2, .LC184@toc@ha
	ld %r3, .LC184@toc@l(%r3)
	ld %r3, 56(%r3)
	addi %r3, %r3, 1
	addis %r4, %r2, .LC184@toc@ha
	ld %r4, .LC184@toc@l(%r4)
	std %r3, 56(%r4)
	b .LBB89_11
.LBB89_10:                              #   in Loop: Header=BB89_6 Depth=1
	addis %r3, %r2, .LC183@toc@ha
	ld %r4, .LC183@toc@l(%r3)
	ld %r3, 32(%r4)
	addi %r3, %r3, 1
	std %r3, 32(%r4)
	lwz %r4, 140(%r31)
	mr	%r3, %r4
	bl __mulsf3
	nop
	stw %r3, 140(%r31)
	b .LBB89_6
.LBB89_11:
	b .LBB89_12
.LBB89_12:
	lwz %r3, 148(%r31)
	addi %r1, %r1, 160
	ld %r0, 16(%r1)
	ld %r31, -8(%r1)
	mtlr %r0
	blr
	.long	0
	.quad	0
.Lfunc_end89:
	.size	ldexpf, .Lfunc_end89-.Lfunc_begin89
	.cfi_endproc
                                        # -- End function
	.globl	ldexp                           # -- Begin function ldexp
	.p2align	2
	.type	ldexp,@function
	.section	.opd,"aw",@progbits
ldexp:                                  # @ldexp
	.p2align	3, 0x0
	.quad	.Lfunc_begin90
	.quad	.TOC.@tocbase
	.quad	0
	.text
.Lfunc_begin90:
	.cfi_startproc
# %bb.0:
	mflr %r0
	std %r31, -8(%r1)
	stdu %r1, -176(%r1)
	std %r0, 192(%r1)
	.cfi_def_cfa_offset 176
	.cfi_offset r31, -8
	.cfi_offset lr, 16
	mr	%r31, %r1
	.cfi_def_cfa_register r31
	std %r4, 136(%r31)                      # 8-byte Folded Spill
	mr	%r4, %r3
	ld %r3, 136(%r31)                       # 8-byte Folded Reload
                                        # kill: def $r3 killed $r3 killed $x3
	addis %r5, %r2, .LC185@toc@ha
	ld %r6, .LC185@toc@l(%r5)
	ld %r5, 0(%r6)
	addi %r5, %r5, 1
	std %r5, 0(%r6)
	std %r4, 160(%r31)
	stw %r3, 156(%r31)
	addis %r3, %r2, .LC186@toc@ha
	ld %r4, .LC186@toc@l(%r3)
	ld %r3, 0(%r4)
	addi %r3, %r3, 1
	std %r3, 0(%r4)
	ld %r3, 160(%r31)
	clrldi	%r3, %r3, 1
	li %r4, 2047
	rldic %r4, %r4, 52, 1
	cmpd	%r3, %r4
	bgt	%cr0, .LBB90_12
	b .LBB90_1
.LBB90_1:
	addis %r3, %r2, .LC185@toc@ha
	ld %r4, .LC185@toc@l(%r3)
	ld %r3, 8(%r4)
	addi %r3, %r3, 1
	std %r3, 8(%r4)
	addis %r3, %r2, .LC186@toc@ha
	ld %r4, .LC186@toc@l(%r3)
	ld %r3, 16(%r4)
	addi %r3, %r3, 1
	std %r3, 16(%r4)
	ld %r4, 160(%r31)
	std %r4, 128(%r31)                      # 8-byte Folded Spill
	mr	%r3, %r4
	bl __adddf3
	nop
	ld %r4, 128(%r31)                       # 8-byte Folded Reload
	bl __eqdf2
	nop
                                        # kill: def $r3 killed $r3 killed $x3
	cmplwi	%r3, 0
	beq	%cr0, .LBB90_12
	b .LBB90_2
.LBB90_2:
	addis %r3, %r2, .LC185@toc@ha
	ld %r3, .LC185@toc@l(%r3)
	ld %r3, 16(%r3)
	addi %r3, %r3, 1
	addis %r4, %r2, .LC185@toc@ha
	ld %r4, .LC185@toc@l(%r4)
	std %r3, 16(%r4)
	addis %r3, %r2, .LC186@toc@ha
	ld %r3, .LC186@toc@l(%r3)
	ld %r3, 24(%r3)
	addi %r3, %r3, 1
	addis %r4, %r2, .LC186@toc@ha
	ld %r4, .LC186@toc@l(%r4)
	std %r3, 24(%r4)
# %bb.3:
	addis %r3, %r2, .LC186@toc@ha
	ld %r5, .LC186@toc@l(%r3)
	ld %r3, 8(%r5)
	addi %r3, %r3, 1
	std %r3, 8(%r5)
	lwz %r3, 156(%r31)
	srwi %r6, %r3, 31
                                        # implicit-def: $x4
	mr	%r4, %r6
	clrldi	%r6, %r4, 32
	ld %r4, 32(%r5)
	add %r4, %r4, %r6
	std %r4, 32(%r5)
	cmpwi	%r3, 0
	li %r3, 1
	rldic %r3, %r3, 62, 1
	std %r3, 112(%r31)                      # 8-byte Folded Spill
	li %r3, 511
	rldic %r3, %r3, 53, 2
	std %r3, 120(%r31)                      # 8-byte Folded Spill
	blt	%cr0, .LBB90_5
# %bb.4:
	ld %r3, 112(%r31)                       # 8-byte Folded Reload
	std %r3, 120(%r31)                      # 8-byte Folded Spill
.LBB90_5:
	ld %r3, 120(%r31)                       # 8-byte Folded Reload
	std %r3, 144(%r31)
.LBB90_6:                               # =>This Inner Loop Header: Depth=1
	addis %r3, %r2, .LC186@toc@ha
	ld %r4, .LC186@toc@l(%r3)
	ld %r3, 40(%r4)
	addi %r3, %r3, 1
	std %r3, 40(%r4)
	lwz %r4, 156(%r31)
	srawi %r3, %r4, 1
	addze %r3, %r3
	slwi %r3, %r3, 1
	sub	%r3, %r4, %r3
	cmpwi	%r3, 0
	beq	%cr0, .LBB90_8
# %bb.7:                                #   in Loop: Header=BB90_6 Depth=1
	addis %r3, %r2, .LC185@toc@ha
	ld %r4, .LC185@toc@l(%r3)
	ld %r3, 24(%r4)
	addi %r3, %r3, 1
	std %r3, 24(%r4)
	addis %r3, %r2, .LC186@toc@ha
	ld %r4, .LC186@toc@l(%r3)
	ld %r3, 48(%r4)
	addi %r3, %r3, 1
	std %r3, 48(%r4)
	ld %r4, 144(%r31)
	ld %r3, 160(%r31)
	bl __muldf3
	nop
	std %r3, 160(%r31)
.LBB90_8:                               #   in Loop: Header=BB90_6 Depth=1
	lwz %r3, 156(%r31)
	li %r4, 2
	divw %r3, %r3, %r4
	stw %r3, 156(%r31)
	lwz %r3, 156(%r31)
	cmpwi	%r3, 0
	bne	%cr0, .LBB90_10
# %bb.9:
	addis %r3, %r2, .LC186@toc@ha
	ld %r3, .LC186@toc@l(%r3)
	ld %r3, 56(%r3)
	addi %r3, %r3, 1
	addis %r4, %r2, .LC186@toc@ha
	ld %r4, .LC186@toc@l(%r4)
	std %r3, 56(%r4)
	b .LBB90_11
.LBB90_10:                              #   in Loop: Header=BB90_6 Depth=1
	addis %r3, %r2, .LC185@toc@ha
	ld %r4, .LC185@toc@l(%r3)
	ld %r3, 32(%r4)
	addi %r3, %r3, 1
	std %r3, 32(%r4)
	ld %r4, 144(%r31)
	mr	%r3, %r4
	bl __muldf3
	nop
	std %r3, 144(%r31)
	b .LBB90_6
.LBB90_11:
	b .LBB90_12
.LBB90_12:
	ld %r3, 160(%r31)
	addi %r1, %r1, 176
	ld %r0, 16(%r1)
	ld %r31, -8(%r1)
	mtlr %r0
	blr
	.long	0
	.quad	0
.Lfunc_end90:
	.size	ldexp, .Lfunc_end90-.Lfunc_begin90
	.cfi_endproc
                                        # -- End function
	.globl	ldexpl                          # -- Begin function ldexpl
	.p2align	2
	.type	ldexpl,@function
	.section	.opd,"aw",@progbits
ldexpl:                                 # @ldexpl
	.p2align	3, 0x0
	.quad	.Lfunc_begin91
	.quad	.TOC.@tocbase
	.quad	0
	.text
.Lfunc_begin91:
	.cfi_startproc
# %bb.0:
	mflr %r0
	std %r31, -8(%r1)
	stdu %r1, -224(%r1)
	std %r0, 240(%r1)
	.cfi_def_cfa_offset 224
	.cfi_offset r31, -8
	.cfi_offset lr, 16
	mr	%r31, %r1
	.cfi_def_cfa_register r31
	std %r5, 152(%r31)                      # 8-byte Folded Spill
	mr	%r5, %r4
	mr	%r4, %r3
	ld %r3, 152(%r31)                       # 8-byte Folded Reload
                                        # kill: def $r3 killed $r3 killed $x3
	addis %r6, %r2, .LC187@toc@ha
	ld %r7, .LC187@toc@l(%r6)
	ld %r6, 0(%r7)
	addi %r6, %r6, 1
	std %r6, 0(%r7)
	std %r5, 200(%r31)
	std %r4, 192(%r31)
	stw %r3, 188(%r31)
	addis %r3, %r2, .LC188@toc@ha
	ld %r4, .LC188@toc@l(%r3)
	ld %r3, 0(%r4)
	addi %r3, %r3, 1
	std %r3, 0(%r4)
	ld %r3, 192(%r31)
	clrldi	%r3, %r3, 1
	li %r4, 2047
	rldic %r4, %r4, 52, 1
	cmpd	%r3, %r4
	bgt	%cr0, .LBB91_12
	b .LBB91_1
.LBB91_1:
	addis %r3, %r2, .LC187@toc@ha
	ld %r4, .LC187@toc@l(%r3)
	ld %r3, 8(%r4)
	addi %r3, %r3, 1
	std %r3, 8(%r4)
	addis %r3, %r2, .LC188@toc@ha
	ld %r4, .LC188@toc@l(%r3)
	ld %r3, 16(%r4)
	addi %r3, %r3, 1
	std %r3, 16(%r4)
	ld %r5, 192(%r31)
	std %r5, 136(%r31)                      # 8-byte Folded Spill
	ld %r6, 200(%r31)
	std %r6, 144(%r31)                      # 8-byte Folded Spill
	mr	%r3, %r5
	mr	%r4, %r6
	bl __gcc_qadd
	nop
	ld %r5, 136(%r31)                       # 8-byte Folded Reload
	ld %r6, 144(%r31)                       # 8-byte Folded Reload
	bl __gcc_qeq
	nop
                                        # kill: def $r3 killed $r3 killed $x3
	cmplwi	%r3, 0
	beq	%cr0, .LBB91_12
	b .LBB91_2
.LBB91_2:
	addis %r3, %r2, .LC187@toc@ha
	ld %r3, .LC187@toc@l(%r3)
	ld %r3, 16(%r3)
	addi %r3, %r3, 1
	addis %r4, %r2, .LC187@toc@ha
	ld %r4, .LC187@toc@l(%r4)
	std %r3, 16(%r4)
	addis %r3, %r2, .LC188@toc@ha
	ld %r3, .LC188@toc@l(%r3)
	ld %r3, 24(%r3)
	addi %r3, %r3, 1
	addis %r4, %r2, .LC188@toc@ha
	ld %r4, .LC188@toc@l(%r4)
	std %r3, 24(%r4)
# %bb.3:
	addis %r3, %r2, .LC188@toc@ha
	ld %r5, .LC188@toc@l(%r3)
	ld %r3, 8(%r5)
	addi %r3, %r3, 1
	std %r3, 8(%r5)
	lwz %r3, 188(%r31)
	srwi %r6, %r3, 31
                                        # implicit-def: $x4
	mr	%r4, %r6
	clrldi	%r6, %r4, 32
	ld %r4, 32(%r5)
	add %r4, %r4, %r6
	std %r4, 32(%r5)
	cmpwi	%r3, 0
	li %r3, 1
	rldic %r3, %r3, 62, 1
	std %r3, 120(%r31)                      # 8-byte Folded Spill
	li %r3, 511
	rldic %r3, %r3, 53, 2
	std %r3, 128(%r31)                      # 8-byte Folded Spill
	blt	%cr0, .LBB91_5
# %bb.4:
	ld %r3, 120(%r31)                       # 8-byte Folded Reload
	std %r3, 128(%r31)                      # 8-byte Folded Spill
.LBB91_5:
	ld %r3, 128(%r31)                       # 8-byte Folded Reload
	li %r4, 0
	std %r4, 168(%r31)
	std %r3, 160(%r31)
.LBB91_6:                               # =>This Inner Loop Header: Depth=1
	addis %r3, %r2, .LC188@toc@ha
	ld %r4, .LC188@toc@l(%r3)
	ld %r3, 40(%r4)
	addi %r3, %r3, 1
	std %r3, 40(%r4)
	lwz %r4, 188(%r31)
	srawi %r3, %r4, 1
	addze %r3, %r3
	slwi %r3, %r3, 1
	sub	%r3, %r4, %r3
	cmpwi	%r3, 0
	beq	%cr0, .LBB91_8
# %bb.7:                                #   in Loop: Header=BB91_6 Depth=1
	addis %r3, %r2, .LC187@toc@ha
	ld %r4, .LC187@toc@l(%r3)
	ld %r3, 24(%r4)
	addi %r3, %r3, 1
	std %r3, 24(%r4)
	addis %r3, %r2, .LC188@toc@ha
	ld %r4, .LC188@toc@l(%r3)
	ld %r3, 48(%r4)
	addi %r3, %r3, 1
	std %r3, 48(%r4)
	ld %r5, 160(%r31)
	ld %r6, 168(%r31)
	ld %r3, 192(%r31)
	ld %r4, 200(%r31)
	bl __gcc_qmul
	nop
	std %r4, 200(%r31)
	std %r3, 192(%r31)
.LBB91_8:                               #   in Loop: Header=BB91_6 Depth=1
	lwz %r3, 188(%r31)
	li %r4, 2
	divw %r3, %r3, %r4
	stw %r3, 188(%r31)
	lwz %r3, 188(%r31)
	cmpwi	%r3, 0
	bne	%cr0, .LBB91_10
# %bb.9:
	addis %r3, %r2, .LC188@toc@ha
	ld %r3, .LC188@toc@l(%r3)
	ld %r3, 56(%r3)
	addi %r3, %r3, 1
	addis %r4, %r2, .LC188@toc@ha
	ld %r4, .LC188@toc@l(%r4)
	std %r3, 56(%r4)
	b .LBB91_11
.LBB91_10:                              #   in Loop: Header=BB91_6 Depth=1
	addis %r3, %r2, .LC187@toc@ha
	ld %r4, .LC187@toc@l(%r3)
	ld %r3, 32(%r4)
	addi %r3, %r3, 1
	std %r3, 32(%r4)
	ld %r5, 160(%r31)
	ld %r6, 168(%r31)
	mr	%r3, %r5
	mr	%r4, %r6
	bl __gcc_qmul
	nop
	std %r4, 168(%r31)
	std %r3, 160(%r31)
	b .LBB91_6
.LBB91_11:
	b .LBB91_12
.LBB91_12:
	ld %r3, 192(%r31)
	ld %r4, 200(%r31)
	addi %r1, %r1, 224
	ld %r0, 16(%r1)
	ld %r31, -8(%r1)
	mtlr %r0
	blr
	.long	0
	.quad	0
.Lfunc_end91:
	.size	ldexpl, .Lfunc_end91-.Lfunc_begin91
	.cfi_endproc
                                        # -- End function
	.globl	memxor                          # -- Begin function memxor
	.p2align	2
	.type	memxor,@function
	.section	.opd,"aw",@progbits
memxor:                                 # @memxor
	.p2align	3, 0x0
	.quad	.Lfunc_begin92
	.quad	.TOC.@tocbase
	.quad	0
	.text
.Lfunc_begin92:
	.cfi_startproc
# %bb.0:
	addis %r6, %r2, .LC189@toc@ha
	ld %r6, .LC189@toc@l(%r6)
	ld %r6, 0(%r6)
	addi %r6, %r6, 1
	addis %r7, %r2, .LC189@toc@ha
	ld %r7, .LC189@toc@l(%r7)
	std %r6, 0(%r7)
	std %r3, -16(%r1)
	std %r4, -24(%r1)
	std %r5, -32(%r1)
	addis %r3, %r2, .LC190@toc@ha
	ld %r3, .LC190@toc@l(%r3)
	ld %r3, 0(%r3)
	addi %r3, %r3, 1
	addis %r4, %r2, .LC190@toc@ha
	ld %r4, .LC190@toc@l(%r4)
	std %r3, 0(%r4)
	ld %r3, -24(%r1)
	std %r3, -40(%r1)
	ld %r3, -16(%r1)
	std %r3, -48(%r1)
.LBB92_1:                               # =>This Inner Loop Header: Depth=1
	ld %r3, -32(%r1)
	cmpldi	%r3, 0
	ble %cr0, .LBB92_4
# %bb.2:                                #   in Loop: Header=BB92_1 Depth=1
	addis %r3, %r2, .LC190@toc@ha
	ld %r3, .LC190@toc@l(%r3)
	ld %r3, 8(%r3)
	addi %r3, %r3, 1
	addis %r4, %r2, .LC190@toc@ha
	ld %r4, .LC190@toc@l(%r4)
	std %r3, 8(%r4)
	ld %r3, -40(%r1)
	addi %r4, %r3, 1
	std %r4, -40(%r1)
	lbz %r5, 0(%r3)
	ld %r4, -48(%r1)
	addi %r3, %r4, 1
	std %r3, -48(%r1)
	lbz %r3, 0(%r4)
	xor %r3, %r3, %r5
	stb %r3, 0(%r4)
# %bb.3:                                #   in Loop: Header=BB92_1 Depth=1
	addis %r3, %r2, .LC189@toc@ha
	ld %r3, .LC189@toc@l(%r3)
	ld %r3, 8(%r3)
	addi %r3, %r3, 1
	addis %r4, %r2, .LC189@toc@ha
	ld %r4, .LC189@toc@l(%r4)
	std %r3, 8(%r4)
	ld %r3, -32(%r1)
	addi %r3, %r3, -1
	std %r3, -32(%r1)
	b .LBB92_1
.LBB92_4:
	ld %r3, -16(%r1)
	blr
	.long	0
	.quad	0
.Lfunc_end92:
	.size	memxor, .Lfunc_end92-.Lfunc_begin92
	.cfi_endproc
                                        # -- End function
	.globl	strncat                         # -- Begin function strncat
	.p2align	2
	.type	strncat,@function
	.section	.opd,"aw",@progbits
strncat:                                # @strncat
	.p2align	3, 0x0
	.quad	.Lfunc_begin93
	.quad	.TOC.@tocbase
	.quad	0
	.text
.Lfunc_begin93:
	.cfi_startproc
# %bb.0:
	mflr %r0
	std %r31, -8(%r1)
	stdu %r1, -192(%r1)
	std %r0, 208(%r1)
	.cfi_def_cfa_offset 192
	.cfi_offset r31, -8
	.cfi_offset lr, 16
	mr	%r31, %r1
	.cfi_def_cfa_register r31
	std %r3, 176(%r31)
	std %r4, 168(%r31)
	std %r5, 160(%r31)
	addis %r3, %r2, .LC191@toc@ha
	ld %r3, .LC191@toc@l(%r3)
	ld %r3, 0(%r3)
	addi %r3, %r3, 1
	addis %r4, %r2, .LC191@toc@ha
	ld %r4, .LC191@toc@l(%r4)
	std %r3, 0(%r4)
	ld %r3, 176(%r31)
	std %r3, 144(%r31)                      # 8-byte Folded Spill
	ld %r3, 176(%r31)
	mr	%r4, %r2
	std %r4, 40(%r1)
	addis %r4, %r2, .LC192@toc@ha
	ld %r4, .LC192@toc@l(%r4)
	ld %r5, 8(%r4)
	ld %r11, 16(%r4)
	ld %r4, 0(%r4)
	mr	%r2, %r5
	mtctr %r4
	bctrl
	ld 2, 40(%r1)
	mr	%r4, %r3
	ld %r3, 144(%r31)                       # 8-byte Folded Reload
	add %r3, %r3, %r4
	std %r3, 152(%r31)
.LBB93_1:                               # =>This Inner Loop Header: Depth=1
	ld %r4, 160(%r31)
	li %r3, 0
	cmpldi	%r4, 0
	stw %r3, 140(%r31)                      # 4-byte Folded Spill
	ble %cr0, .LBB93_6
# %bb.2:                                #   in Loop: Header=BB93_1 Depth=1
	addis %r3, %r2, .LC193@toc@ha
	ld %r4, .LC193@toc@l(%r3)
	ld %r3, 0(%r4)
	addi %r3, %r3, 1
	std %r3, 0(%r4)
	addis %r3, %r2, .LC191@toc@ha
	ld %r4, .LC191@toc@l(%r3)
	ld %r3, 16(%r4)
	addi %r3, %r3, 1
	std %r3, 16(%r4)
	ld %r3, 168(%r31)
	lbz %r3, 0(%r3)
	stw %r3, 128(%r31)                      # 4-byte Folded Spill
	ld %r4, 152(%r31)
	stb %r3, 0(%r4)
	cmplwi	%r3, 0
	li %r3, 0
	stw %r3, 132(%r31)                      # 4-byte Folded Spill
	li %r3, 1
	stw %r3, 136(%r31)                      # 4-byte Folded Spill
	bne	%cr0, .LBB93_4
# %bb.3:                                #   in Loop: Header=BB93_1 Depth=1
	lwz %r3, 132(%r31)                      # 4-byte Folded Reload
	stw %r3, 136(%r31)                      # 4-byte Folded Spill
.LBB93_4:                               #   in Loop: Header=BB93_1 Depth=1
	lwz %r4, 128(%r31)                      # 4-byte Folded Reload
	lwz %r3, 136(%r31)                      # 4-byte Folded Reload
	stw %r3, 124(%r31)                      # 4-byte Folded Spill
	cmpwi	%r4, 0
	stw %r3, 140(%r31)                      # 4-byte Folded Spill
	beq	%cr0, .LBB93_6
# %bb.5:                                #   in Loop: Header=BB93_1 Depth=1
	lwz %r3, 124(%r31)                      # 4-byte Folded Reload
	addis %r4, %r2, .LC193@toc@ha
	ld %r4, .LC193@toc@l(%r4)
	ld %r4, 8(%r4)
	addi %r4, %r4, 1
	addis %r5, %r2, .LC193@toc@ha
	ld %r5, .LC193@toc@l(%r5)
	std %r4, 8(%r5)
	addis %r4, %r2, .LC191@toc@ha
	ld %r4, .LC191@toc@l(%r4)
	ld %r4, 24(%r4)
	addi %r4, %r4, 1
	addis %r5, %r2, .LC191@toc@ha
	ld %r5, .LC191@toc@l(%r5)
	std %r4, 24(%r5)
	stw %r3, 140(%r31)                      # 4-byte Folded Spill
.LBB93_6:                               #   in Loop: Header=BB93_1 Depth=1
	lwz %r3, 140(%r31)                      # 4-byte Folded Reload
	clrlwi	%r3, %r3, 31
	cmplwi	%r3, 0
	beq	%cr0, .LBB93_9
	b .LBB93_7
.LBB93_7:                               #   in Loop: Header=BB93_1 Depth=1
	addis %r3, %r2, .LC191@toc@ha
	ld %r3, .LC191@toc@l(%r3)
	ld %r3, 8(%r3)
	addi %r3, %r3, 1
	addis %r4, %r2, .LC191@toc@ha
	ld %r4, .LC191@toc@l(%r4)
	std %r3, 8(%r4)
# %bb.8:                                #   in Loop: Header=BB93_1 Depth=1
	addis %r3, %r2, .LC193@toc@ha
	ld %r3, .LC193@toc@l(%r3)
	ld %r3, 24(%r3)
	addi %r3, %r3, 1
	addis %r4, %r2, .LC193@toc@ha
	ld %r4, .LC193@toc@l(%r4)
	std %r3, 24(%r4)
	ld %r3, 168(%r31)
	addi %r3, %r3, 1
	std %r3, 168(%r31)
	ld %r3, 152(%r31)
	addi %r3, %r3, 1
	std %r3, 152(%r31)
	ld %r3, 160(%r31)
	addi %r3, %r3, -1
	std %r3, 160(%r31)
	b .LBB93_1
.LBB93_9:
	addis %r3, %r2, .LC193@toc@ha
	ld %r3, .LC193@toc@l(%r3)
	ld %r3, 16(%r3)
	addi %r3, %r3, 1
	addis %r4, %r2, .LC193@toc@ha
	ld %r4, .LC193@toc@l(%r4)
	std %r3, 16(%r4)
	ld %r3, 160(%r31)
	cmpdi	%r3, 0
	bne	%cr0, .LBB93_11
# %bb.10:
	addis %r3, %r2, .LC193@toc@ha
	ld %r3, .LC193@toc@l(%r3)
	ld %r3, 32(%r3)
	addi %r3, %r3, 1
	addis %r4, %r2, .LC193@toc@ha
	ld %r4, .LC193@toc@l(%r4)
	std %r3, 32(%r4)
	addis %r3, %r2, .LC191@toc@ha
	ld %r3, .LC191@toc@l(%r3)
	ld %r3, 32(%r3)
	addi %r3, %r3, 1
	addis %r4, %r2, .LC191@toc@ha
	ld %r4, .LC191@toc@l(%r4)
	std %r3, 32(%r4)
	ld %r4, 152(%r31)
	li %r3, 0
	stb %r3, 0(%r4)
.LBB93_11:
	ld %r3, 176(%r31)
	addi %r1, %r1, 192
	ld %r0, 16(%r1)
	ld %r31, -8(%r1)
	mtlr %r0
	blr
	.long	0
	.quad	0
.Lfunc_end93:
	.size	strncat, .Lfunc_end93-.Lfunc_begin93
	.cfi_endproc
                                        # -- End function
	.globl	strnlen                         # -- Begin function strnlen
	.p2align	2
	.type	strnlen,@function
	.section	.opd,"aw",@progbits
strnlen:                                # @strnlen
	.p2align	3, 0x0
	.quad	.Lfunc_begin94
	.quad	.TOC.@tocbase
	.quad	0
	.text
.Lfunc_begin94:
	.cfi_startproc
# %bb.0:
	addis %r5, %r2, .LC194@toc@ha
	ld %r5, .LC194@toc@l(%r5)
	ld %r5, 0(%r5)
	addi %r5, %r5, 1
	addis %r6, %r2, .LC194@toc@ha
	ld %r6, .LC194@toc@l(%r6)
	std %r5, 0(%r6)
	std %r3, -16(%r1)
	std %r4, -24(%r1)
	addis %r3, %r2, .LC195@toc@ha
	ld %r3, .LC195@toc@l(%r3)
	ld %r3, 0(%r3)
	addi %r3, %r3, 1
	addis %r4, %r2, .LC195@toc@ha
	ld %r4, .LC195@toc@l(%r4)
	std %r3, 0(%r4)
	li %r3, 0
	std %r3, -32(%r1)
.LBB94_1:                               # =>This Inner Loop Header: Depth=1
	ld %r4, -32(%r1)
	ld %r5, -24(%r1)
	li %r3, 0
	cmpld	%r4, %r5
	stw %r3, -36(%r1)                       # 4-byte Folded Spill
	bge %cr0, .LBB94_6
# %bb.2:                                #   in Loop: Header=BB94_1 Depth=1
	addis %r3, %r2, .LC194@toc@ha
	ld %r4, .LC194@toc@l(%r3)
	ld %r3, 8(%r4)
	addi %r3, %r3, 1
	std %r3, 8(%r4)
	addis %r3, %r2, .LC195@toc@ha
	ld %r4, .LC195@toc@l(%r3)
	ld %r3, 16(%r4)
	addi %r3, %r3, 1
	std %r3, 16(%r4)
	ld %r3, -16(%r1)
	ld %r4, -32(%r1)
	lbzx %r3, %r3, %r4
	stw %r3, -48(%r1)                       # 4-byte Folded Spill
	cmplwi	%r3, 0
	li %r3, 0
	stw %r3, -44(%r1)                       # 4-byte Folded Spill
	li %r3, 1
	stw %r3, -40(%r1)                       # 4-byte Folded Spill
	bne	%cr0, .LBB94_4
# %bb.3:                                #   in Loop: Header=BB94_1 Depth=1
	lwz %r3, -44(%r1)                       # 4-byte Folded Reload
	stw %r3, -40(%r1)                       # 4-byte Folded Spill
.LBB94_4:                               #   in Loop: Header=BB94_1 Depth=1
	lwz %r4, -48(%r1)                       # 4-byte Folded Reload
	lwz %r3, -40(%r1)                       # 4-byte Folded Reload
	stw %r3, -52(%r1)                       # 4-byte Folded Spill
	cmpwi	%r4, 0
	stw %r3, -36(%r1)                       # 4-byte Folded Spill
	beq	%cr0, .LBB94_6
# %bb.5:                                #   in Loop: Header=BB94_1 Depth=1
	lwz %r3, -52(%r1)                       # 4-byte Folded Reload
	addis %r4, %r2, .LC194@toc@ha
	ld %r4, .LC194@toc@l(%r4)
	ld %r4, 16(%r4)
	addi %r4, %r4, 1
	addis %r5, %r2, .LC194@toc@ha
	ld %r5, .LC194@toc@l(%r5)
	std %r4, 16(%r5)
	addis %r4, %r2, .LC195@toc@ha
	ld %r4, .LC195@toc@l(%r4)
	ld %r4, 24(%r4)
	addi %r4, %r4, 1
	addis %r5, %r2, .LC195@toc@ha
	ld %r5, .LC195@toc@l(%r5)
	std %r4, 24(%r5)
	stw %r3, -36(%r1)                       # 4-byte Folded Spill
.LBB94_6:                               #   in Loop: Header=BB94_1 Depth=1
	lwz %r3, -36(%r1)                       # 4-byte Folded Reload
	clrlwi	%r3, %r3, 31
	cmplwi	%r3, 0
	beq	%cr0, .LBB94_9
	b .LBB94_7
.LBB94_7:                               #   in Loop: Header=BB94_1 Depth=1
	addis %r3, %r2, .LC195@toc@ha
	ld %r3, .LC195@toc@l(%r3)
	ld %r3, 8(%r3)
	addi %r3, %r3, 1
	addis %r4, %r2, .LC195@toc@ha
	ld %r4, .LC195@toc@l(%r4)
	std %r3, 8(%r4)
# %bb.8:                                #   in Loop: Header=BB94_1 Depth=1
	addis %r3, %r2, .LC194@toc@ha
	ld %r3, .LC194@toc@l(%r3)
	ld %r3, 24(%r3)
	addi %r3, %r3, 1
	addis %r4, %r2, .LC194@toc@ha
	ld %r4, .LC194@toc@l(%r4)
	std %r3, 24(%r4)
	ld %r3, -32(%r1)
	addi %r3, %r3, 1
	std %r3, -32(%r1)
	b .LBB94_1
.LBB94_9:
	ld %r3, -32(%r1)
	blr
	.long	0
	.quad	0
.Lfunc_end94:
	.size	strnlen, .Lfunc_end94-.Lfunc_begin94
	.cfi_endproc
                                        # -- End function
	.globl	strpbrk                         # -- Begin function strpbrk
	.p2align	2
	.type	strpbrk,@function
	.section	.opd,"aw",@progbits
strpbrk:                                # @strpbrk
	.p2align	3, 0x0
	.quad	.Lfunc_begin95
	.quad	.TOC.@tocbase
	.quad	0
	.text
.Lfunc_begin95:
	.cfi_startproc
# %bb.0:
	std %r3, -24(%r1)
	std %r4, -32(%r1)
	addis %r3, %r2, .LC196@toc@ha
	ld %r3, .LC196@toc@l(%r3)
	ld %r3, 0(%r3)
	addi %r3, %r3, 1
	addis %r4, %r2, .LC196@toc@ha
	ld %r4, .LC196@toc@l(%r4)
	std %r3, 0(%r4)
.LBB95_1:                               # =>This Loop Header: Depth=1
                                        #     Child Loop BB95_3 Depth 2
	ld %r3, -24(%r1)
	lbz %r3, 0(%r3)
	cmpwi	%r3, 0
	beq	%cr0, .LBB95_8
# %bb.2:                                #   in Loop: Header=BB95_1 Depth=1
	addis %r3, %r2, .LC196@toc@ha
	ld %r3, .LC196@toc@l(%r3)
	ld %r3, 8(%r3)
	addi %r3, %r3, 1
	addis %r4, %r2, .LC196@toc@ha
	ld %r4, .LC196@toc@l(%r4)
	std %r3, 8(%r4)
	ld %r3, -32(%r1)
	std %r3, -40(%r1)
.LBB95_3:                               #   Parent Loop BB95_1 Depth=1
                                        # =>  This Inner Loop Header: Depth=2
	ld %r3, -40(%r1)
	lbz %r3, 0(%r3)
	cmpwi	%r3, 0
	beq	%cr0, .LBB95_7
# %bb.4:                                #   in Loop: Header=BB95_3 Depth=2
	addis %r3, %r2, .LC196@toc@ha
	ld %r3, .LC196@toc@l(%r3)
	ld %r3, 16(%r3)
	addi %r3, %r3, 1
	addis %r4, %r2, .LC196@toc@ha
	ld %r4, .LC196@toc@l(%r4)
	std %r3, 16(%r4)
	ld %r3, -40(%r1)
	addi %r4, %r3, 1
	std %r4, -40(%r1)
	lbz %r3, 0(%r3)
	ld %r4, -24(%r1)
	lbz %r4, 0(%r4)
	cmpw	%r3, %r4
	bne	%cr0, .LBB95_6
# %bb.5:
	addis %r3, %r2, .LC197@toc@ha
	ld %r3, .LC197@toc@l(%r3)
	ld %r3, 8(%r3)
	addi %r3, %r3, 1
	addis %r4, %r2, .LC197@toc@ha
	ld %r4, .LC197@toc@l(%r4)
	std %r3, 8(%r4)
	addis %r3, %r2, .LC196@toc@ha
	ld %r3, .LC196@toc@l(%r3)
	ld %r3, 24(%r3)
	addi %r3, %r3, 1
	addis %r4, %r2, .LC196@toc@ha
	ld %r4, .LC196@toc@l(%r4)
	std %r3, 24(%r4)
	ld %r3, -24(%r1)
	std %r3, -16(%r1)
	b .LBB95_9
.LBB95_6:                               #   in Loop: Header=BB95_3 Depth=2
	addis %r3, %r2, .LC197@toc@ha
	ld %r3, .LC197@toc@l(%r3)
	ld %r3, 16(%r3)
	addi %r3, %r3, 1
	addis %r4, %r2, .LC197@toc@ha
	ld %r4, .LC197@toc@l(%r4)
	std %r3, 16(%r4)
	b .LBB95_3
.LBB95_7:                               #   in Loop: Header=BB95_1 Depth=1
	addis %r3, %r2, .LC197@toc@ha
	ld %r3, .LC197@toc@l(%r3)
	ld %r3, 24(%r3)
	addi %r3, %r3, 1
	addis %r4, %r2, .LC197@toc@ha
	ld %r4, .LC197@toc@l(%r4)
	std %r3, 24(%r4)
	ld %r3, -24(%r1)
	addi %r3, %r3, 1
	std %r3, -24(%r1)
	b .LBB95_1
.LBB95_8:
	addis %r3, %r2, .LC197@toc@ha
	ld %r3, .LC197@toc@l(%r3)
	ld %r3, 0(%r3)
	addi %r3, %r3, 1
	addis %r4, %r2, .LC197@toc@ha
	ld %r4, .LC197@toc@l(%r4)
	std %r3, 0(%r4)
	li %r3, 0
	std %r3, -16(%r1)
.LBB95_9:
	ld %r3, -16(%r1)
	blr
	.long	0
	.quad	0
.Lfunc_end95:
	.size	strpbrk, .Lfunc_end95-.Lfunc_begin95
	.cfi_endproc
                                        # -- End function
	.globl	strrchr                         # -- Begin function strrchr
	.p2align	2
	.type	strrchr,@function
	.section	.opd,"aw",@progbits
strrchr:                                # @strrchr
	.p2align	3, 0x0
	.quad	.Lfunc_begin96
	.quad	.TOC.@tocbase
	.quad	0
	.text
.Lfunc_begin96:
	.cfi_startproc
# %bb.0:
	std %r4, -40(%r1)                       # 8-byte Folded Spill
	mr	%r4, %r3
	ld %r3, -40(%r1)                        # 8-byte Folded Reload
                                        # kill: def $r3 killed $r3 killed $x3
	addis %r5, %r2, .LC198@toc@ha
	ld %r5, .LC198@toc@l(%r5)
	ld %r5, 0(%r5)
	addi %r5, %r5, 1
	addis %r6, %r2, .LC198@toc@ha
	ld %r6, .LC198@toc@l(%r6)
	std %r5, 0(%r6)
	std %r4, -16(%r1)
	stw %r3, -20(%r1)
	addis %r3, %r2, .LC199@toc@ha
	ld %r3, .LC199@toc@l(%r3)
	ld %r3, 0(%r3)
	addi %r3, %r3, 1
	addis %r4, %r2, .LC199@toc@ha
	ld %r4, .LC199@toc@l(%r4)
	std %r3, 0(%r4)
	li %r3, 0
	std %r3, -32(%r1)
	b .LBB96_2
.LBB96_1:                               #   in Loop: Header=BB96_2 Depth=1
	addis %r3, %r2, .LC198@toc@ha
	ld %r3, .LC198@toc@l(%r3)
	ld %r3, 16(%r3)
	addi %r3, %r3, 1
	addis %r4, %r2, .LC198@toc@ha
	ld %r4, .LC198@toc@l(%r4)
	std %r3, 16(%r4)
	addis %r3, %r2, .LC199@toc@ha
	ld %r3, .LC199@toc@l(%r3)
	ld %r3, 8(%r3)
	addi %r3, %r3, 1
	addis %r4, %r2, .LC199@toc@ha
	ld %r4, .LC199@toc@l(%r4)
	std %r3, 8(%r4)
.LBB96_2:                               # =>This Inner Loop Header: Depth=1
	ld %r3, -16(%r1)
	lbz %r3, 0(%r3)
	lwz %r4, -20(%r1)
	cmpw	%r3, %r4
	bne	%cr0, .LBB96_4
# %bb.3:                                #   in Loop: Header=BB96_2 Depth=1
	addis %r3, %r2, .LC198@toc@ha
	ld %r3, .LC198@toc@l(%r3)
	ld %r3, 8(%r3)
	addi %r3, %r3, 1
	addis %r4, %r2, .LC198@toc@ha
	ld %r4, .LC198@toc@l(%r4)
	std %r3, 8(%r4)
	addis %r3, %r2, .LC199@toc@ha
	ld %r3, .LC199@toc@l(%r3)
	ld %r3, 16(%r3)
	addi %r3, %r3, 1
	addis %r4, %r2, .LC199@toc@ha
	ld %r4, .LC199@toc@l(%r4)
	std %r3, 16(%r4)
	ld %r3, -16(%r1)
	std %r3, -32(%r1)
.LBB96_4:                               #   in Loop: Header=BB96_2 Depth=1
	b .LBB96_5
.LBB96_5:                               #   in Loop: Header=BB96_2 Depth=1
	ld %r3, -16(%r1)
	addi %r4, %r3, 1
	std %r4, -16(%r1)
	lbz %r3, 0(%r3)
	extsb %r3, %r3
	cmpwi	%r3, 0
	bne	%cr0, .LBB96_1
# %bb.6:
	ld %r3, -32(%r1)
	blr
	.long	0
	.quad	0
.Lfunc_end96:
	.size	strrchr, .Lfunc_end96-.Lfunc_begin96
	.cfi_endproc
                                        # -- End function
	.globl	strstr                          # -- Begin function strstr
	.p2align	2
	.type	strstr,@function
	.section	.opd,"aw",@progbits
strstr:                                 # @strstr
	.p2align	3, 0x0
	.quad	.Lfunc_begin97
	.quad	.TOC.@tocbase
	.quad	0
	.text
.Lfunc_begin97:
	.cfi_startproc
# %bb.0:
	mflr %r0
	std %r31, -8(%r1)
	stdu %r1, -160(%r1)
	std %r0, 176(%r1)
	.cfi_def_cfa_offset 160
	.cfi_offset r31, -8
	.cfi_offset lr, 16
	mr	%r31, %r1
	.cfi_def_cfa_register r31
	std %r3, 136(%r31)
	std %r4, 128(%r31)
	addis %r3, %r2, .LC200@toc@ha
	ld %r3, .LC200@toc@l(%r3)
	ld %r3, 0(%r3)
	addi %r3, %r3, 1
	addis %r4, %r2, .LC200@toc@ha
	ld %r4, .LC200@toc@l(%r4)
	std %r3, 0(%r4)
	ld %r3, 136(%r31)
	std %r3, 120(%r31)
	ld %r3, 128(%r31)
	mr	%r4, %r2
	std %r4, 40(%r1)
	addis %r4, %r2, .LC192@toc@ha
	ld %r4, .LC192@toc@l(%r4)
	ld %r5, 8(%r4)
	ld %r11, 16(%r4)
	ld %r4, 0(%r4)
	mr	%r2, %r5
	mtctr %r4
	bctrl
	ld 2, 40(%r1)
	std %r3, 112(%r31)
	ld %r3, 112(%r31)
	cmpdi	%r3, 0
	bne	%cr0, .LBB97_2
# %bb.1:
	addis %r3, %r2, .LC201@toc@ha
	ld %r3, .LC201@toc@l(%r3)
	ld %r3, 0(%r3)
	addi %r3, %r3, 1
	addis %r4, %r2, .LC201@toc@ha
	ld %r4, .LC201@toc@l(%r4)
	std %r3, 0(%r4)
	addis %r3, %r2, .LC200@toc@ha
	ld %r3, .LC200@toc@l(%r3)
	ld %r3, 8(%r3)
	addi %r3, %r3, 1
	addis %r4, %r2, .LC200@toc@ha
	ld %r4, .LC200@toc@l(%r4)
	std %r3, 8(%r4)
	ld %r3, 136(%r31)
	std %r3, 144(%r31)
	b .LBB97_9
.LBB97_2:
	b .LBB97_3
.LBB97_3:                               # =>This Inner Loop Header: Depth=1
	ld %r3, 120(%r31)
	ld %r4, 128(%r31)
	lbz %r4, 0(%r4)
	mr	%r5, %r2
	std %r5, 40(%r1)
	extsw %r4, %r4
	addis %r5, %r2, .LC202@toc@ha
	ld %r5, .LC202@toc@l(%r5)
	ld %r6, 8(%r5)
	ld %r11, 16(%r5)
	ld %r5, 0(%r5)
	mr	%r2, %r6
	mtctr %r5
	bctrl
	ld 2, 40(%r1)
	std %r3, 120(%r31)
	li %r4, 0
	cmpd	%r3, %r4
	beq	%cr0, .LBB97_8
# %bb.4:                                #   in Loop: Header=BB97_3 Depth=1
	addis %r3, %r2, .LC200@toc@ha
	ld %r3, .LC200@toc@l(%r3)
	ld %r3, 16(%r3)
	addi %r3, %r3, 1
	addis %r4, %r2, .LC200@toc@ha
	ld %r4, .LC200@toc@l(%r4)
	std %r3, 16(%r4)
	ld %r3, 120(%r31)
	ld %r4, 128(%r31)
	ld %r5, 112(%r31)
	mr	%r6, %r2
	std %r6, 40(%r1)
	addis %r6, %r2, .LC203@toc@ha
	ld %r6, .LC203@toc@l(%r6)
	ld %r7, 8(%r6)
	ld %r11, 16(%r6)
	ld %r6, 0(%r6)
	mr	%r2, %r7
	mtctr %r6
	bctrl
	ld 2, 40(%r1)
                                        # kill: def $r3 killed $r3 killed $x3
	cmpwi	%r3, 0
	bne	%cr0, .LBB97_6
# %bb.5:
	addis %r3, %r2, .LC201@toc@ha
	ld %r3, .LC201@toc@l(%r3)
	ld %r3, 8(%r3)
	addi %r3, %r3, 1
	addis %r4, %r2, .LC201@toc@ha
	ld %r4, .LC201@toc@l(%r4)
	std %r3, 8(%r4)
	addis %r3, %r2, .LC200@toc@ha
	ld %r3, .LC200@toc@l(%r3)
	ld %r3, 24(%r3)
	addi %r3, %r3, 1
	addis %r4, %r2, .LC200@toc@ha
	ld %r4, .LC200@toc@l(%r4)
	std %r3, 24(%r4)
	ld %r3, 120(%r31)
	std %r3, 144(%r31)
	b .LBB97_9
.LBB97_6:                               #   in Loop: Header=BB97_3 Depth=1
	b .LBB97_7
.LBB97_7:                               #   in Loop: Header=BB97_3 Depth=1
	addis %r3, %r2, .LC201@toc@ha
	ld %r3, .LC201@toc@l(%r3)
	ld %r3, 16(%r3)
	addi %r3, %r3, 1
	addis %r4, %r2, .LC201@toc@ha
	ld %r4, .LC201@toc@l(%r4)
	std %r3, 16(%r4)
	ld %r3, 120(%r31)
	addi %r3, %r3, 1
	std %r3, 120(%r31)
	b .LBB97_3
.LBB97_8:
	addis %r3, %r2, .LC201@toc@ha
	ld %r3, .LC201@toc@l(%r3)
	ld %r3, 24(%r3)
	addi %r3, %r3, 1
	addis %r4, %r2, .LC201@toc@ha
	ld %r4, .LC201@toc@l(%r4)
	std %r3, 24(%r4)
	li %r3, 0
	std %r3, 144(%r31)
.LBB97_9:
	ld %r3, 144(%r31)
	addi %r1, %r1, 160
	ld %r0, 16(%r1)
	ld %r31, -8(%r1)
	mtlr %r0
	blr
	.long	0
	.quad	0
.Lfunc_end97:
