	.text
	.intel_syntax noprefix
	.file	"mini-libc.c"
	.section	.ltext,"axl",@progbits
	.globl	make_ti                         # -- Begin function make_ti
	.p2align	4, 0x90
	.type	make_ti,@function
make_ti:                                # @make_ti
	.cfi_startproc
# %bb.0:
	push	rbp
	.cfi_def_cfa_offset 16
	.cfi_offset rbp, -16
	mov	rbp, rsp
	.cfi_def_cfa_register rbp
	movabs	rax, offset __llvm_gcov_ctr
	mov	rcx, qword ptr [rax]
	inc	rcx
	mov	qword ptr [rax], rcx
	mov	qword ptr [rbp - 24], rdi
	mov	qword ptr [rbp - 32], rsi
	movabs	rax, offset .L__profc_make_ti
	mov	rcx, qword ptr [rax]
	inc	rcx
	mov	qword ptr [rax], rcx
	mov	rax, qword ptr [rbp - 24]
	mov	qword ptr [rbp - 40], rax
	mov	rax, qword ptr [rbp - 32]
	mov	qword ptr [rbp - 48], rax
	mov	rax, qword ptr [rbp - 48]
	mov	rcx, qword ptr [rbp - 40]
	mov	qword ptr [rbp - 8], rcx
	mov	qword ptr [rbp - 16], rax
	mov	rax, qword ptr [rbp - 16]
	mov	rdx, qword ptr [rbp - 8]
	pop	rbp
	.cfi_def_cfa rsp, 8
	fldz
	fldz
	fldz
	fldz
	fldz
	fldz
	fldz
	fldz
	fstp	st(0)
	fstp	st(0)
	fstp	st(0)
	fstp	st(0)
	fstp	st(0)
	fstp	st(0)
	fstp	st(0)
	fstp	st(0)
	xor	ecx, ecx
	xor	edi, edi
	xor	esi, esi
	xor	r8d, r8d
	xor	r9d, r9d
	xor	r10d, r10d
	xor	r11d, r11d
	pxor	xmm0, xmm0
	pxor	xmm1, xmm1
	pxor	xmm2, xmm2
	pxor	xmm3, xmm3
	pxor	xmm4, xmm4
	pxor	xmm5, xmm5
	pxor	xmm6, xmm6
	pxor	xmm7, xmm7
	pxor	xmm8, xmm8
	pxor	xmm9, xmm9
	pxor	xmm10, xmm10
	pxor	xmm11, xmm11
	pxor	xmm12, xmm12
	pxor	xmm13, xmm13
	pxor	xmm14, xmm14
	pxor	xmm15, xmm15
	ret
	int3
.Lfunc_end0:
	.size	make_ti, .Lfunc_end0-make_ti
	.cfi_endproc
                                        # -- End function
	.globl	make_tu                         # -- Begin function make_tu
	.p2align	4, 0x90
	.type	make_tu,@function
make_tu:                                # @make_tu
	.cfi_startproc
# %bb.0:
	push	rbp
	.cfi_def_cfa_offset 16
	.cfi_offset rbp, -16
	mov	rbp, rsp
	.cfi_def_cfa_register rbp
	movabs	rax, offset __llvm_gcov_ctr.1
	mov	rcx, qword ptr [rax]
	inc	rcx
	mov	qword ptr [rax], rcx
	mov	qword ptr [rbp - 24], rdi
	mov	qword ptr [rbp - 32], rsi
	movabs	rax, offset .L__profc_make_tu
	mov	rcx, qword ptr [rax]
	inc	rcx
	mov	qword ptr [rax], rcx
	mov	rax, qword ptr [rbp - 24]
	mov	qword ptr [rbp - 40], rax
	mov	rax, qword ptr [rbp - 32]
	mov	qword ptr [rbp - 48], rax
	mov	rax, qword ptr [rbp - 48]
	mov	rcx, qword ptr [rbp - 40]
	mov	qword ptr [rbp - 8], rcx
	mov	qword ptr [rbp - 16], rax
	mov	rax, qword ptr [rbp - 16]
	mov	rdx, qword ptr [rbp - 8]
	pop	rbp
	.cfi_def_cfa rsp, 8
	fldz
	fldz
	fldz
	fldz
	fldz
	fldz
	fldz
	fldz
	fstp	st(0)
	fstp	st(0)
	fstp	st(0)
	fstp	st(0)
	fstp	st(0)
	fstp	st(0)
	fstp	st(0)
	fstp	st(0)
	xor	ecx, ecx
	xor	edi, edi
	xor	esi, esi
	xor	r8d, r8d
	xor	r9d, r9d
	xor	r10d, r10d
	xor	r11d, r11d
	pxor	xmm0, xmm0
	pxor	xmm1, xmm1
	pxor	xmm2, xmm2
	pxor	xmm3, xmm3
	pxor	xmm4, xmm4
	pxor	xmm5, xmm5
	pxor	xmm6, xmm6
	pxor	xmm7, xmm7
	pxor	xmm8, xmm8
	pxor	xmm9, xmm9
	pxor	xmm10, xmm10
	pxor	xmm11, xmm11
	pxor	xmm12, xmm12
	pxor	xmm13, xmm13
	pxor	xmm14, xmm14
	pxor	xmm15, xmm15
	ret
	int3
.Lfunc_end1:
	.size	make_tu, .Lfunc_end1-make_tu
	.cfi_endproc
                                        # -- End function
	.globl	memmove                         # -- Begin function memmove
	.p2align	4, 0x90
	.type	memmove,@function
memmove:                                # @memmove
	.cfi_startproc
# %bb.0:
	push	rbp
	.cfi_def_cfa_offset 16
	.cfi_offset rbp, -16
	mov	rbp, rsp
	.cfi_def_cfa_register rbp
	mov	qword ptr [rbp - 8], rdi
	mov	qword ptr [rbp - 16], rsi
	mov	qword ptr [rbp - 24], rdx
	movabs	rax, offset .L__profc_memmove
	mov	rcx, qword ptr [rax]
	inc	rcx
	mov	qword ptr [rax], rcx
	mov	rax, qword ptr [rbp - 8]
	mov	qword ptr [rbp - 32], rax
	mov	rax, qword ptr [rbp - 16]
	mov	qword ptr [rbp - 40], rax
	mov	rax, qword ptr [rbp - 40]
	cmp	rax, qword ptr [rbp - 32]
	jae	.LBB2_6
# %bb.1:
	movabs	rax, offset __llvm_gcov_ctr.2
	mov	rcx, qword ptr [rax]
	inc	rcx
	mov	qword ptr [rax], rcx
	movabs	rax, offset .L__profc_memmove+8
	mov	rcx, qword ptr [rax]
	inc	rcx
	mov	qword ptr [rax], rcx
	mov	rax, qword ptr [rbp - 24]
	add	rax, qword ptr [rbp - 40]
	mov	qword ptr [rbp - 40], rax
	mov	rax, qword ptr [rbp - 24]
	add	rax, qword ptr [rbp - 32]
	mov	qword ptr [rbp - 32], rax
.LBB2_2:                                # =>This Inner Loop Header: Depth=1
	cmp	qword ptr [rbp - 24], 0
	je	.LBB2_5
# %bb.3:                                #   in Loop: Header=BB2_2 Depth=1
	movabs	rax, offset .L__profc_memmove+16
	mov	rcx, qword ptr [rax]
	inc	rcx
	mov	qword ptr [rax], rcx
	mov	rax, qword ptr [rbp - 40]
	mov	rcx, rax
	add	rcx, -1
	mov	qword ptr [rbp - 40], rcx
	mov	cl, byte ptr [rax - 1]
	mov	rax, qword ptr [rbp - 32]
	mov	rdx, rax
	add	rdx, -1
	mov	qword ptr [rbp - 32], rdx
	mov	byte ptr [rax - 1], cl
# %bb.4:                                #   in Loop: Header=BB2_2 Depth=1
	movabs	rax, offset __llvm_gcov_ctr.2+8
	mov	rcx, qword ptr [rax]
	inc	rcx
	mov	qword ptr [rax], rcx
	mov	rax, qword ptr [rbp - 24]
	add	rax, -1
	mov	qword ptr [rbp - 24], rax
	jmp	.LBB2_2
.LBB2_5:
	jmp	.LBB2_13
.LBB2_6:
	mov	rax, qword ptr [rbp - 40]
	cmp	rax, qword ptr [rbp - 32]
	je	.LBB2_12
# %bb.7:
	movabs	rax, offset .L__profc_memmove+24
	mov	rcx, qword ptr [rax]
	inc	rcx
	mov	qword ptr [rax], rcx
.LBB2_8:                                # =>This Inner Loop Header: Depth=1
	cmp	qword ptr [rbp - 24], 0
	je	.LBB2_11
# %bb.9:                                #   in Loop: Header=BB2_8 Depth=1
	movabs	rax, offset __llvm_gcov_ctr.2+16
	mov	rcx, qword ptr [rax]
	inc	rcx
	mov	qword ptr [rax], rcx
	movabs	rax, offset .L__profc_memmove+32
	mov	rcx, qword ptr [rax]
	inc	rcx
	mov	qword ptr [rax], rcx
	mov	rax, qword ptr [rbp - 40]
	mov	rcx, rax
	add	rcx, 1
	mov	qword ptr [rbp - 40], rcx
	mov	cl, byte ptr [rax]
	mov	rax, qword ptr [rbp - 32]
	mov	rdx, rax
	add	rdx, 1
	mov	qword ptr [rbp - 32], rdx
	mov	byte ptr [rax], cl
# %bb.10:                               #   in Loop: Header=BB2_8 Depth=1
	mov	rax, qword ptr [rbp - 24]
	add	rax, -1
	mov	qword ptr [rbp - 24], rax
	jmp	.LBB2_8
.LBB2_11:
	movabs	rax, offset __llvm_gcov_ctr.2+24
	mov	rcx, qword ptr [rax]
	inc	rcx
	mov	qword ptr [rax], rcx
.LBB2_12:
	movabs	rax, offset __llvm_gcov_ctr.2+32
	mov	rcx, qword ptr [rax]
	inc	rcx
	mov	qword ptr [rax], rcx
.LBB2_13:
	mov	rax, qword ptr [rbp - 8]
	pop	rbp
	.cfi_def_cfa rsp, 8
	fldz
	fldz
	fldz
	fldz
	fldz
	fldz
	fldz
	fldz
	fstp	st(0)
	fstp	st(0)
	fstp	st(0)
	fstp	st(0)
	fstp	st(0)
	fstp	st(0)
	fstp	st(0)
	fstp	st(0)
	xor	ecx, ecx
	xor	edi, edi
	xor	edx, edx
	xor	esi, esi
	xor	r8d, r8d
	xor	r9d, r9d
	xor	r10d, r10d
	xor	r11d, r11d
	pxor	xmm0, xmm0
	pxor	xmm1, xmm1
	pxor	xmm2, xmm2
	pxor	xmm3, xmm3
	pxor	xmm4, xmm4
	pxor	xmm5, xmm5
	pxor	xmm6, xmm6
	pxor	xmm7, xmm7
	pxor	xmm8, xmm8
	pxor	xmm9, xmm9
	pxor	xmm10, xmm10
	pxor	xmm11, xmm11
	pxor	xmm12, xmm12
	pxor	xmm13, xmm13
	pxor	xmm14, xmm14
	pxor	xmm15, xmm15
	ret
	int3
.Lfunc_end2:
	.size	memmove, .Lfunc_end2-memmove
	.cfi_endproc
                                        # -- End function
	.globl	memccpy                         # -- Begin function memccpy
	.p2align	4, 0x90
	.type	memccpy,@function
memccpy:                                # @memccpy
	.cfi_startproc
# %bb.0:
	push	rbp
	.cfi_def_cfa_offset 16
	.cfi_offset rbp, -16
	mov	rbp, rsp
	.cfi_def_cfa_register rbp
	mov	qword ptr [rbp - 16], rdi
	mov	qword ptr [rbp - 24], rsi
	mov	dword ptr [rbp - 28], edx
	mov	qword ptr [rbp - 40], rcx
	movabs	rax, offset .L__profc_memccpy
	mov	rcx, qword ptr [rax]
	inc	rcx
	mov	qword ptr [rax], rcx
	mov	rax, qword ptr [rbp - 16]
	mov	qword ptr [rbp - 48], rax
	mov	rax, qword ptr [rbp - 24]
	mov	qword ptr [rbp - 56], rax
	mov	eax, dword ptr [rbp - 28]
                                        # kill: def $al killed $al killed $eax
	movzx	eax, al
	mov	dword ptr [rbp - 28], eax
.LBB3_1:                                # =>This Inner Loop Header: Depth=1
	xor	eax, eax
                                        # kill: def $al killed $al killed $eax
	cmp	qword ptr [rbp - 40], 0
	mov	byte ptr [rbp - 57], al         # 1-byte Spill
	je	.LBB3_4
# %bb.2:                                #   in Loop: Header=BB3_1 Depth=1
	movabs	rax, offset __llvm_gcov_ctr.3
	mov	rcx, qword ptr [rax]
	inc	rcx
	mov	qword ptr [rax], rcx
	movabs	rax, offset .L__profc_memccpy+16
	mov	rcx, qword ptr [rax]
	inc	rcx
	mov	qword ptr [rax], rcx
	mov	rax, qword ptr [rbp - 56]
	mov	al, byte ptr [rax]
	mov	rcx, qword ptr [rbp - 48]
	mov	byte ptr [rcx], al
	movzx	eax, al
	cmp	eax, dword ptr [rbp - 28]
	setne	al
	mov	byte ptr [rbp - 58], al         # 1-byte Spill
	test	al, 1
	mov	byte ptr [rbp - 57], al         # 1-byte Spill
	jne	.LBB3_3
	jmp	.LBB3_4
.LBB3_3:                                #   in Loop: Header=BB3_1 Depth=1
	mov	al, byte ptr [rbp - 58]         # 1-byte Reload
	movabs	rcx, offset __llvm_gcov_ctr.3+8
	mov	rdx, qword ptr [rcx]
	inc	rdx
	mov	qword ptr [rcx], rdx
	movabs	rcx, offset .L__profc_memccpy+24
	mov	rdx, qword ptr [rcx]
	inc	rdx
	mov	qword ptr [rcx], rdx
	mov	byte ptr [rbp - 57], al         # 1-byte Spill
.LBB3_4:                                #   in Loop: Header=BB3_1 Depth=1
	mov	al, byte ptr [rbp - 57]         # 1-byte Reload
	test	al, 1
	jne	.LBB3_5
	jmp	.LBB3_7
.LBB3_5:                                #   in Loop: Header=BB3_1 Depth=1
	movabs	rax, offset .L__profc_memccpy+8
	mov	rcx, qword ptr [rax]
	inc	rcx
	mov	qword ptr [rax], rcx
# %bb.6:                                #   in Loop: Header=BB3_1 Depth=1
	movabs	rax, offset __llvm_gcov_ctr.3+16
	mov	rcx, qword ptr [rax]
	inc	rcx
	mov	qword ptr [rax], rcx
	mov	rax, qword ptr [rbp - 40]
	add	rax, -1
	mov	qword ptr [rbp - 40], rax
	mov	rax, qword ptr [rbp - 56]
	add	rax, 1
	mov	qword ptr [rbp - 56], rax
	mov	rax, qword ptr [rbp - 48]
	add	rax, 1
	mov	qword ptr [rbp - 48], rax
	jmp	.LBB3_1
.LBB3_7:
	cmp	qword ptr [rbp - 40], 0
	je	.LBB3_9
# %bb.8:
	movabs	rax, offset __llvm_gcov_ctr.3+24
	mov	rcx, qword ptr [rax]
	inc	rcx
	mov	qword ptr [rax], rcx
	movabs	rax, offset .L__profc_memccpy+32
	mov	rcx, qword ptr [rax]
	inc	rcx
	mov	qword ptr [rax], rcx
	mov	rax, qword ptr [rbp - 48]
	add	rax, 1
	mov	qword ptr [rbp - 8], rax
	jmp	.LBB3_10
.LBB3_9:
	movabs	rax, offset __llvm_gcov_ctr.3+32
	mov	rcx, qword ptr [rax]
	inc	rcx
	mov	qword ptr [rax], rcx
	mov	qword ptr [rbp - 8], 0
.LBB3_10:
	mov	rax, qword ptr [rbp - 8]
	pop	rbp
	.cfi_def_cfa rsp, 8
	fldz
	fldz
	fldz
	fldz
	fldz
	fldz
	fldz
	fldz
	fstp	st(0)
	fstp	st(0)
	fstp	st(0)
	fstp	st(0)
	fstp	st(0)
	fstp	st(0)
	fstp	st(0)
	fstp	st(0)
	xor	ecx, ecx
	xor	edi, edi
	xor	edx, edx
	xor	esi, esi
	xor	r8d, r8d
	xor	r9d, r9d
	xor	r10d, r10d
	xor	r11d, r11d
	pxor	xmm0, xmm0
	pxor	xmm1, xmm1
	pxor	xmm2, xmm2
	pxor	xmm3, xmm3
	pxor	xmm4, xmm4
	pxor	xmm5, xmm5
	pxor	xmm6, xmm6
	pxor	xmm7, xmm7
	pxor	xmm8, xmm8
	pxor	xmm9, xmm9
	pxor	xmm10, xmm10
	pxor	xmm11, xmm11
	pxor	xmm12, xmm12
	pxor	xmm13, xmm13
	pxor	xmm14, xmm14
	pxor	xmm15, xmm15
	ret
	int3
.Lfunc_end3:
	.size	memccpy, .Lfunc_end3-memccpy
	.cfi_endproc
                                        # -- End function
	.globl	memchr                          # -- Begin function memchr
	.p2align	4, 0x90
	.type	memchr,@function
memchr:                                 # @memchr
	.cfi_startproc
# %bb.0:
	push	rbp
	.cfi_def_cfa_offset 16
	.cfi_offset rbp, -16
	mov	rbp, rsp
	.cfi_def_cfa_register rbp
	mov	qword ptr [rbp - 8], rdi
	mov	dword ptr [rbp - 12], esi
	mov	qword ptr [rbp - 24], rdx
	movabs	rax, offset .L__profc_memchr
	mov	rcx, qword ptr [rax]
	inc	rcx
	mov	qword ptr [rax], rcx
	mov	rax, qword ptr [rbp - 8]
	mov	qword ptr [rbp - 32], rax
	mov	eax, dword ptr [rbp - 12]
                                        # kill: def $al killed $al killed $eax
	movzx	eax, al
	mov	dword ptr [rbp - 12], eax
.LBB4_1:                                # =>This Inner Loop Header: Depth=1
	xor	eax, eax
                                        # kill: def $al killed $al killed $eax
	cmp	qword ptr [rbp - 24], 0
	mov	byte ptr [rbp - 33], al         # 1-byte Spill
	je	.LBB4_4
# %bb.2:                                #   in Loop: Header=BB4_1 Depth=1
	movabs	rax, offset __llvm_gcov_ctr.4
	mov	rcx, qword ptr [rax]
	inc	rcx
	mov	qword ptr [rax], rcx
	movabs	rax, offset .L__profc_memchr+16
	mov	rcx, qword ptr [rax]
	inc	rcx
	mov	qword ptr [rax], rcx
	mov	rax, qword ptr [rbp - 32]
	movzx	eax, byte ptr [rax]
	cmp	eax, dword ptr [rbp - 12]
	setne	al
	mov	byte ptr [rbp - 34], al         # 1-byte Spill
	test	al, 1
	mov	byte ptr [rbp - 33], al         # 1-byte Spill
	jne	.LBB4_3
	jmp	.LBB4_4
.LBB4_3:                                #   in Loop: Header=BB4_1 Depth=1
	mov	al, byte ptr [rbp - 34]         # 1-byte Reload
	movabs	rcx, offset __llvm_gcov_ctr.4+8
	mov	rdx, qword ptr [rcx]
	inc	rdx
	mov	qword ptr [rcx], rdx
	movabs	rcx, offset .L__profc_memchr+24
	mov	rdx, qword ptr [rcx]
	inc	rdx
	mov	qword ptr [rcx], rdx
	mov	byte ptr [rbp - 33], al         # 1-byte Spill
.LBB4_4:                                #   in Loop: Header=BB4_1 Depth=1
	mov	al, byte ptr [rbp - 33]         # 1-byte Reload
	test	al, 1
	jne	.LBB4_5
	jmp	.LBB4_7
.LBB4_5:                                #   in Loop: Header=BB4_1 Depth=1
	movabs	rax, offset .L__profc_memchr+8
	mov	rcx, qword ptr [rax]
	inc	rcx
	mov	qword ptr [rax], rcx
# %bb.6:                                #   in Loop: Header=BB4_1 Depth=1
	movabs	rax, offset __llvm_gcov_ctr.4+16
	mov	rcx, qword ptr [rax]
	inc	rcx
	mov	qword ptr [rax], rcx
	mov	rax, qword ptr [rbp - 32]
	add	rax, 1
	mov	qword ptr [rbp - 32], rax
	mov	rax, qword ptr [rbp - 24]
	add	rax, -1
	mov	qword ptr [rbp - 24], rax
	jmp	.LBB4_1
.LBB4_7:
	cmp	qword ptr [rbp - 24], 0
	je	.LBB4_9
# %bb.8:
	movabs	rax, offset __llvm_gcov_ctr.4+24
	mov	rcx, qword ptr [rax]
	inc	rcx
	mov	qword ptr [rax], rcx
	movabs	rax, offset .L__profc_memchr+32
	mov	rcx, qword ptr [rax]
	inc	rcx
	mov	qword ptr [rax], rcx
	mov	rax, qword ptr [rbp - 32]
	mov	qword ptr [rbp - 48], rax       # 8-byte Spill
	jmp	.LBB4_10
.LBB4_9:
	movabs	rax, offset __llvm_gcov_ctr.4+32
	mov	rcx, qword ptr [rax]
	inc	rcx
	mov	qword ptr [rax], rcx
	xor	eax, eax
                                        # kill: def $rax killed $eax
	mov	qword ptr [rbp - 48], rax       # 8-byte Spill
.LBB4_10:
	mov	rax, qword ptr [rbp - 48]       # 8-byte Reload
	pop	rbp
	.cfi_def_cfa rsp, 8
	fldz
	fldz
	fldz
	fldz
	fldz
	fldz
	fldz
	fldz
	fstp	st(0)
	fstp	st(0)
	fstp	st(0)
	fstp	st(0)
	fstp	st(0)
	fstp	st(0)
	fstp	st(0)
	fstp	st(0)
	xor	ecx, ecx
	xor	edi, edi
	xor	edx, edx
	xor	esi, esi
	xor	r8d, r8d
	xor	r9d, r9d
	xor	r10d, r10d
	xor	r11d, r11d
	pxor	xmm0, xmm0
	pxor	xmm1, xmm1
	pxor	xmm2, xmm2
	pxor	xmm3, xmm3
	pxor	xmm4, xmm4
	pxor	xmm5, xmm5
	pxor	xmm6, xmm6
	pxor	xmm7, xmm7
	pxor	xmm8, xmm8
	pxor	xmm9, xmm9
	pxor	xmm10, xmm10
	pxor	xmm11, xmm11
	pxor	xmm12, xmm12
	pxor	xmm13, xmm13
	pxor	xmm14, xmm14
	pxor	xmm15, xmm15
	ret
	int3
.Lfunc_end4:
	.size	memchr, .Lfunc_end4-memchr
	.cfi_endproc
                                        # -- End function
	.globl	memcmp                          # -- Begin function memcmp
	.p2align	4, 0x90
	.type	memcmp,@function
memcmp:                                 # @memcmp
	.cfi_startproc
# %bb.0:
	push	rbp
	.cfi_def_cfa_offset 16
	.cfi_offset rbp, -16
	mov	rbp, rsp
	.cfi_def_cfa_register rbp
	mov	qword ptr [rbp - 8], rdi
	mov	qword ptr [rbp - 16], rsi
	mov	qword ptr [rbp - 24], rdx
	movabs	rax, offset .L__profc_memcmp
	mov	rcx, qword ptr [rax]
	inc	rcx
	mov	qword ptr [rax], rcx
	mov	rax, qword ptr [rbp - 8]
	mov	qword ptr [rbp - 32], rax
	mov	rax, qword ptr [rbp - 16]
	mov	qword ptr [rbp - 40], rax
.LBB5_1:                                # =>This Inner Loop Header: Depth=1
	xor	eax, eax
                                        # kill: def $al killed $al killed $eax
	cmp	qword ptr [rbp - 24], 0
	mov	byte ptr [rbp - 41], al         # 1-byte Spill
	je	.LBB5_4
# %bb.2:                                #   in Loop: Header=BB5_1 Depth=1
	movabs	rax, offset __llvm_gcov_ctr.5
	mov	rcx, qword ptr [rax]
	inc	rcx
	mov	qword ptr [rax], rcx
	movabs	rax, offset .L__profc_memcmp+16
	mov	rcx, qword ptr [rax]
	inc	rcx
	mov	qword ptr [rax], rcx
	mov	rax, qword ptr [rbp - 32]
	movzx	eax, byte ptr [rax]
	mov	rcx, qword ptr [rbp - 40]
	movzx	ecx, byte ptr [rcx]
	cmp	eax, ecx
	sete	al
	mov	byte ptr [rbp - 42], al         # 1-byte Spill
	test	al, 1
	mov	byte ptr [rbp - 41], al         # 1-byte Spill
	jne	.LBB5_3
	jmp	.LBB5_4
.LBB5_3:                                #   in Loop: Header=BB5_1 Depth=1
	mov	al, byte ptr [rbp - 42]         # 1-byte Reload
	movabs	rcx, offset __llvm_gcov_ctr.5+8
	mov	rdx, qword ptr [rcx]
	inc	rdx
	mov	qword ptr [rcx], rdx
	movabs	rcx, offset .L__profc_memcmp+24
	mov	rdx, qword ptr [rcx]
	inc	rdx
	mov	qword ptr [rcx], rdx
	mov	byte ptr [rbp - 41], al         # 1-byte Spill
.LBB5_4:                                #   in Loop: Header=BB5_1 Depth=1
	mov	al, byte ptr [rbp - 41]         # 1-byte Reload
	test	al, 1
	jne	.LBB5_5
	jmp	.LBB5_7
.LBB5_5:                                #   in Loop: Header=BB5_1 Depth=1
	movabs	rax, offset .L__profc_memcmp+8
	mov	rcx, qword ptr [rax]
	inc	rcx
	mov	qword ptr [rax], rcx
# %bb.6:                                #   in Loop: Header=BB5_1 Depth=1
	movabs	rax, offset __llvm_gcov_ctr.5+16
	mov	rcx, qword ptr [rax]
	inc	rcx
	mov	qword ptr [rax], rcx
	mov	rax, qword ptr [rbp - 24]
	add	rax, -1
	mov	qword ptr [rbp - 24], rax
	mov	rax, qword ptr [rbp - 32]
	add	rax, 1
	mov	qword ptr [rbp - 32], rax
	mov	rax, qword ptr [rbp - 40]
	add	rax, 1
	mov	qword ptr [rbp - 40], rax
	jmp	.LBB5_1
.LBB5_7:
	cmp	qword ptr [rbp - 24], 0
	je	.LBB5_9
# %bb.8:
	movabs	rax, offset __llvm_gcov_ctr.5+24
	mov	rcx, qword ptr [rax]
	inc	rcx
	mov	qword ptr [rax], rcx
	movabs	rax, offset .L__profc_memcmp+32
	mov	rcx, qword ptr [rax]
	inc	rcx
	mov	qword ptr [rax], rcx
	mov	rax, qword ptr [rbp - 32]
	movzx	eax, byte ptr [rax]
	mov	rcx, qword ptr [rbp - 40]
	movzx	ecx, byte ptr [rcx]
	sub	eax, ecx
	mov	dword ptr [rbp - 48], eax       # 4-byte Spill
	jmp	.LBB5_10
.LBB5_9:
	movabs	rax, offset __llvm_gcov_ctr.5+32
	mov	rcx, qword ptr [rax]
	inc	rcx
	mov	qword ptr [rax], rcx
	xor	eax, eax
	mov	dword ptr [rbp - 48], eax       # 4-byte Spill
.LBB5_10:
	mov	eax, dword ptr [rbp - 48]       # 4-byte Reload
	pop	rbp
	.cfi_def_cfa rsp, 8
	fldz
	fldz
	fldz
	fldz
	fldz
	fldz
	fldz
	fldz
	fstp	st(0)
	fstp	st(0)
	fstp	st(0)
	fstp	st(0)
	fstp	st(0)
	fstp	st(0)
	fstp	st(0)
	fstp	st(0)
	xor	ecx, ecx
	xor	edi, edi
	xor	edx, edx
	xor	esi, esi
	xor	r8d, r8d
	xor	r9d, r9d
	xor	r10d, r10d
	xor	r11d, r11d
	pxor	xmm0, xmm0
	pxor	xmm1, xmm1
	pxor	xmm2, xmm2
	pxor	xmm3, xmm3
	pxor	xmm4, xmm4
	pxor	xmm5, xmm5
	pxor	xmm6, xmm6
	pxor	xmm7, xmm7
	pxor	xmm8, xmm8
	pxor	xmm9, xmm9
	pxor	xmm10, xmm10
	pxor	xmm11, xmm11
	pxor	xmm12, xmm12
	pxor	xmm13, xmm13
	pxor	xmm14, xmm14
	pxor	xmm15, xmm15
	ret
	int3
.Lfunc_end5:
	.size	memcmp, .Lfunc_end5-memcmp
	.cfi_endproc
                                        # -- End function
	.globl	memcpy                          # -- Begin function memcpy
	.p2align	4, 0x90
	.type	memcpy,@function
memcpy:                                 # @memcpy
	.cfi_startproc
# %bb.0:
	push	rbp
	.cfi_def_cfa_offset 16
	.cfi_offset rbp, -16
	mov	rbp, rsp
	.cfi_def_cfa_register rbp
	movabs	rax, offset __llvm_gcov_ctr.6
	mov	rcx, qword ptr [rax]
	inc	rcx
	mov	qword ptr [rax], rcx
	mov	qword ptr [rbp - 8], rdi
	mov	qword ptr [rbp - 16], rsi
	mov	qword ptr [rbp - 24], rdx
	movabs	rax, offset .L__profc_memcpy
	mov	rcx, qword ptr [rax]
	inc	rcx
	mov	qword ptr [rax], rcx
	mov	rax, qword ptr [rbp - 8]
	mov	qword ptr [rbp - 32], rax
	mov	rax, qword ptr [rbp - 16]
	mov	qword ptr [rbp - 40], rax
.LBB6_1:                                # =>This Inner Loop Header: Depth=1
	cmp	qword ptr [rbp - 24], 0
	je	.LBB6_4
# %bb.2:                                #   in Loop: Header=BB6_1 Depth=1
	movabs	rax, offset .L__profc_memcpy+8
	mov	rcx, qword ptr [rax]
	inc	rcx
	mov	qword ptr [rax], rcx
	mov	rax, qword ptr [rbp - 40]
	mov	rcx, rax
	add	rcx, 1
	mov	qword ptr [rbp - 40], rcx
	mov	cl, byte ptr [rax]
	mov	rax, qword ptr [rbp - 32]
	mov	rdx, rax
	add	rdx, 1
	mov	qword ptr [rbp - 32], rdx
	mov	byte ptr [rax], cl
# %bb.3:                                #   in Loop: Header=BB6_1 Depth=1
	movabs	rax, offset __llvm_gcov_ctr.6+8
	mov	rcx, qword ptr [rax]
	inc	rcx
	mov	qword ptr [rax], rcx
	mov	rax, qword ptr [rbp - 24]
	add	rax, -1
	mov	qword ptr [rbp - 24], rax
	jmp	.LBB6_1
.LBB6_4:
	mov	rax, qword ptr [rbp - 8]
	pop	rbp
	.cfi_def_cfa rsp, 8
	fldz
	fldz
	fldz
	fldz
	fldz
	fldz
	fldz
	fldz
	fstp	st(0)
	fstp	st(0)
	fstp	st(0)
	fstp	st(0)
	fstp	st(0)
	fstp	st(0)
	fstp	st(0)
	fstp	st(0)
	xor	ecx, ecx
	xor	edi, edi
	xor	edx, edx
	xor	esi, esi
	xor	r8d, r8d
	xor	r9d, r9d
	xor	r10d, r10d
	xor	r11d, r11d
	pxor	xmm0, xmm0
	pxor	xmm1, xmm1
	pxor	xmm2, xmm2
	pxor	xmm3, xmm3
	pxor	xmm4, xmm4
	pxor	xmm5, xmm5
	pxor	xmm6, xmm6
	pxor	xmm7, xmm7
	pxor	xmm8, xmm8
	pxor	xmm9, xmm9
	pxor	xmm10, xmm10
	pxor	xmm11, xmm11
	pxor	xmm12, xmm12
	pxor	xmm13, xmm13
	pxor	xmm14, xmm14
	pxor	xmm15, xmm15
	ret
	int3
.Lfunc_end6:
	.size	memcpy, .Lfunc_end6-memcpy
	.cfi_endproc
                                        # -- End function
	.globl	memrchr                         # -- Begin function memrchr
	.p2align	4, 0x90
	.type	memrchr,@function
memrchr:                                # @memrchr
	.cfi_startproc
# %bb.0:
	push	rbp
	.cfi_def_cfa_offset 16
	.cfi_offset rbp, -16
	mov	rbp, rsp
	.cfi_def_cfa_register rbp
	mov	qword ptr [rbp - 16], rdi
	mov	dword ptr [rbp - 20], esi
	mov	qword ptr [rbp - 32], rdx
	movabs	rax, offset .L__profc_memrchr
	mov	rcx, qword ptr [rax]
	inc	rcx
	mov	qword ptr [rax], rcx
	mov	rax, qword ptr [rbp - 16]
	mov	qword ptr [rbp - 40], rax
	mov	eax, dword ptr [rbp - 20]
                                        # kill: def $al killed $al killed $eax
	movzx	eax, al
	mov	dword ptr [rbp - 20], eax
.LBB7_1:                                # =>This Inner Loop Header: Depth=1
	mov	rax, qword ptr [rbp - 32]
	mov	rcx, rax
	add	rcx, -1
	mov	qword ptr [rbp - 32], rcx
	cmp	rax, 0
	je	.LBB7_5
# %bb.2:                                #   in Loop: Header=BB7_1 Depth=1
	movabs	rax, offset .L__profc_memrchr+8
	mov	rcx, qword ptr [rax]
	inc	rcx
	mov	qword ptr [rax], rcx
	mov	rax, qword ptr [rbp - 40]
	mov	rcx, qword ptr [rbp - 32]
	movzx	eax, byte ptr [rax + rcx]
	cmp	eax, dword ptr [rbp - 20]
	jne	.LBB7_4
# %bb.3:
	movabs	rax, offset __llvm_gcov_ctr.7
	mov	rcx, qword ptr [rax]
	inc	rcx
	mov	qword ptr [rax], rcx
	movabs	rax, offset .L__profc_memrchr+16
	mov	rcx, qword ptr [rax]
	inc	rcx
	mov	qword ptr [rax], rcx
	mov	rax, qword ptr [rbp - 40]
	add	rax, qword ptr [rbp - 32]
	mov	qword ptr [rbp - 8], rax
	jmp	.LBB7_6
.LBB7_4:                                #   in Loop: Header=BB7_1 Depth=1
	movabs	rax, offset __llvm_gcov_ctr.7+8
	mov	rcx, qword ptr [rax]
	inc	rcx
	mov	qword ptr [rax], rcx
	jmp	.LBB7_1
.LBB7_5:
	movabs	rax, offset __llvm_gcov_ctr.7+16
	mov	rcx, qword ptr [rax]
	inc	rcx
	mov	qword ptr [rax], rcx
	mov	qword ptr [rbp - 8], 0
.LBB7_6:
	mov	rax, qword ptr [rbp - 8]
	pop	rbp
	.cfi_def_cfa rsp, 8
	fldz
	fldz
	fldz
	fldz
	fldz
	fldz
	fldz
	fldz
	fstp	st(0)
	fstp	st(0)
	fstp	st(0)
	fstp	st(0)
	fstp	st(0)
	fstp	st(0)
	fstp	st(0)
	fstp	st(0)
	xor	ecx, ecx
	xor	edi, edi
	xor	edx, edx
	xor	esi, esi
	xor	r8d, r8d
	xor	r9d, r9d
	xor	r10d, r10d
	xor	r11d, r11d
	pxor	xmm0, xmm0
	pxor	xmm1, xmm1
	pxor	xmm2, xmm2
	pxor	xmm3, xmm3
	pxor	xmm4, xmm4
	pxor	xmm5, xmm5
	pxor	xmm6, xmm6
	pxor	xmm7, xmm7
	pxor	xmm8, xmm8
	pxor	xmm9, xmm9
	pxor	xmm10, xmm10
	pxor	xmm11, xmm11
	pxor	xmm12, xmm12
	pxor	xmm13, xmm13
	pxor	xmm14, xmm14
	pxor	xmm15, xmm15
	ret
	int3
.Lfunc_end7:
	.size	memrchr, .Lfunc_end7-memrchr
	.cfi_endproc
                                        # -- End function
	.globl	memset                          # -- Begin function memset
	.p2align	4, 0x90
	.type	memset,@function
memset:                                 # @memset
	.cfi_startproc
# %bb.0:
	push	rbp
	.cfi_def_cfa_offset 16
	.cfi_offset rbp, -16
	mov	rbp, rsp
	.cfi_def_cfa_register rbp
	movabs	rax, offset __llvm_gcov_ctr.8
	mov	rcx, qword ptr [rax]
	inc	rcx
	mov	qword ptr [rax], rcx
	mov	qword ptr [rbp - 8], rdi
	mov	dword ptr [rbp - 12], esi
	mov	qword ptr [rbp - 24], rdx
	movabs	rax, offset .L__profc_memset
	mov	rcx, qword ptr [rax]
	inc	rcx
	mov	qword ptr [rax], rcx
	mov	rax, qword ptr [rbp - 8]
	mov	qword ptr [rbp - 32], rax
.LBB8_1:                                # =>This Inner Loop Header: Depth=1
	cmp	qword ptr [rbp - 24], 0
	je	.LBB8_4
# %bb.2:                                #   in Loop: Header=BB8_1 Depth=1
	movabs	rax, offset .L__profc_memset+8
	mov	rcx, qword ptr [rax]
	inc	rcx
	mov	qword ptr [rax], rcx
	mov	eax, dword ptr [rbp - 12]
	mov	cl, al
	mov	rax, qword ptr [rbp - 32]
	mov	byte ptr [rax], cl
# %bb.3:                                #   in Loop: Header=BB8_1 Depth=1
	movabs	rax, offset __llvm_gcov_ctr.8+8
	mov	rcx, qword ptr [rax]
	inc	rcx
	mov	qword ptr [rax], rcx
	mov	rax, qword ptr [rbp - 24]
	add	rax, -1
	mov	qword ptr [rbp - 24], rax
	mov	rax, qword ptr [rbp - 32]
	add	rax, 1
	mov	qword ptr [rbp - 32], rax
	jmp	.LBB8_1
.LBB8_4:
	mov	rax, qword ptr [rbp - 8]
	pop	rbp
	.cfi_def_cfa rsp, 8
	fldz
	fldz
	fldz
	fldz
	fldz
	fldz
	fldz
	fldz
	fstp	st(0)
	fstp	st(0)
	fstp	st(0)
	fstp	st(0)
	fstp	st(0)
	fstp	st(0)
	fstp	st(0)
	fstp	st(0)
	xor	ecx, ecx
	xor	edi, edi
	xor	edx, edx
	xor	esi, esi
	xor	r8d, r8d
	xor	r9d, r9d
	xor	r10d, r10d
	xor	r11d, r11d
	pxor	xmm0, xmm0
	pxor	xmm1, xmm1
	pxor	xmm2, xmm2
	pxor	xmm3, xmm3
	pxor	xmm4, xmm4
	pxor	xmm5, xmm5
	pxor	xmm6, xmm6
	pxor	xmm7, xmm7
	pxor	xmm8, xmm8
	pxor	xmm9, xmm9
	pxor	xmm10, xmm10
	pxor	xmm11, xmm11
	pxor	xmm12, xmm12
	pxor	xmm13, xmm13
	pxor	xmm14, xmm14
	pxor	xmm15, xmm15
	ret
	int3
.Lfunc_end8:
	.size	memset, .Lfunc_end8-memset
	.cfi_endproc
                                        # -- End function
	.globl	stpcpy                          # -- Begin function stpcpy
	.p2align	4, 0x90
	.type	stpcpy,@function
stpcpy:                                 # @stpcpy
	.cfi_startproc
# %bb.0:
	push	rbp
	.cfi_def_cfa_offset 16
	.cfi_offset rbp, -16
	mov	rbp, rsp
	.cfi_def_cfa_register rbp
	movabs	rax, offset __llvm_gcov_ctr.9
	mov	rcx, qword ptr [rax]
	inc	rcx
	mov	qword ptr [rax], rcx
	mov	qword ptr [rbp - 8], rdi
	mov	qword ptr [rbp - 16], rsi
	movabs	rax, offset .L__profc_stpcpy
	mov	rcx, qword ptr [rax]
	inc	rcx
	mov	qword ptr [rax], rcx
.LBB9_1:                                # =>This Inner Loop Header: Depth=1
	mov	rax, qword ptr [rbp - 16]
	mov	al, byte ptr [rax]
	mov	rcx, qword ptr [rbp - 8]
	mov	byte ptr [rcx], al
	cmp	al, 0
	je	.LBB9_4
# %bb.2:                                #   in Loop: Header=BB9_1 Depth=1
	movabs	rax, offset .L__profc_stpcpy+8
	mov	rcx, qword ptr [rax]
	inc	rcx
	mov	qword ptr [rax], rcx
# %bb.3:                                #   in Loop: Header=BB9_1 Depth=1
	movabs	rax, offset __llvm_gcov_ctr.9+8
	mov	rcx, qword ptr [rax]
	inc	rcx
	mov	qword ptr [rax], rcx
	mov	rax, qword ptr [rbp - 16]
	add	rax, 1
	mov	qword ptr [rbp - 16], rax
	mov	rax, qword ptr [rbp - 8]
	add	rax, 1
	mov	qword ptr [rbp - 8], rax
	jmp	.LBB9_1
.LBB9_4:
	mov	rax, qword ptr [rbp - 8]
	pop	rbp
	.cfi_def_cfa rsp, 8
	fldz
	fldz
	fldz
	fldz
	fldz
	fldz
	fldz
	fldz
	fstp	st(0)
	fstp	st(0)
	fstp	st(0)
	fstp	st(0)
	fstp	st(0)
	fstp	st(0)
	fstp	st(0)
	fstp	st(0)
	xor	ecx, ecx
	xor	edi, edi
	xor	edx, edx
	xor	esi, esi
	xor	r8d, r8d
	xor	r9d, r9d
	xor	r10d, r10d
	xor	r11d, r11d
	pxor	xmm0, xmm0
	pxor	xmm1, xmm1
	pxor	xmm2, xmm2
	pxor	xmm3, xmm3
	pxor	xmm4, xmm4
	pxor	xmm5, xmm5
	pxor	xmm6, xmm6
	pxor	xmm7, xmm7
	pxor	xmm8, xmm8
	pxor	xmm9, xmm9
	pxor	xmm10, xmm10
	pxor	xmm11, xmm11
	pxor	xmm12, xmm12
	pxor	xmm13, xmm13
	pxor	xmm14, xmm14
	pxor	xmm15, xmm15
	ret
	int3
.Lfunc_end9:
	.size	stpcpy, .Lfunc_end9-stpcpy
	.cfi_endproc
                                        # -- End function
	.globl	strchrnul                       # -- Begin function strchrnul
	.p2align	4, 0x90
	.type	strchrnul,@function
strchrnul:                              # @strchrnul
	.cfi_startproc
# %bb.0:
	push	rbp
	.cfi_def_cfa_offset 16
	.cfi_offset rbp, -16
	mov	rbp, rsp
	.cfi_def_cfa_register rbp
	movabs	rax, offset __llvm_gcov_ctr.10
	mov	rcx, qword ptr [rax]
	inc	rcx
	mov	qword ptr [rax], rcx
	mov	qword ptr [rbp - 8], rdi
	mov	dword ptr [rbp - 12], esi
	movabs	rax, offset .L__profc_strchrnul
	mov	rcx, qword ptr [rax]
	inc	rcx
	mov	qword ptr [rax], rcx
	mov	eax, dword ptr [rbp - 12]
                                        # kill: def $al killed $al killed $eax
	movzx	eax, al
	mov	dword ptr [rbp - 12], eax
.LBB10_1:                               # =>This Inner Loop Header: Depth=1
	mov	rax, qword ptr [rbp - 8]
	movsx	ecx, byte ptr [rax]
	xor	eax, eax
                                        # kill: def $al killed $al killed $eax
	cmp	ecx, 0
	mov	byte ptr [rbp - 13], al         # 1-byte Spill
	je	.LBB10_4
# %bb.2:                                #   in Loop: Header=BB10_1 Depth=1
	movabs	rax, offset __llvm_gcov_ctr.10+8
	mov	rcx, qword ptr [rax]
	inc	rcx
	mov	qword ptr [rax], rcx
	movabs	rax, offset .L__profc_strchrnul+16
	mov	rcx, qword ptr [rax]
	inc	rcx
	mov	qword ptr [rax], rcx
	mov	rax, qword ptr [rbp - 8]
	movzx	eax, byte ptr [rax]
	cmp	eax, dword ptr [rbp - 12]
	setne	al
	mov	byte ptr [rbp - 14], al         # 1-byte Spill
	test	al, 1
	mov	byte ptr [rbp - 13], al         # 1-byte Spill
	jne	.LBB10_3
	jmp	.LBB10_4
.LBB10_3:                               #   in Loop: Header=BB10_1 Depth=1
	mov	al, byte ptr [rbp - 14]         # 1-byte Reload
	movabs	rcx, offset __llvm_gcov_ctr.10+16
	mov	rdx, qword ptr [rcx]
	inc	rdx
	mov	qword ptr [rcx], rdx
	movabs	rcx, offset .L__profc_strchrnul+24
	mov	rdx, qword ptr [rcx]
	inc	rdx
	mov	qword ptr [rcx], rdx
	mov	byte ptr [rbp - 13], al         # 1-byte Spill
.LBB10_4:                               #   in Loop: Header=BB10_1 Depth=1
	mov	al, byte ptr [rbp - 13]         # 1-byte Reload
	test	al, 1
	jne	.LBB10_5
	jmp	.LBB10_7
.LBB10_5:                               #   in Loop: Header=BB10_1 Depth=1
	movabs	rax, offset .L__profc_strchrnul+8
	mov	rcx, qword ptr [rax]
	inc	rcx
	mov	qword ptr [rax], rcx
# %bb.6:                                #   in Loop: Header=BB10_1 Depth=1
	movabs	rax, offset __llvm_gcov_ctr.10+24
	mov	rcx, qword ptr [rax]
	inc	rcx
	mov	qword ptr [rax], rcx
	mov	rax, qword ptr [rbp - 8]
	add	rax, 1
	mov	qword ptr [rbp - 8], rax
	jmp	.LBB10_1
.LBB10_7:
	mov	rax, qword ptr [rbp - 8]
	pop	rbp
	.cfi_def_cfa rsp, 8
	fldz
	fldz
	fldz
	fldz
	fldz
	fldz
	fldz
	fldz
	fstp	st(0)
	fstp	st(0)
	fstp	st(0)
	fstp	st(0)
	fstp	st(0)
	fstp	st(0)
	fstp	st(0)
	fstp	st(0)
	xor	ecx, ecx
	xor	edi, edi
	xor	edx, edx
	xor	esi, esi
	xor	r8d, r8d
	xor	r9d, r9d
	xor	r10d, r10d
	xor	r11d, r11d
	pxor	xmm0, xmm0
	pxor	xmm1, xmm1
	pxor	xmm2, xmm2
	pxor	xmm3, xmm3
	pxor	xmm4, xmm4
	pxor	xmm5, xmm5
	pxor	xmm6, xmm6
	pxor	xmm7, xmm7
	pxor	xmm8, xmm8
	pxor	xmm9, xmm9
	pxor	xmm10, xmm10
	pxor	xmm11, xmm11
	pxor	xmm12, xmm12
	pxor	xmm13, xmm13
	pxor	xmm14, xmm14
	pxor	xmm15, xmm15
	ret
	int3
.Lfunc_end10:
	.size	strchrnul, .Lfunc_end10-strchrnul
	.cfi_endproc
                                        # -- End function
	.globl	strchr                          # -- Begin function strchr
	.p2align	4, 0x90
	.type	strchr,@function
strchr:                                 # @strchr
	.cfi_startproc
# %bb.0:
	push	rbp
	.cfi_def_cfa_offset 16
	.cfi_offset rbp, -16
	mov	rbp, rsp
	.cfi_def_cfa_register rbp
	mov	qword ptr [rbp - 16], rdi
	mov	dword ptr [rbp - 20], esi
	movabs	rax, offset .L__profc_strchr
	mov	rcx, qword ptr [rax]
	inc	rcx
	mov	qword ptr [rax], rcx
	jmp	.LBB11_2
.LBB11_1:                               #   in Loop: Header=BB11_2 Depth=1
	movabs	rax, offset __llvm_gcov_ctr.11+8
	mov	rcx, qword ptr [rax]
	inc	rcx
	mov	qword ptr [rax], rcx
	movabs	rax, offset .L__profc_strchr+8
	mov	rcx, qword ptr [rax]
	inc	rcx
	mov	qword ptr [rax], rcx
.LBB11_2:                               # =>This Inner Loop Header: Depth=1
	mov	rax, qword ptr [rbp - 16]
	movsx	eax, byte ptr [rax]
	cmp	eax, dword ptr [rbp - 20]
	jne	.LBB11_4
# %bb.3:
	movabs	rax, offset __llvm_gcov_ctr.11
	mov	rcx, qword ptr [rax]
	inc	rcx
	mov	qword ptr [rax], rcx
	movabs	rax, offset .L__profc_strchr+16
	mov	rcx, qword ptr [rax]
	inc	rcx
	mov	qword ptr [rax], rcx
	mov	rax, qword ptr [rbp - 16]
	mov	qword ptr [rbp - 8], rax
	jmp	.LBB11_7
.LBB11_4:                               #   in Loop: Header=BB11_2 Depth=1
	jmp	.LBB11_5
.LBB11_5:                               #   in Loop: Header=BB11_2 Depth=1
	mov	rax, qword ptr [rbp - 16]
	mov	rcx, rax
	add	rcx, 1
	mov	qword ptr [rbp - 16], rcx
	cmp	byte ptr [rax], 0
	jne	.LBB11_1
# %bb.6:
	movabs	rax, offset __llvm_gcov_ctr.11+16
	mov	rcx, qword ptr [rax]
	inc	rcx
	mov	qword ptr [rax], rcx
	mov	qword ptr [rbp - 8], 0
.LBB11_7:
	mov	rax, qword ptr [rbp - 8]
	pop	rbp
	.cfi_def_cfa rsp, 8
	fldz
	fldz
	fldz
	fldz
	fldz
	fldz
	fldz
	fldz
	fstp	st(0)
	fstp	st(0)
	fstp	st(0)
	fstp	st(0)
	fstp	st(0)
	fstp	st(0)
	fstp	st(0)
	fstp	st(0)
	xor	ecx, ecx
	xor	edi, edi
	xor	edx, edx
	xor	esi, esi
	xor	r8d, r8d
	xor	r9d, r9d
	xor	r10d, r10d
	xor	r11d, r11d
	pxor	xmm0, xmm0
	pxor	xmm1, xmm1
	pxor	xmm2, xmm2
	pxor	xmm3, xmm3
	pxor	xmm4, xmm4
	pxor	xmm5, xmm5
	pxor	xmm6, xmm6
	pxor	xmm7, xmm7
	pxor	xmm8, xmm8
	pxor	xmm9, xmm9
	pxor	xmm10, xmm10
	pxor	xmm11, xmm11
	pxor	xmm12, xmm12
	pxor	xmm13, xmm13
	pxor	xmm14, xmm14
	pxor	xmm15, xmm15
	ret
	int3
.Lfunc_end11:
	.size	strchr, .Lfunc_end11-strchr
	.cfi_endproc
                                        # -- End function
	.globl	strcmp                          # -- Begin function strcmp
	.p2align	4, 0x90
	.type	strcmp,@function
strcmp:                                 # @strcmp
	.cfi_startproc
# %bb.0:
	push	rbp
	.cfi_def_cfa_offset 16
	.cfi_offset rbp, -16
	mov	rbp, rsp
	.cfi_def_cfa_register rbp
	movabs	rax, offset __llvm_gcov_ctr.12
	mov	rcx, qword ptr [rax]
	inc	rcx
	mov	qword ptr [rax], rcx
	mov	qword ptr [rbp - 8], rdi
	mov	qword ptr [rbp - 16], rsi
	movabs	rax, offset .L__profc_strcmp
	mov	rcx, qword ptr [rax]
	inc	rcx
	mov	qword ptr [rax], rcx
.LBB12_1:                               # =>This Inner Loop Header: Depth=1
	mov	rax, qword ptr [rbp - 8]
	movsx	ecx, byte ptr [rax]
	mov	rax, qword ptr [rbp - 16]
	movsx	edx, byte ptr [rax]
	xor	eax, eax
                                        # kill: def $al killed $al killed $eax
	cmp	ecx, edx
	mov	byte ptr [rbp - 17], al         # 1-byte Spill
	jne	.LBB12_4
# %bb.2:                                #   in Loop: Header=BB12_1 Depth=1
	movabs	rax, offset __llvm_gcov_ctr.12+8
	mov	rcx, qword ptr [rax]
	inc	rcx
	mov	qword ptr [rax], rcx
	movabs	rax, offset .L__profc_strcmp+16
	mov	rcx, qword ptr [rax]
	inc	rcx
	mov	qword ptr [rax], rcx
	mov	rax, qword ptr [rbp - 8]
	movsx	eax, byte ptr [rax]
	cmp	eax, 0
	setne	al
	mov	byte ptr [rbp - 18], al         # 1-byte Spill
	test	al, 1
	mov	byte ptr [rbp - 17], al         # 1-byte Spill
	jne	.LBB12_3
	jmp	.LBB12_4
.LBB12_3:                               #   in Loop: Header=BB12_1 Depth=1
	mov	al, byte ptr [rbp - 18]         # 1-byte Reload
	movabs	rcx, offset __llvm_gcov_ctr.12+16
	mov	rdx, qword ptr [rcx]
	inc	rdx
	mov	qword ptr [rcx], rdx
	movabs	rcx, offset .L__profc_strcmp+24
	mov	rdx, qword ptr [rcx]
	inc	rdx
	mov	qword ptr [rcx], rdx
	mov	byte ptr [rbp - 17], al         # 1-byte Spill
.LBB12_4:                               #   in Loop: Header=BB12_1 Depth=1
	mov	al, byte ptr [rbp - 17]         # 1-byte Reload
	test	al, 1
	jne	.LBB12_5
	jmp	.LBB12_7
.LBB12_5:                               #   in Loop: Header=BB12_1 Depth=1
	movabs	rax, offset .L__profc_strcmp+8
	mov	rcx, qword ptr [rax]
	inc	rcx
	mov	qword ptr [rax], rcx
# %bb.6:                                #   in Loop: Header=BB12_1 Depth=1
	movabs	rax, offset __llvm_gcov_ctr.12+24
	mov	rcx, qword ptr [rax]
	inc	rcx
	mov	qword ptr [rax], rcx
	mov	rax, qword ptr [rbp - 8]
	add	rax, 1
	mov	qword ptr [rbp - 8], rax
	mov	rax, qword ptr [rbp - 16]
	add	rax, 1
	mov	qword ptr [rbp - 16], rax
	jmp	.LBB12_1
.LBB12_7:
	mov	rax, qword ptr [rbp - 8]
	movzx	eax, byte ptr [rax]
	mov	rcx, qword ptr [rbp - 16]
	movzx	ecx, byte ptr [rcx]
	sub	eax, ecx
	pop	rbp
	.cfi_def_cfa rsp, 8
	fldz
	fldz
	fldz
	fldz
	fldz
	fldz
	fldz
	fldz
	fstp	st(0)
	fstp	st(0)
	fstp	st(0)
	fstp	st(0)
	fstp	st(0)
	fstp	st(0)
	fstp	st(0)
	fstp	st(0)
	xor	ecx, ecx
	xor	edi, edi
	xor	edx, edx
	xor	esi, esi
	xor	r8d, r8d
	xor	r9d, r9d
	xor	r10d, r10d
	xor	r11d, r11d
	pxor	xmm0, xmm0
	pxor	xmm1, xmm1
	pxor	xmm2, xmm2
	pxor	xmm3, xmm3
	pxor	xmm4, xmm4
	pxor	xmm5, xmm5
	pxor	xmm6, xmm6
	pxor	xmm7, xmm7
	pxor	xmm8, xmm8
	pxor	xmm9, xmm9
	pxor	xmm10, xmm10
	pxor	xmm11, xmm11
	pxor	xmm12, xmm12
	pxor	xmm13, xmm13
	pxor	xmm14, xmm14
	pxor	xmm15, xmm15
	ret
	int3
.Lfunc_end12:
	.size	strcmp, .Lfunc_end12-strcmp
	.cfi_endproc
                                        # -- End function
	.globl	strlen                          # -- Begin function strlen
	.p2align	4, 0x90
	.type	strlen,@function
strlen:                                 # @strlen
	.cfi_startproc
# %bb.0:
	push	rbp
	.cfi_def_cfa_offset 16
	.cfi_offset rbp, -16
	mov	rbp, rsp
	.cfi_def_cfa_register rbp
	movabs	rax, offset __llvm_gcov_ctr.13
	mov	rcx, qword ptr [rax]
	inc	rcx
	mov	qword ptr [rax], rcx
	mov	qword ptr [rbp - 8], rdi
	movabs	rax, offset .L__profc_strlen
	mov	rcx, qword ptr [rax]
	inc	rcx
	mov	qword ptr [rax], rcx
	mov	rax, qword ptr [rbp - 8]
	mov	qword ptr [rbp - 16], rax
.LBB13_1:                               # =>This Inner Loop Header: Depth=1
	mov	rax, qword ptr [rbp - 8]
	cmp	byte ptr [rax], 0
	je	.LBB13_4
# %bb.2:                                #   in Loop: Header=BB13_1 Depth=1
	movabs	rax, offset .L__profc_strlen+8
	mov	rcx, qword ptr [rax]
	inc	rcx
	mov	qword ptr [rax], rcx
# %bb.3:                                #   in Loop: Header=BB13_1 Depth=1
	movabs	rax, offset __llvm_gcov_ctr.13+8
	mov	rcx, qword ptr [rax]
	inc	rcx
	mov	qword ptr [rax], rcx
	mov	rax, qword ptr [rbp - 8]
	add	rax, 1
	mov	qword ptr [rbp - 8], rax
	jmp	.LBB13_1
.LBB13_4:
	mov	rax, qword ptr [rbp - 8]
	mov	rcx, qword ptr [rbp - 16]
	sub	rax, rcx
	pop	rbp
	.cfi_def_cfa rsp, 8
	fldz
	fldz
	fldz
	fldz
	fldz
	fldz
	fldz
	fldz
	fstp	st(0)
	fstp	st(0)
	fstp	st(0)
	fstp	st(0)
	fstp	st(0)
	fstp	st(0)
	fstp	st(0)
	fstp	st(0)
	xor	ecx, ecx
	xor	edi, edi
	xor	edx, edx
	xor	esi, esi
	xor	r8d, r8d
	xor	r9d, r9d
	xor	r10d, r10d
	xor	r11d, r11d
	pxor	xmm0, xmm0
	pxor	xmm1, xmm1
	pxor	xmm2, xmm2
	pxor	xmm3, xmm3
	pxor	xmm4, xmm4
	pxor	xmm5, xmm5
	pxor	xmm6, xmm6
	pxor	xmm7, xmm7
	pxor	xmm8, xmm8
	pxor	xmm9, xmm9
	pxor	xmm10, xmm10
	pxor	xmm11, xmm11
	pxor	xmm12, xmm12
	pxor	xmm13, xmm13
	pxor	xmm14, xmm14
	pxor	xmm15, xmm15
	ret
	int3
.Lfunc_end13:
	.size	strlen, .Lfunc_end13-strlen
	.cfi_endproc
                                        # -- End function
	.globl	strncmp                         # -- Begin function strncmp
	.p2align	4, 0x90
	.type	strncmp,@function
strncmp:                                # @strncmp
	.cfi_startproc
# %bb.0:
	push	rbp
	.cfi_def_cfa_offset 16
	.cfi_offset rbp, -16
	mov	rbp, rsp
	.cfi_def_cfa_register rbp
	mov	qword ptr [rbp - 16], rdi
	mov	qword ptr [rbp - 24], rsi
	mov	qword ptr [rbp - 32], rdx
	movabs	rax, offset .L__profc_strncmp
	mov	rcx, qword ptr [rax]
	inc	rcx
	mov	qword ptr [rax], rcx
	mov	rax, qword ptr [rbp - 16]
	mov	qword ptr [rbp - 40], rax
	mov	rax, qword ptr [rbp - 24]
	mov	qword ptr [rbp - 48], rax
	mov	rax, qword ptr [rbp - 32]
	mov	rcx, rax
	add	rcx, -1
	mov	qword ptr [rbp - 32], rcx
	cmp	rax, 0
	jne	.LBB14_2
# %bb.1:
	movabs	rax, offset __llvm_gcov_ctr.14+8
	mov	rcx, qword ptr [rax]
	inc	rcx
	mov	qword ptr [rax], rcx
	movabs	rax, offset .L__profc_strncmp+8
	mov	rcx, qword ptr [rax]
	inc	rcx
	mov	qword ptr [rax], rcx
	mov	dword ptr [rbp - 4], 0
	jmp	.LBB14_14
.LBB14_2:
	movabs	rax, offset __llvm_gcov_ctr.14
	mov	rcx, qword ptr [rax]
	inc	rcx
	mov	qword ptr [rax], rcx
.LBB14_3:                               # =>This Inner Loop Header: Depth=1
	mov	rax, qword ptr [rbp - 40]
	movzx	ecx, byte ptr [rax]
	xor	eax, eax
                                        # kill: def $al killed $al killed $eax
	cmp	ecx, 0
	mov	byte ptr [rbp - 49], al         # 1-byte Spill
	je	.LBB14_10
# %bb.4:                                #   in Loop: Header=BB14_3 Depth=1
	movabs	rax, offset __llvm_gcov_ctr.14+16
	mov	rcx, qword ptr [rax]
	inc	rcx
	mov	qword ptr [rax], rcx
	movabs	rax, offset .L__profc_strncmp+56
	mov	rcx, qword ptr [rax]
	inc	rcx
	mov	qword ptr [rax], rcx
	mov	rax, qword ptr [rbp - 48]
	movzx	ecx, byte ptr [rax]
	xor	eax, eax
                                        # kill: def $al killed $al killed $eax
	cmp	ecx, 0
	mov	byte ptr [rbp - 49], al         # 1-byte Spill
	je	.LBB14_10
# %bb.5:                                #   in Loop: Header=BB14_3 Depth=1
	movabs	rax, offset __llvm_gcov_ctr.14+24
	mov	rcx, qword ptr [rax]
	inc	rcx
	mov	qword ptr [rax], rcx
	movabs	rax, offset .L__profc_strncmp+64
	mov	rcx, qword ptr [rax]
	inc	rcx
	mov	qword ptr [rax], rcx
# %bb.6:                                #   in Loop: Header=BB14_3 Depth=1
	movabs	rax, offset .L__profc_strncmp+40
	mov	rcx, qword ptr [rax]
	inc	rcx
	mov	qword ptr [rax], rcx
	xor	eax, eax
                                        # kill: def $al killed $al killed $eax
	cmp	qword ptr [rbp - 32], 0
	mov	byte ptr [rbp - 49], al         # 1-byte Spill
	je	.LBB14_10
# %bb.7:                                #   in Loop: Header=BB14_3 Depth=1
	movabs	rax, offset __llvm_gcov_ctr.14+32
	mov	rcx, qword ptr [rax]
	inc	rcx
	mov	qword ptr [rax], rcx
	movabs	rax, offset .L__profc_strncmp+48
	mov	rcx, qword ptr [rax]
	inc	rcx
	mov	qword ptr [rax], rcx
# %bb.8:                                #   in Loop: Header=BB14_3 Depth=1
	movabs	rax, offset .L__profc_strncmp+24
	mov	rcx, qword ptr [rax]
	inc	rcx
	mov	qword ptr [rax], rcx
	mov	rax, qword ptr [rbp - 40]
	movzx	eax, byte ptr [rax]
	mov	rcx, qword ptr [rbp - 48]
	movzx	ecx, byte ptr [rcx]
	cmp	eax, ecx
	sete	al
	mov	byte ptr [rbp - 50], al         # 1-byte Spill
	test	al, 1
	mov	byte ptr [rbp - 49], al         # 1-byte Spill
	jne	.LBB14_9
	jmp	.LBB14_10
.LBB14_9:                               #   in Loop: Header=BB14_3 Depth=1
	mov	al, byte ptr [rbp - 50]         # 1-byte Reload
	movabs	rcx, offset __llvm_gcov_ctr.14+40
	mov	rdx, qword ptr [rcx]
	inc	rdx
	mov	qword ptr [rcx], rdx
	movabs	rcx, offset .L__profc_strncmp+32
	mov	rdx, qword ptr [rcx]
	inc	rdx
	mov	qword ptr [rcx], rdx
	mov	byte ptr [rbp - 49], al         # 1-byte Spill
.LBB14_10:                              #   in Loop: Header=BB14_3 Depth=1
	mov	al, byte ptr [rbp - 49]         # 1-byte Reload
	test	al, 1
	jne	.LBB14_11
	jmp	.LBB14_13
.LBB14_11:                              #   in Loop: Header=BB14_3 Depth=1
	movabs	rax, offset .L__profc_strncmp+16
	mov	rcx, qword ptr [rax]
	inc	rcx
	mov	qword ptr [rax], rcx
# %bb.12:                               #   in Loop: Header=BB14_3 Depth=1
	movabs	rax, offset __llvm_gcov_ctr.14+48
	mov	rcx, qword ptr [rax]
	inc	rcx
	mov	qword ptr [rax], rcx
	mov	rax, qword ptr [rbp - 40]
	add	rax, 1
	mov	qword ptr [rbp - 40], rax
	mov	rax, qword ptr [rbp - 48]
	add	rax, 1
	mov	qword ptr [rbp - 48], rax
	mov	rax, qword ptr [rbp - 32]
	add	rax, -1
	mov	qword ptr [rbp - 32], rax
	jmp	.LBB14_3
.LBB14_13:
	mov	rax, qword ptr [rbp - 40]
	movzx	eax, byte ptr [rax]
	mov	rcx, qword ptr [rbp - 48]
	movzx	ecx, byte ptr [rcx]
	sub	eax, ecx
	mov	dword ptr [rbp - 4], eax
.LBB14_14:
	mov	eax, dword ptr [rbp - 4]
	pop	rbp
	.cfi_def_cfa rsp, 8
	fldz
	fldz
	fldz
	fldz
	fldz
	fldz
	fldz
	fldz
	fstp	st(0)
	fstp	st(0)
	fstp	st(0)
	fstp	st(0)
	fstp	st(0)
	fstp	st(0)
	fstp	st(0)
	fstp	st(0)
	xor	ecx, ecx
	xor	edi, edi
	xor	edx, edx
	xor	esi, esi
	xor	r8d, r8d
	xor	r9d, r9d
	xor	r10d, r10d
	xor	r11d, r11d
	pxor	xmm0, xmm0
	pxor	xmm1, xmm1
	pxor	xmm2, xmm2
	pxor	xmm3, xmm3
	pxor	xmm4, xmm4
	pxor	xmm5, xmm5
	pxor	xmm6, xmm6
	pxor	xmm7, xmm7
	pxor	xmm8, xmm8
	pxor	xmm9, xmm9
	pxor	xmm10, xmm10
	pxor	xmm11, xmm11
	pxor	xmm12, xmm12
	pxor	xmm13, xmm13
	pxor	xmm14, xmm14
	pxor	xmm15, xmm15
	ret
	int3
.Lfunc_end14:
	.size	strncmp, .Lfunc_end14-strncmp
	.cfi_endproc
                                        # -- End function
	.globl	swab                            # -- Begin function swab
	.p2align	4, 0x90
	.type	swab,@function
swab:                                   # @swab
	.cfi_startproc
# %bb.0:
	push	rbp
	.cfi_def_cfa_offset 16
	.cfi_offset rbp, -16
	mov	rbp, rsp
	.cfi_def_cfa_register rbp
	movabs	rax, offset __llvm_gcov_ctr.15
	mov	rcx, qword ptr [rax]
	inc	rcx
	mov	qword ptr [rax], rcx
	mov	qword ptr [rbp - 8], rdi
	mov	qword ptr [rbp - 16], rsi
	mov	qword ptr [rbp - 24], rdx
	movabs	rax, offset .L__profc_swab
	mov	rcx, qword ptr [rax]
	inc	rcx
	mov	qword ptr [rax], rcx
	mov	rax, qword ptr [rbp - 8]
	mov	qword ptr [rbp - 32], rax
	mov	rax, qword ptr [rbp - 16]
	mov	qword ptr [rbp - 40], rax
.LBB15_1:                               # =>This Inner Loop Header: Depth=1
	cmp	qword ptr [rbp - 24], 1
	jle	.LBB15_4
# %bb.2:                                #   in Loop: Header=BB15_1 Depth=1
	movabs	rax, offset .L__profc_swab+8
	mov	rcx, qword ptr [rax]
	inc	rcx
	mov	qword ptr [rax], rcx
	mov	rax, qword ptr [rbp - 32]
	mov	cl, byte ptr [rax + 1]
	mov	rax, qword ptr [rbp - 40]
	mov	byte ptr [rax], cl
	mov	rax, qword ptr [rbp - 32]
	mov	cl, byte ptr [rax]
	mov	rax, qword ptr [rbp - 40]
	mov	byte ptr [rax + 1], cl
	mov	rax, qword ptr [rbp - 40]
	add	rax, 2
	mov	qword ptr [rbp - 40], rax
	mov	rax, qword ptr [rbp - 32]
	add	rax, 2
	mov	qword ptr [rbp - 32], rax
# %bb.3:                                #   in Loop: Header=BB15_1 Depth=1
	movabs	rax, offset __llvm_gcov_ctr.15+8
	mov	rcx, qword ptr [rax]
	inc	rcx
	mov	qword ptr [rax], rcx
	mov	rax, qword ptr [rbp - 24]
	sub	rax, 2
	mov	qword ptr [rbp - 24], rax
	jmp	.LBB15_1
.LBB15_4:
	pop	rbp
	.cfi_def_cfa rsp, 8
	fldz
	fldz
	fldz
	fldz
	fldz
	fldz
	fldz
	fldz
	fstp	st(0)
	fstp	st(0)
	fstp	st(0)
	fstp	st(0)
	fstp	st(0)
	fstp	st(0)
	fstp	st(0)
	fstp	st(0)
	xor	eax, eax
	xor	ecx, ecx
	xor	edi, edi
	xor	edx, edx
	xor	esi, esi
	xor	r8d, r8d
	xor	r9d, r9d
	xor	r10d, r10d
	xor	r11d, r11d
	pxor	xmm0, xmm0
	pxor	xmm1, xmm1
	pxor	xmm2, xmm2
	pxor	xmm3, xmm3
	pxor	xmm4, xmm4
	pxor	xmm5, xmm5
	pxor	xmm6, xmm6
	pxor	xmm7, xmm7
	pxor	xmm8, xmm8
	pxor	xmm9, xmm9
	pxor	xmm10, xmm10
	pxor	xmm11, xmm11
	pxor	xmm12, xmm12
	pxor	xmm13, xmm13
	pxor	xmm14, xmm14
	pxor	xmm15, xmm15
	ret
	int3
.Lfunc_end15:
	.size	swab, .Lfunc_end15-swab
	.cfi_endproc
                                        # -- End function
	.globl	isalpha                         # -- Begin function isalpha
	.p2align	4, 0x90
	.type	isalpha,@function
isalpha:                                # @isalpha
	.cfi_startproc
# %bb.0:
	push	rbp
	.cfi_def_cfa_offset 16
	.cfi_offset rbp, -16
	mov	rbp, rsp
	.cfi_def_cfa_register rbp
	movabs	rax, offset __llvm_gcov_ctr.16
	mov	rcx, qword ptr [rax]
	inc	rcx
	mov	qword ptr [rax], rcx
	mov	dword ptr [rbp - 4], edi
	movabs	rax, offset .L__profc_isalpha
	mov	rcx, qword ptr [rax]
	inc	rcx
	mov	qword ptr [rax], rcx
	mov	eax, dword ptr [rbp - 4]
	or	eax, 32
	sub	eax, 97
	cmp	eax, 26
	setb	al
	and	al, 1
	movzx	eax, al
	pop	rbp
	.cfi_def_cfa rsp, 8
	fldz
	fldz
	fldz
	fldz
	fldz
	fldz
	fldz
	fldz
	fstp	st(0)
	fstp	st(0)
	fstp	st(0)
	fstp	st(0)
	fstp	st(0)
	fstp	st(0)
	fstp	st(0)
	fstp	st(0)
	xor	ecx, ecx
	xor	edi, edi
	xor	edx, edx
	xor	esi, esi
	xor	r8d, r8d
	xor	r9d, r9d
	xor	r10d, r10d
	xor	r11d, r11d
	pxor	xmm0, xmm0
	pxor	xmm1, xmm1
	pxor	xmm2, xmm2
	pxor	xmm3, xmm3
	pxor	xmm4, xmm4
	pxor	xmm5, xmm5
	pxor	xmm6, xmm6
	pxor	xmm7, xmm7
	pxor	xmm8, xmm8
	pxor	xmm9, xmm9
	pxor	xmm10, xmm10
	pxor	xmm11, xmm11
	pxor	xmm12, xmm12
	pxor	xmm13, xmm13
	pxor	xmm14, xmm14
	pxor	xmm15, xmm15
	ret
	int3
.Lfunc_end16:
	.size	isalpha, .Lfunc_end16-isalpha
	.cfi_endproc
                                        # -- End function
	.globl	isascii                         # -- Begin function isascii
	.p2align	4, 0x90
	.type	isascii,@function
isascii:                                # @isascii
	.cfi_startproc
# %bb.0:
	push	rbp
	.cfi_def_cfa_offset 16
	.cfi_offset rbp, -16
	mov	rbp, rsp
	.cfi_def_cfa_register rbp
	movabs	rax, offset __llvm_gcov_ctr.17
	mov	rcx, qword ptr [rax]
	inc	rcx
	mov	qword ptr [rax], rcx
	mov	dword ptr [rbp - 4], edi
	movabs	rax, offset .L__profc_isascii
	mov	rcx, qword ptr [rax]
	inc	rcx
	mov	qword ptr [rax], rcx
	mov	eax, dword ptr [rbp - 4]
	and	eax, -128
	cmp	eax, 0
	setne	al
	xor	al, -1
	and	al, 1
	movzx	eax, al
	pop	rbp
	.cfi_def_cfa rsp, 8
	fldz
	fldz
	fldz
	fldz
	fldz
	fldz
	fldz
	fldz
	fstp	st(0)
	fstp	st(0)
	fstp	st(0)
	fstp	st(0)
	fstp	st(0)
	fstp	st(0)
	fstp	st(0)
	fstp	st(0)
	xor	ecx, ecx
	xor	edi, edi
	xor	edx, edx
	xor	esi, esi
	xor	r8d, r8d
	xor	r9d, r9d
	xor	r10d, r10d
	xor	r11d, r11d
	pxor	xmm0, xmm0
	pxor	xmm1, xmm1
	pxor	xmm2, xmm2
	pxor	xmm3, xmm3
	pxor	xmm4, xmm4
	pxor	xmm5, xmm5
	pxor	xmm6, xmm6
	pxor	xmm7, xmm7
	pxor	xmm8, xmm8
	pxor	xmm9, xmm9
	pxor	xmm10, xmm10
	pxor	xmm11, xmm11
	pxor	xmm12, xmm12
	pxor	xmm13, xmm13
	pxor	xmm14, xmm14
	pxor	xmm15, xmm15
	ret
	int3
.Lfunc_end17:
	.size	isascii, .Lfunc_end17-isascii
	.cfi_endproc
                                        # -- End function
	.globl	isblank                         # -- Begin function isblank
	.p2align	4, 0x90
	.type	isblank,@function
isblank:                                # @isblank
	.cfi_startproc
# %bb.0:
	push	rbp
	.cfi_def_cfa_offset 16
	.cfi_offset rbp, -16
	mov	rbp, rsp
	.cfi_def_cfa_register rbp
	movabs	rax, offset __llvm_gcov_ctr.18
	mov	rcx, qword ptr [rax]
	inc	rcx
	mov	qword ptr [rax], rcx
	mov	dword ptr [rbp - 4], edi
	movabs	rax, offset .L__profc_isblank
	mov	rcx, qword ptr [rax]
	inc	rcx
	mov	qword ptr [rax], rcx
	mov	al, 1
	cmp	dword ptr [rbp - 4], 32
	mov	byte ptr [rbp - 5], al          # 1-byte Spill
	je	.LBB18_3
# %bb.1:
	movabs	rax, offset __llvm_gcov_ctr.18+8
	mov	rcx, qword ptr [rax]
	inc	rcx
	mov	qword ptr [rax], rcx
	movabs	rax, offset .L__profc_isblank+8
	mov	rcx, qword ptr [rax]
	inc	rcx
	mov	qword ptr [rax], rcx
	cmp	dword ptr [rbp - 4], 9
	sete	al
	mov	byte ptr [rbp - 6], al          # 1-byte Spill
	test	al, 1
	mov	byte ptr [rbp - 5], al          # 1-byte Spill
	jne	.LBB18_3
# %bb.2:
	mov	al, byte ptr [rbp - 6]          # 1-byte Reload
	movabs	rcx, offset __llvm_gcov_ctr.18+16
	mov	rdx, qword ptr [rcx]
	inc	rdx
	mov	qword ptr [rcx], rdx
	movabs	rcx, offset .L__profc_isblank+16
	mov	rdx, qword ptr [rcx]
	inc	rdx
	mov	qword ptr [rcx], rdx
	mov	byte ptr [rbp - 5], al          # 1-byte Spill
.LBB18_3:
	mov	al, byte ptr [rbp - 5]          # 1-byte Reload
	and	al, 1
	movzx	eax, al
	pop	rbp
	.cfi_def_cfa rsp, 8
	fldz
	fldz
	fldz
	fldz
	fldz
	fldz
	fldz
	fldz
	fstp	st(0)
	fstp	st(0)
	fstp	st(0)
	fstp	st(0)
	fstp	st(0)
	fstp	st(0)
	fstp	st(0)
	fstp	st(0)
	xor	ecx, ecx
	xor	edi, edi
	xor	edx, edx
	xor	esi, esi
	xor	r8d, r8d
	xor	r9d, r9d
	xor	r10d, r10d
	xor	r11d, r11d
	pxor	xmm0, xmm0
	pxor	xmm1, xmm1
	pxor	xmm2, xmm2
	pxor	xmm3, xmm3
	pxor	xmm4, xmm4
	pxor	xmm5, xmm5
	pxor	xmm6, xmm6
	pxor	xmm7, xmm7
	pxor	xmm8, xmm8
	pxor	xmm9, xmm9
	pxor	xmm10, xmm10
	pxor	xmm11, xmm11
	pxor	xmm12, xmm12
	pxor	xmm13, xmm13
	pxor	xmm14, xmm14
	pxor	xmm15, xmm15
	ret
	int3
.Lfunc_end18:
	.size	isblank, .Lfunc_end18-isblank
	.cfi_endproc
                                        # -- End function
	.globl	iscntrl                         # -- Begin function iscntrl
	.p2align	4, 0x90
	.type	iscntrl,@function
iscntrl:                                # @iscntrl
	.cfi_startproc
# %bb.0:
	push	rbp
	.cfi_def_cfa_offset 16
	.cfi_offset rbp, -16
	mov	rbp, rsp
	.cfi_def_cfa_register rbp
	movabs	rax, offset __llvm_gcov_ctr.19
	mov	rcx, qword ptr [rax]
	inc	rcx
	mov	qword ptr [rax], rcx
	mov	dword ptr [rbp - 4], edi
	movabs	rax, offset .L__profc_iscntrl
	mov	rcx, qword ptr [rax]
	inc	rcx
	mov	qword ptr [rax], rcx
	mov	al, 1
	cmp	dword ptr [rbp - 4], 32
	mov	byte ptr [rbp - 5], al          # 1-byte Spill
	jb	.LBB19_3
# %bb.1:
	movabs	rax, offset __llvm_gcov_ctr.19+8
	mov	rcx, qword ptr [rax]
	inc	rcx
	mov	qword ptr [rax], rcx
	movabs	rax, offset .L__profc_iscntrl+8
	mov	rcx, qword ptr [rax]
	inc	rcx
	mov	qword ptr [rax], rcx
	cmp	dword ptr [rbp - 4], 127
	sete	al
	mov	byte ptr [rbp - 6], al          # 1-byte Spill
	test	al, 1
	mov	byte ptr [rbp - 5], al          # 1-byte Spill
	jne	.LBB19_3
# %bb.2:
	mov	al, byte ptr [rbp - 6]          # 1-byte Reload
	movabs	rcx, offset __llvm_gcov_ctr.19+16
	mov	rdx, qword ptr [rcx]
	inc	rdx
	mov	qword ptr [rcx], rdx
	movabs	rcx, offset .L__profc_iscntrl+16
	mov	rdx, qword ptr [rcx]
	inc	rdx
	mov	qword ptr [rcx], rdx
	mov	byte ptr [rbp - 5], al          # 1-byte Spill
.LBB19_3:
	mov	al, byte ptr [rbp - 5]          # 1-byte Reload
	and	al, 1
	movzx	eax, al
	pop	rbp
	.cfi_def_cfa rsp, 8
	fldz
	fldz
	fldz
	fldz
	fldz
	fldz
	fldz
	fldz
	fstp	st(0)
	fstp	st(0)
	fstp	st(0)
	fstp	st(0)
	fstp	st(0)
	fstp	st(0)
	fstp	st(0)
	fstp	st(0)
	xor	ecx, ecx
	xor	edi, edi
	xor	edx, edx
	xor	esi, esi
	xor	r8d, r8d
	xor	r9d, r9d
	xor	r10d, r10d
	xor	r11d, r11d
	pxor	xmm0, xmm0
	pxor	xmm1, xmm1
	pxor	xmm2, xmm2
	pxor	xmm3, xmm3
	pxor	xmm4, xmm4
	pxor	xmm5, xmm5
	pxor	xmm6, xmm6
	pxor	xmm7, xmm7
	pxor	xmm8, xmm8
	pxor	xmm9, xmm9
	pxor	xmm10, xmm10
	pxor	xmm11, xmm11
	pxor	xmm12, xmm12
	pxor	xmm13, xmm13
	pxor	xmm14, xmm14
	pxor	xmm15, xmm15
	ret
	int3
.Lfunc_end19:
	.size	iscntrl, .Lfunc_end19-iscntrl
	.cfi_endproc
                                        # -- End function
	.globl	isdigit                         # -- Begin function isdigit
	.p2align	4, 0x90
	.type	isdigit,@function
isdigit:                                # @isdigit
	.cfi_startproc
# %bb.0:
	push	rbp
	.cfi_def_cfa_offset 16
	.cfi_offset rbp, -16
	mov	rbp, rsp
	.cfi_def_cfa_register rbp
	movabs	rax, offset __llvm_gcov_ctr.20
	mov	rcx, qword ptr [rax]
	inc	rcx
	mov	qword ptr [rax], rcx
	mov	dword ptr [rbp - 4], edi
	movabs	rax, offset .L__profc_isdigit
	mov	rcx, qword ptr [rax]
	inc	rcx
	mov	qword ptr [rax], rcx
	mov	eax, dword ptr [rbp - 4]
	sub	eax, 48
	cmp	eax, 10
	setb	al
	and	al, 1
	movzx	eax, al
	pop	rbp
	.cfi_def_cfa rsp, 8
	fldz
	fldz
	fldz
	fldz
	fldz
	fldz
	fldz
	fldz
	fstp	st(0)
	fstp	st(0)
	fstp	st(0)
	fstp	st(0)
	fstp	st(0)
	fstp	st(0)
	fstp	st(0)
	fstp	st(0)
	xor	ecx, ecx
	xor	edi, edi
	xor	edx, edx
	xor	esi, esi
	xor	r8d, r8d
	xor	r9d, r9d
	xor	r10d, r10d
	xor	r11d, r11d
	pxor	xmm0, xmm0
	pxor	xmm1, xmm1
	pxor	xmm2, xmm2
	pxor	xmm3, xmm3
	pxor	xmm4, xmm4
	pxor	xmm5, xmm5
	pxor	xmm6, xmm6
	pxor	xmm7, xmm7
	pxor	xmm8, xmm8
	pxor	xmm9, xmm9
	pxor	xmm10, xmm10
	pxor	xmm11, xmm11
	pxor	xmm12, xmm12
	pxor	xmm13, xmm13
	pxor	xmm14, xmm14
	pxor	xmm15, xmm15
	ret
	int3
.Lfunc_end20:
	.size	isdigit, .Lfunc_end20-isdigit
	.cfi_endproc
                                        # -- End function
	.globl	isgraph                         # -- Begin function isgraph
	.p2align	4, 0x90
	.type	isgraph,@function
isgraph:                                # @isgraph
	.cfi_startproc
# %bb.0:
	push	rbp
	.cfi_def_cfa_offset 16
	.cfi_offset rbp, -16
	mov	rbp, rsp
	.cfi_def_cfa_register rbp
	movabs	rax, offset __llvm_gcov_ctr.21
	mov	rcx, qword ptr [rax]
	inc	rcx
	mov	qword ptr [rax], rcx
	mov	dword ptr [rbp - 4], edi
	movabs	rax, offset .L__profc_isgraph
	mov	rcx, qword ptr [rax]
	inc	rcx
	mov	qword ptr [rax], rcx
	mov	eax, dword ptr [rbp - 4]
	sub	eax, 33
	cmp	eax, 94
	setb	al
	and	al, 1
	movzx	eax, al
	pop	rbp
	.cfi_def_cfa rsp, 8
	fldz
	fldz
	fldz
	fldz
	fldz
	fldz
	fldz
	fldz
	fstp	st(0)
	fstp	st(0)
	fstp	st(0)
	fstp	st(0)
	fstp	st(0)
	fstp	st(0)
	fstp	st(0)
	fstp	st(0)
	xor	ecx, ecx
	xor	edi, edi
	xor	edx, edx
	xor	esi, esi
	xor	r8d, r8d
	xor	r9d, r9d
	xor	r10d, r10d
	xor	r11d, r11d
	pxor	xmm0, xmm0
	pxor	xmm1, xmm1
	pxor	xmm2, xmm2
	pxor	xmm3, xmm3
	pxor	xmm4, xmm4
	pxor	xmm5, xmm5
	pxor	xmm6, xmm6
	pxor	xmm7, xmm7
	pxor	xmm8, xmm8
	pxor	xmm9, xmm9
	pxor	xmm10, xmm10
	pxor	xmm11, xmm11
	pxor	xmm12, xmm12
	pxor	xmm13, xmm13
	pxor	xmm14, xmm14
	pxor	xmm15, xmm15
	ret
	int3
.Lfunc_end21:
	.size	isgraph, .Lfunc_end21-isgraph
	.cfi_endproc
                                        # -- End function
	.globl	islower                         # -- Begin function islower
	.p2align	4, 0x90
	.type	islower,@function
islower:                                # @islower
	.cfi_startproc
# %bb.0:
	push	rbp
	.cfi_def_cfa_offset 16
	.cfi_offset rbp, -16
	mov	rbp, rsp
	.cfi_def_cfa_register rbp
	movabs	rax, offset __llvm_gcov_ctr.22
	mov	rcx, qword ptr [rax]
	inc	rcx
	mov	qword ptr [rax], rcx
	mov	dword ptr [rbp - 4], edi
	movabs	rax, offset .L__profc_islower
	mov	rcx, qword ptr [rax]
	inc	rcx
	mov	qword ptr [rax], rcx
	mov	eax, dword ptr [rbp - 4]
	sub	eax, 97
	cmp	eax, 26
	setb	al
	and	al, 1
	movzx	eax, al
	pop	rbp
	.cfi_def_cfa rsp, 8
	fldz
	fldz
	fldz
	fldz
	fldz
	fldz
	fldz
	fldz
	fstp	st(0)
	fstp	st(0)
	fstp	st(0)
	fstp	st(0)
	fstp	st(0)
	fstp	st(0)
	fstp	st(0)
	fstp	st(0)
	xor	ecx, ecx
	xor	edi, edi
	xor	edx, edx
	xor	esi, esi
	xor	r8d, r8d
	xor	r9d, r9d
	xor	r10d, r10d
	xor	r11d, r11d
	pxor	xmm0, xmm0
	pxor	xmm1, xmm1
	pxor	xmm2, xmm2
	pxor	xmm3, xmm3
	pxor	xmm4, xmm4
	pxor	xmm5, xmm5
	pxor	xmm6, xmm6
	pxor	xmm7, xmm7
	pxor	xmm8, xmm8
	pxor	xmm9, xmm9
	pxor	xmm10, xmm10
	pxor	xmm11, xmm11
	pxor	xmm12, xmm12
	pxor	xmm13, xmm13
	pxor	xmm14, xmm14
	pxor	xmm15, xmm15
	ret
	int3
.Lfunc_end22:
	.size	islower, .Lfunc_end22-islower
	.cfi_endproc
                                        # -- End function
	.globl	isprint                         # -- Begin function isprint
	.p2align	4, 0x90
	.type	isprint,@function
isprint:                                # @isprint
	.cfi_startproc
# %bb.0:
	push	rbp
	.cfi_def_cfa_offset 16
	.cfi_offset rbp, -16
	mov	rbp, rsp
	.cfi_def_cfa_register rbp
	movabs	rax, offset __llvm_gcov_ctr.23
	mov	rcx, qword ptr [rax]
	inc	rcx
	mov	qword ptr [rax], rcx
	mov	dword ptr [rbp - 4], edi
	movabs	rax, offset .L__profc_isprint
	mov	rcx, qword ptr [rax]
	inc	rcx
	mov	qword ptr [rax], rcx
	mov	eax, dword ptr [rbp - 4]
	sub	eax, 32
	cmp	eax, 95
	setb	al
	and	al, 1
	movzx	eax, al
	pop	rbp
	.cfi_def_cfa rsp, 8
	fldz
	fldz
	fldz
	fldz
	fldz
	fldz
	fldz
	fldz
	fstp	st(0)
	fstp	st(0)
	fstp	st(0)
	fstp	st(0)
	fstp	st(0)
	fstp	st(0)
	fstp	st(0)
	fstp	st(0)
	xor	ecx, ecx
	xor	edi, edi
	xor	edx, edx
	xor	esi, esi
	xor	r8d, r8d
	xor	r9d, r9d
	xor	r10d, r10d
	xor	r11d, r11d
	pxor	xmm0, xmm0
	pxor	xmm1, xmm1
	pxor	xmm2, xmm2
	pxor	xmm3, xmm3
	pxor	xmm4, xmm4
	pxor	xmm5, xmm5
	pxor	xmm6, xmm6
	pxor	xmm7, xmm7
	pxor	xmm8, xmm8
	pxor	xmm9, xmm9
	pxor	xmm10, xmm10
	pxor	xmm11, xmm11
	pxor	xmm12, xmm12
	pxor	xmm13, xmm13
	pxor	xmm14, xmm14
	pxor	xmm15, xmm15
	ret
	int3
.Lfunc_end23:
	.size	isprint, .Lfunc_end23-isprint
	.cfi_endproc
                                        # -- End function
	.globl	isspace                         # -- Begin function isspace
	.p2align	4, 0x90
	.type	isspace,@function
isspace:                                # @isspace
	.cfi_startproc
# %bb.0:
	push	rbp
	.cfi_def_cfa_offset 16
	.cfi_offset rbp, -16
	mov	rbp, rsp
	.cfi_def_cfa_register rbp
	movabs	rax, offset __llvm_gcov_ctr.24
	mov	rcx, qword ptr [rax]
	inc	rcx
	mov	qword ptr [rax], rcx
	mov	dword ptr [rbp - 4], edi
	movabs	rax, offset .L__profc_isspace
	mov	rcx, qword ptr [rax]
	inc	rcx
	mov	qword ptr [rax], rcx
	mov	al, 1
	cmp	dword ptr [rbp - 4], 32
	mov	byte ptr [rbp - 5], al          # 1-byte Spill
	je	.LBB24_3
# %bb.1:
	movabs	rax, offset __llvm_gcov_ctr.24+8
	mov	rcx, qword ptr [rax]
	inc	rcx
	mov	qword ptr [rax], rcx
	movabs	rax, offset .L__profc_isspace+8
	mov	rcx, qword ptr [rax]
	inc	rcx
	mov	qword ptr [rax], rcx
	mov	eax, dword ptr [rbp - 4]
	sub	eax, 9
	cmp	eax, 5
	setb	al
	mov	byte ptr [rbp - 6], al          # 1-byte Spill
	test	al, 1
	mov	byte ptr [rbp - 5], al          # 1-byte Spill
	jne	.LBB24_3
# %bb.2:
	mov	al, byte ptr [rbp - 6]          # 1-byte Reload
	movabs	rcx, offset __llvm_gcov_ctr.24+16
	mov	rdx, qword ptr [rcx]
	inc	rdx
	mov	qword ptr [rcx], rdx
	movabs	rcx, offset .L__profc_isspace+16
	mov	rdx, qword ptr [rcx]
	inc	rdx
	mov	qword ptr [rcx], rdx
	mov	byte ptr [rbp - 5], al          # 1-byte Spill
.LBB24_3:
	mov	al, byte ptr [rbp - 5]          # 1-byte Reload
	and	al, 1
	movzx	eax, al
	pop	rbp
	.cfi_def_cfa rsp, 8
	fldz
	fldz
	fldz
	fldz
	fldz
	fldz
	fldz
	fldz
	fstp	st(0)
	fstp	st(0)
	fstp	st(0)
	fstp	st(0)
	fstp	st(0)
	fstp	st(0)
	fstp	st(0)
	fstp	st(0)
	xor	ecx, ecx
	xor	edi, edi
	xor	edx, edx
	xor	esi, esi
	xor	r8d, r8d
	xor	r9d, r9d
	xor	r10d, r10d
	xor	r11d, r11d
	pxor	xmm0, xmm0
	pxor	xmm1, xmm1
	pxor	xmm2, xmm2
	pxor	xmm3, xmm3
	pxor	xmm4, xmm4
	pxor	xmm5, xmm5
	pxor	xmm6, xmm6
	pxor	xmm7, xmm7
	pxor	xmm8, xmm8
	pxor	xmm9, xmm9
	pxor	xmm10, xmm10
	pxor	xmm11, xmm11
	pxor	xmm12, xmm12
	pxor	xmm13, xmm13
	pxor	xmm14, xmm14
	pxor	xmm15, xmm15
	ret
	int3
.Lfunc_end24:
	.size	isspace, .Lfunc_end24-isspace
	.cfi_endproc
                                        # -- End function
	.globl	isupper                         # -- Begin function isupper
	.p2align	4, 0x90
	.type	isupper,@function
isupper:                                # @isupper
	.cfi_startproc
# %bb.0:
	push	rbp
	.cfi_def_cfa_offset 16
	.cfi_offset rbp, -16
	mov	rbp, rsp
	.cfi_def_cfa_register rbp
	movabs	rax, offset __llvm_gcov_ctr.25
	mov	rcx, qword ptr [rax]
	inc	rcx
	mov	qword ptr [rax], rcx
	mov	dword ptr [rbp - 4], edi
	movabs	rax, offset .L__profc_isupper
	mov	rcx, qword ptr [rax]
	inc	rcx
	mov	qword ptr [rax], rcx
	mov	eax, dword ptr [rbp - 4]
	sub	eax, 65
	cmp	eax, 26
	setb	al
	and	al, 1
	movzx	eax, al
	pop	rbp
	.cfi_def_cfa rsp, 8
	fldz
	fldz
	fldz
	fldz
	fldz
	fldz
	fldz
	fldz
	fstp	st(0)
	fstp	st(0)
	fstp	st(0)
	fstp	st(0)
	fstp	st(0)
	fstp	st(0)
	fstp	st(0)
	fstp	st(0)
	xor	ecx, ecx
	xor	edi, edi
	xor	edx, edx
	xor	esi, esi
	xor	r8d, r8d
	xor	r9d, r9d
	xor	r10d, r10d
	xor	r11d, r11d
	pxor	xmm0, xmm0
	pxor	xmm1, xmm1
	pxor	xmm2, xmm2
	pxor	xmm3, xmm3
	pxor	xmm4, xmm4
	pxor	xmm5, xmm5
	pxor	xmm6, xmm6
	pxor	xmm7, xmm7
	pxor	xmm8, xmm8
	pxor	xmm9, xmm9
	pxor	xmm10, xmm10
	pxor	xmm11, xmm11
	pxor	xmm12, xmm12
	pxor	xmm13, xmm13
	pxor	xmm14, xmm14
	pxor	xmm15, xmm15
	ret
	int3
.Lfunc_end25:
	.size	isupper, .Lfunc_end25-isupper
	.cfi_endproc
                                        # -- End function
	.globl	iswcntrl                        # -- Begin function iswcntrl
	.p2align	4, 0x90
	.type	iswcntrl,@function
iswcntrl:                               # @iswcntrl
	.cfi_startproc
# %bb.0:
	push	rbp
	.cfi_def_cfa_offset 16
	.cfi_offset rbp, -16
	mov	rbp, rsp
	.cfi_def_cfa_register rbp
	movabs	rax, offset __llvm_gcov_ctr.26
	mov	rcx, qword ptr [rax]
	inc	rcx
	mov	qword ptr [rax], rcx
	mov	dword ptr [rbp - 4], edi
	movabs	rax, offset .L__profc_iswcntrl
	mov	rcx, qword ptr [rax]
	inc	rcx
	mov	qword ptr [rax], rcx
	mov	al, 1
	cmp	dword ptr [rbp - 4], 32
	mov	byte ptr [rbp - 5], al          # 1-byte Spill
	jb	.LBB26_7
# %bb.1:
	movabs	rax, offset __llvm_gcov_ctr.26+8
	mov	rcx, qword ptr [rax]
	inc	rcx
	mov	qword ptr [rax], rcx
	movabs	rax, offset .L__profc_iswcntrl+40
	mov	rcx, qword ptr [rax]
	inc	rcx
	mov	qword ptr [rax], rcx
	mov	ecx, dword ptr [rbp - 4]
	sub	ecx, 127
	mov	al, 1
	cmp	ecx, 33
	mov	byte ptr [rbp - 5], al          # 1-byte Spill
	jb	.LBB26_7
# %bb.2:
	movabs	rax, offset __llvm_gcov_ctr.26+16
	mov	rcx, qword ptr [rax]
	inc	rcx
	mov	qword ptr [rax], rcx
	movabs	rax, offset .L__profc_iswcntrl+48
	mov	rcx, qword ptr [rax]
	inc	rcx
	mov	qword ptr [rax], rcx
# %bb.3:
	movabs	rax, offset .L__profc_iswcntrl+24
	mov	rcx, qword ptr [rax]
	inc	rcx
	mov	qword ptr [rax], rcx
	mov	ecx, dword ptr [rbp - 4]
	sub	ecx, 8232
	mov	al, 1
	cmp	ecx, 2
	mov	byte ptr [rbp - 5], al          # 1-byte Spill
	jb	.LBB26_7
# %bb.4:
	movabs	rax, offset __llvm_gcov_ctr.26+24
	mov	rcx, qword ptr [rax]
	inc	rcx
	mov	qword ptr [rax], rcx
	movabs	rax, offset .L__profc_iswcntrl+32
	mov	rcx, qword ptr [rax]
	inc	rcx
	mov	qword ptr [rax], rcx
# %bb.5:
	movabs	rax, offset .L__profc_iswcntrl+8
	mov	rcx, qword ptr [rax]
	inc	rcx
	mov	qword ptr [rax], rcx
	mov	eax, dword ptr [rbp - 4]
	sub	eax, 65529
	cmp	eax, 3
	setb	al
	mov	byte ptr [rbp - 6], al          # 1-byte Spill
	test	al, 1
	mov	byte ptr [rbp - 5], al          # 1-byte Spill
	jne	.LBB26_7
# %bb.6:
	mov	al, byte ptr [rbp - 6]          # 1-byte Reload
	movabs	rcx, offset __llvm_gcov_ctr.26+32
	mov	rdx, qword ptr [rcx]
	inc	rdx
	mov	qword ptr [rcx], rdx
	movabs	rcx, offset .L__profc_iswcntrl+16
	mov	rdx, qword ptr [rcx]
	inc	rdx
	mov	qword ptr [rcx], rdx
	mov	byte ptr [rbp - 5], al          # 1-byte Spill
.LBB26_7:
	mov	al, byte ptr [rbp - 5]          # 1-byte Reload
	and	al, 1
	movzx	eax, al
	pop	rbp
	.cfi_def_cfa rsp, 8
	fldz
	fldz
	fldz
	fldz
	fldz
	fldz
	fldz
	fldz
	fstp	st(0)
	fstp	st(0)
	fstp	st(0)
	fstp	st(0)
	fstp	st(0)
	fstp	st(0)
	fstp	st(0)
	fstp	st(0)
	xor	ecx, ecx
	xor	edi, edi
	xor	edx, edx
	xor	esi, esi
	xor	r8d, r8d
	xor	r9d, r9d
	xor	r10d, r10d
	xor	r11d, r11d
	pxor	xmm0, xmm0
	pxor	xmm1, xmm1
	pxor	xmm2, xmm2
	pxor	xmm3, xmm3
	pxor	xmm4, xmm4
	pxor	xmm5, xmm5
	pxor	xmm6, xmm6
	pxor	xmm7, xmm7
	pxor	xmm8, xmm8
	pxor	xmm9, xmm9
	pxor	xmm10, xmm10
	pxor	xmm11, xmm11
	pxor	xmm12, xmm12
	pxor	xmm13, xmm13
	pxor	xmm14, xmm14
	pxor	xmm15, xmm15
	ret
	int3
.Lfunc_end26:
	.size	iswcntrl, .Lfunc_end26-iswcntrl
	.cfi_endproc
                                        # -- End function
	.globl	iswdigit                        # -- Begin function iswdigit
	.p2align	4, 0x90
	.type	iswdigit,@function
iswdigit:                               # @iswdigit
	.cfi_startproc
# %bb.0:
	push	rbp
	.cfi_def_cfa_offset 16
	.cfi_offset rbp, -16
	mov	rbp, rsp
	.cfi_def_cfa_register rbp
	movabs	rax, offset __llvm_gcov_ctr.27
	mov	rcx, qword ptr [rax]
	inc	rcx
	mov	qword ptr [rax], rcx
	mov	dword ptr [rbp - 4], edi
	movabs	rax, offset .L__profc_iswdigit
	mov	rcx, qword ptr [rax]
	inc	rcx
	mov	qword ptr [rax], rcx
	mov	eax, dword ptr [rbp - 4]
	sub	eax, 48
	cmp	eax, 10
	setb	al
	and	al, 1
	movzx	eax, al
	pop	rbp
	.cfi_def_cfa rsp, 8
	fldz
	fldz
	fldz
	fldz
	fldz
	fldz
	fldz
	fldz
	fstp	st(0)
	fstp	st(0)
	fstp	st(0)
	fstp	st(0)
	fstp	st(0)
	fstp	st(0)
	fstp	st(0)
	fstp	st(0)
	xor	ecx, ecx
	xor	edi, edi
	xor	edx, edx
	xor	esi, esi
	xor	r8d, r8d
	xor	r9d, r9d
	xor	r10d, r10d
	xor	r11d, r11d
	pxor	xmm0, xmm0
	pxor	xmm1, xmm1
	pxor	xmm2, xmm2
	pxor	xmm3, xmm3
	pxor	xmm4, xmm4
	pxor	xmm5, xmm5
	pxor	xmm6, xmm6
	pxor	xmm7, xmm7
	pxor	xmm8, xmm8
	pxor	xmm9, xmm9
	pxor	xmm10, xmm10
	pxor	xmm11, xmm11
	pxor	xmm12, xmm12
	pxor	xmm13, xmm13
	pxor	xmm14, xmm14
	pxor	xmm15, xmm15
	ret
	int3
.Lfunc_end27:
	.size	iswdigit, .Lfunc_end27-iswdigit
	.cfi_endproc
                                        # -- End function
	.globl	iswprint                        # -- Begin function iswprint
	.p2align	4, 0x90
	.type	iswprint,@function
iswprint:                               # @iswprint
	.cfi_startproc
# %bb.0:
	push	rbp
	.cfi_def_cfa_offset 16
	.cfi_offset rbp, -16
	mov	rbp, rsp
	.cfi_def_cfa_register rbp
	mov	dword ptr [rbp - 8], edi
	movabs	rax, offset .L__profc_iswprint
	mov	rcx, qword ptr [rax]
	inc	rcx
	mov	qword ptr [rax], rcx
	cmp	dword ptr [rbp - 8], 255
	jae	.LBB28_2
# %bb.1:
	movabs	rax, offset __llvm_gcov_ctr.28
	mov	rcx, qword ptr [rax]
	inc	rcx
	mov	qword ptr [rax], rcx
	movabs	rax, offset .L__profc_iswprint+8
	mov	rcx, qword ptr [rax]
	inc	rcx
	mov	qword ptr [rax], rcx
	mov	eax, dword ptr [rbp - 8]
	add	eax, 1
	and	eax, 127
	cmp	eax, 33
	setge	al
	and	al, 1
	movzx	eax, al
	mov	dword ptr [rbp - 4], eax
	jmp	.LBB28_13
.LBB28_2:
	cmp	dword ptr [rbp - 8], 8232
	jb	.LBB28_7
# %bb.3:
	movabs	rax, offset __llvm_gcov_ctr.28+8
	mov	rcx, qword ptr [rax]
	inc	rcx
	mov	qword ptr [rax], rcx
	movabs	rax, offset .L__profc_iswprint+40
	mov	rcx, qword ptr [rax]
	inc	rcx
	mov	qword ptr [rax], rcx
	mov	eax, dword ptr [rbp - 8]
	sub	eax, 8234
	cmp	eax, 47062
	jb	.LBB28_7
# %bb.4:
	movabs	rax, offset __llvm_gcov_ctr.28+16
	mov	rcx, qword ptr [rax]
	inc	rcx
	mov	qword ptr [rax], rcx
	movabs	rax, offset .L__profc_iswprint+48
	mov	rcx, qword ptr [rax]
	inc	rcx
	mov	qword ptr [rax], rcx
# %bb.5:
	movabs	rax, offset .L__profc_iswprint+24
	mov	rcx, qword ptr [rax]
	inc	rcx
	mov	qword ptr [rax], rcx
	mov	eax, dword ptr [rbp - 8]
	sub	eax, 57344
	cmp	eax, 8185
	jb	.LBB28_7
# %bb.6:
	movabs	rax, offset .L__profc_iswprint+32
	mov	rcx, qword ptr [rax]
	inc	rcx
	mov	qword ptr [rax], rcx
	jmp	.LBB28_8
.LBB28_7:
	movabs	rax, offset __llvm_gcov_ctr.28+24
	mov	rcx, qword ptr [rax]
	inc	rcx
	mov	qword ptr [rax], rcx
	movabs	rax, offset .L__profc_iswprint+16
	mov	rcx, qword ptr [rax]
	inc	rcx
	mov	qword ptr [rax], rcx
	mov	dword ptr [rbp - 4], 1
	jmp	.LBB28_13
.LBB28_8:
	mov	eax, dword ptr [rbp - 8]
	sub	eax, 65532
	cmp	eax, 1048579
	ja	.LBB28_11
# %bb.9:
	movabs	rax, offset __llvm_gcov_ctr.28+32
	mov	rcx, qword ptr [rax]
	inc	rcx
	mov	qword ptr [rax], rcx
	movabs	rax, offset .L__profc_iswprint+64
	mov	rcx, qword ptr [rax]
	inc	rcx
	mov	qword ptr [rax], rcx
	mov	eax, dword ptr [rbp - 8]
	and	eax, 65534
	cmp	eax, 65534
	je	.LBB28_11
# %bb.10:
	movabs	rax, offset .L__profc_iswprint+72
	mov	rcx, qword ptr [rax]
	inc	rcx
	mov	qword ptr [rax], rcx
	jmp	.LBB28_12
.LBB28_11:
	movabs	rax, offset __llvm_gcov_ctr.28+40
	mov	rcx, qword ptr [rax]
	inc	rcx
	mov	qword ptr [rax], rcx
	movabs	rax, offset .L__profc_iswprint+56
	mov	rcx, qword ptr [rax]
	inc	rcx
	mov	qword ptr [rax], rcx
	mov	dword ptr [rbp - 4], 0
	jmp	.LBB28_13
.LBB28_12:
	movabs	rax, offset __llvm_gcov_ctr.28+48
	mov	rcx, qword ptr [rax]
	inc	rcx
	mov	qword ptr [rax], rcx
	mov	dword ptr [rbp - 4], 1
.LBB28_13:
	mov	eax, dword ptr [rbp - 4]
	pop	rbp
	.cfi_def_cfa rsp, 8
	fldz
	fldz
	fldz
	fldz
	fldz
	fldz
	fldz
	fldz
	fstp	st(0)
	fstp	st(0)
	fstp	st(0)
	fstp	st(0)
	fstp	st(0)
	fstp	st(0)
	fstp	st(0)
	fstp	st(0)
	xor	ecx, ecx
	xor	edi, edi
	xor	edx, edx
	xor	esi, esi
	xor	r8d, r8d
	xor	r9d, r9d
	xor	r10d, r10d
	xor	r11d, r11d
	pxor	xmm0, xmm0
	pxor	xmm1, xmm1
	pxor	xmm2, xmm2
	pxor	xmm3, xmm3
	pxor	xmm4, xmm4
	pxor	xmm5, xmm5
	pxor	xmm6, xmm6
	pxor	xmm7, xmm7
	pxor	xmm8, xmm8
	pxor	xmm9, xmm9
	pxor	xmm10, xmm10
	pxor	xmm11, xmm11
	pxor	xmm12, xmm12
	pxor	xmm13, xmm13
	pxor	xmm14, xmm14
	pxor	xmm15, xmm15
	ret
	int3
.Lfunc_end28:
	.size	iswprint, .Lfunc_end28-iswprint
	.cfi_endproc
                                        # -- End function
	.globl	iswxdigit                       # -- Begin function iswxdigit
	.p2align	4, 0x90
	.type	iswxdigit,@function
iswxdigit:                              # @iswxdigit
	.cfi_startproc
# %bb.0:
	push	rbp
	.cfi_def_cfa_offset 16
	.cfi_offset rbp, -16
	mov	rbp, rsp
	.cfi_def_cfa_register rbp
	movabs	rax, offset __llvm_gcov_ctr.29
	mov	rcx, qword ptr [rax]
	inc	rcx
	mov	qword ptr [rax], rcx
	mov	dword ptr [rbp - 4], edi
	movabs	rax, offset .L__profc_iswxdigit
	mov	rcx, qword ptr [rax]
	inc	rcx
	mov	qword ptr [rax], rcx
	mov	ecx, dword ptr [rbp - 4]
	sub	ecx, 48
	mov	al, 1
	cmp	ecx, 10
	mov	byte ptr [rbp - 5], al          # 1-byte Spill
	jb	.LBB29_3
# %bb.1:
	movabs	rax, offset __llvm_gcov_ctr.29+8
	mov	rcx, qword ptr [rax]
	inc	rcx
	mov	qword ptr [rax], rcx
	movabs	rax, offset .L__profc_iswxdigit+8
	mov	rcx, qword ptr [rax]
	inc	rcx
	mov	qword ptr [rax], rcx
	mov	eax, dword ptr [rbp - 4]
	or	eax, 32
	sub	eax, 97
	cmp	eax, 6
	setb	al
	mov	byte ptr [rbp - 6], al          # 1-byte Spill
	test	al, 1
	mov	byte ptr [rbp - 5], al          # 1-byte Spill
	jne	.LBB29_3
# %bb.2:
	mov	al, byte ptr [rbp - 6]          # 1-byte Reload
	movabs	rcx, offset __llvm_gcov_ctr.29+16
	mov	rdx, qword ptr [rcx]
	inc	rdx
	mov	qword ptr [rcx], rdx
	movabs	rcx, offset .L__profc_iswxdigit+16
	mov	rdx, qword ptr [rcx]
	inc	rdx
	mov	qword ptr [rcx], rdx
	mov	byte ptr [rbp - 5], al          # 1-byte Spill
.LBB29_3:
	mov	al, byte ptr [rbp - 5]          # 1-byte Reload
	and	al, 1
	movzx	eax, al
	pop	rbp
	.cfi_def_cfa rsp, 8
	fldz
	fldz
	fldz
	fldz
	fldz
	fldz
	fldz
	fldz
	fstp	st(0)
	fstp	st(0)
	fstp	st(0)
	fstp	st(0)
	fstp	st(0)
	fstp	st(0)
	fstp	st(0)
	fstp	st(0)
	xor	ecx, ecx
	xor	edi, edi
	xor	edx, edx
	xor	esi, esi
	xor	r8d, r8d
	xor	r9d, r9d
	xor	r10d, r10d
	xor	r11d, r11d
	pxor	xmm0, xmm0
	pxor	xmm1, xmm1
	pxor	xmm2, xmm2
	pxor	xmm3, xmm3
	pxor	xmm4, xmm4
	pxor	xmm5, xmm5
	pxor	xmm6, xmm6
	pxor	xmm7, xmm7
	pxor	xmm8, xmm8
	pxor	xmm9, xmm9
	pxor	xmm10, xmm10
	pxor	xmm11, xmm11
	pxor	xmm12, xmm12
	pxor	xmm13, xmm13
	pxor	xmm14, xmm14
	pxor	xmm15, xmm15
	ret
	int3
.Lfunc_end29:
	.size	iswxdigit, .Lfunc_end29-iswxdigit
	.cfi_endproc
                                        # -- End function
	.globl	toascii                         # -- Begin function toascii
	.p2align	4, 0x90
	.type	toascii,@function
toascii:                                # @toascii
	.cfi_startproc
# %bb.0:
	push	rbp
	.cfi_def_cfa_offset 16
	.cfi_offset rbp, -16
	mov	rbp, rsp
	.cfi_def_cfa_register rbp
	movabs	rax, offset __llvm_gcov_ctr.30
	mov	rcx, qword ptr [rax]
	inc	rcx
	mov	qword ptr [rax], rcx
	mov	dword ptr [rbp - 4], edi
	movabs	rax, offset .L__profc_toascii
	mov	rcx, qword ptr [rax]
	inc	rcx
	mov	qword ptr [rax], rcx
	mov	eax, dword ptr [rbp - 4]
	and	eax, 127
	pop	rbp
	.cfi_def_cfa rsp, 8
	fldz
	fldz
	fldz
	fldz
	fldz
	fldz
	fldz
	fldz
	fstp	st(0)
	fstp	st(0)
	fstp	st(0)
	fstp	st(0)
	fstp	st(0)
	fstp	st(0)
	fstp	st(0)
	fstp	st(0)
	xor	ecx, ecx
	xor	edi, edi
	xor	edx, edx
	xor	esi, esi
	xor	r8d, r8d
	xor	r9d, r9d
	xor	r10d, r10d
	xor	r11d, r11d
	pxor	xmm0, xmm0
	pxor	xmm1, xmm1
	pxor	xmm2, xmm2
	pxor	xmm3, xmm3
	pxor	xmm4, xmm4
	pxor	xmm5, xmm5
	pxor	xmm6, xmm6
	pxor	xmm7, xmm7
	pxor	xmm8, xmm8
	pxor	xmm9, xmm9
	pxor	xmm10, xmm10
	pxor	xmm11, xmm11
	pxor	xmm12, xmm12
	pxor	xmm13, xmm13
	pxor	xmm14, xmm14
	pxor	xmm15, xmm15
	ret
	int3
.Lfunc_end30:
	.size	toascii, .Lfunc_end30-toascii
	.cfi_endproc
                                        # -- End function
	.globl	fdim                            # -- Begin function fdim
	.p2align	4, 0x90
	.type	fdim,@function
fdim:                                   # @fdim
	.cfi_startproc
# %bb.0:
	push	rbp
	.cfi_def_cfa_offset 16
	.cfi_offset rbp, -16
	mov	rbp, rsp
	.cfi_def_cfa_register rbp
	movsd	qword ptr [rbp - 16], xmm0
	movsd	qword ptr [rbp - 24], xmm1
	movabs	rax, offset .L__profc_fdim
	mov	rcx, qword ptr [rax]
	inc	rcx
	mov	qword ptr [rax], rcx
	movsd	xmm0, qword ptr [rbp - 16]      # xmm0 = mem[0],zero
	ucomisd	xmm0, xmm0
	setp	al
	test	al, 1
	jne	.LBB31_1
	jmp	.LBB31_2
.LBB31_1:
	movabs	rax, offset __llvm_gcov_ctr.31
	mov	rcx, qword ptr [rax]
	inc	rcx
	mov	qword ptr [rax], rcx
	movabs	rax, offset .L__profc_fdim+8
	mov	rcx, qword ptr [rax]
	inc	rcx
	mov	qword ptr [rax], rcx
	movsd	xmm0, qword ptr [rbp - 16]      # xmm0 = mem[0],zero
	movsd	qword ptr [rbp - 8], xmm0
	jmp	.LBB31_8
.LBB31_2:
	movsd	xmm0, qword ptr [rbp - 24]      # xmm0 = mem[0],zero
	ucomisd	xmm0, xmm0
	setp	al
	test	al, 1
	jne	.LBB31_3
	jmp	.LBB31_4
.LBB31_3:
	movabs	rax, offset __llvm_gcov_ctr.31+8
	mov	rcx, qword ptr [rax]
	inc	rcx
	mov	qword ptr [rax], rcx
	movabs	rax, offset .L__profc_fdim+16
	mov	rcx, qword ptr [rax]
	inc	rcx
	mov	qword ptr [rax], rcx
	movsd	xmm0, qword ptr [rbp - 24]      # xmm0 = mem[0],zero
	movsd	qword ptr [rbp - 8], xmm0
	jmp	.LBB31_8
.LBB31_4:
	movsd	xmm0, qword ptr [rbp - 16]      # xmm0 = mem[0],zero
	ucomisd	xmm0, qword ptr [rbp - 24]
	jbe	.LBB31_6
# %bb.5:
	movabs	rax, offset __llvm_gcov_ctr.31+16
	mov	rcx, qword ptr [rax]
	inc	rcx
	mov	qword ptr [rax], rcx
	movabs	rax, offset .L__profc_fdim+24
	mov	rcx, qword ptr [rax]
	inc	rcx
	mov	qword ptr [rax], rcx
	movsd	xmm0, qword ptr [rbp - 16]      # xmm0 = mem[0],zero
	subsd	xmm0, qword ptr [rbp - 24]
	movsd	qword ptr [rbp - 32], xmm0      # 8-byte Spill
	jmp	.LBB31_7
.LBB31_6:
	movabs	rax, offset __llvm_gcov_ctr.31+24
	mov	rcx, qword ptr [rax]
	inc	rcx
	mov	qword ptr [rax], rcx
	xorps	xmm0, xmm0
	movsd	qword ptr [rbp - 32], xmm0      # 8-byte Spill
.LBB31_7:
	movsd	xmm0, qword ptr [rbp - 32]      # 8-byte Reload
                                        # xmm0 = mem[0],zero
	movsd	qword ptr [rbp - 8], xmm0
.LBB31_8:
	movsd	xmm0, qword ptr [rbp - 8]       # xmm0 = mem[0],zero
	pop	rbp
	.cfi_def_cfa rsp, 8
	fldz
	fldz
	fldz
	fldz
	fldz
	fldz
	fldz
	fldz
	fstp	st(0)
	fstp	st(0)
	fstp	st(0)
	fstp	st(0)
	fstp	st(0)
	fstp	st(0)
	fstp	st(0)
	fstp	st(0)
	xor	eax, eax
	xor	ecx, ecx
	xor	edi, edi
	xor	edx, edx
	xor	esi, esi
	xor	r8d, r8d
	xor	r9d, r9d
	xor	r10d, r10d
	xor	r11d, r11d
	pxor	xmm1, xmm1
	pxor	xmm2, xmm2
	pxor	xmm3, xmm3
	pxor	xmm4, xmm4
	pxor	xmm5, xmm5
	pxor	xmm6, xmm6
	pxor	xmm7, xmm7
	pxor	xmm8, xmm8
	pxor	xmm9, xmm9
	pxor	xmm10, xmm10
	pxor	xmm11, xmm11
	pxor	xmm12, xmm12
	pxor	xmm13, xmm13
	pxor	xmm14, xmm14
	pxor	xmm15, xmm15
	ret
	int3
.Lfunc_end31:
	.size	fdim, .Lfunc_end31-fdim
	.cfi_endproc
                                        # -- End function
	.globl	fdimf                           # -- Begin function fdimf
	.p2align	4, 0x90
	.type	fdimf,@function
fdimf:                                  # @fdimf
	.cfi_startproc
# %bb.0:
	push	rbp
	.cfi_def_cfa_offset 16
	.cfi_offset rbp, -16
	mov	rbp, rsp
	.cfi_def_cfa_register rbp
	movss	dword ptr [rbp - 8], xmm0
	movss	dword ptr [rbp - 12], xmm1
	movabs	rax, offset .L__profc_fdimf
	mov	rcx, qword ptr [rax]
	inc	rcx
	mov	qword ptr [rax], rcx
	movss	xmm0, dword ptr [rbp - 8]       # xmm0 = mem[0],zero,zero,zero
	ucomiss	xmm0, xmm0
	setp	al
	test	al, 1
	jne	.LBB32_1
	jmp	.LBB32_2
.LBB32_1:
	movabs	rax, offset __llvm_gcov_ctr.32
	mov	rcx, qword ptr [rax]
	inc	rcx
	mov	qword ptr [rax], rcx
	movabs	rax, offset .L__profc_fdimf+8
	mov	rcx, qword ptr [rax]
	inc	rcx
	mov	qword ptr [rax], rcx
	movss	xmm0, dword ptr [rbp - 8]       # xmm0 = mem[0],zero,zero,zero
	movss	dword ptr [rbp - 4], xmm0
	jmp	.LBB32_8
.LBB32_2:
	movss	xmm0, dword ptr [rbp - 12]      # xmm0 = mem[0],zero,zero,zero
	ucomiss	xmm0, xmm0
	setp	al
	test	al, 1
	jne	.LBB32_3
	jmp	.LBB32_4
.LBB32_3:
	movabs	rax, offset __llvm_gcov_ctr.32+8
	mov	rcx, qword ptr [rax]
	inc	rcx
	mov	qword ptr [rax], rcx
	movabs	rax, offset .L__profc_fdimf+16
	mov	rcx, qword ptr [rax]
	inc	rcx
	mov	qword ptr [rax], rcx
	movss	xmm0, dword ptr [rbp - 12]      # xmm0 = mem[0],zero,zero,zero
	movss	dword ptr [rbp - 4], xmm0
	jmp	.LBB32_8
.LBB32_4:
	movss	xmm0, dword ptr [rbp - 8]       # xmm0 = mem[0],zero,zero,zero
	ucomiss	xmm0, dword ptr [rbp - 12]
	jbe	.LBB32_6
# %bb.5:
	movabs	rax, offset __llvm_gcov_ctr.32+16
	mov	rcx, qword ptr [rax]
	inc	rcx
	mov	qword ptr [rax], rcx
	movabs	rax, offset .L__profc_fdimf+24
	mov	rcx, qword ptr [rax]
	inc	rcx
	mov	qword ptr [rax], rcx
	movss	xmm0, dword ptr [rbp - 8]       # xmm0 = mem[0],zero,zero,zero
	subss	xmm0, dword ptr [rbp - 12]
	movss	dword ptr [rbp - 16], xmm0      # 4-byte Spill
	jmp	.LBB32_7
.LBB32_6:
	movabs	rax, offset __llvm_gcov_ctr.32+24
	mov	rcx, qword ptr [rax]
	inc	rcx
	mov	qword ptr [rax], rcx
	xorps	xmm0, xmm0
	movss	dword ptr [rbp - 16], xmm0      # 4-byte Spill
.LBB32_7:
	movss	xmm0, dword ptr [rbp - 16]      # 4-byte Reload
                                        # xmm0 = mem[0],zero,zero,zero
	movss	dword ptr [rbp - 4], xmm0
.LBB32_8:
	movss	xmm0, dword ptr [rbp - 4]       # xmm0 = mem[0],zero,zero,zero
	pop	rbp
	.cfi_def_cfa rsp, 8
	fldz
	fldz
	fldz
	fldz
	fldz
	fldz
	fldz
	fldz
	fstp	st(0)
	fstp	st(0)
	fstp	st(0)
	fstp	st(0)
	fstp	st(0)
	fstp	st(0)
	fstp	st(0)
	fstp	st(0)
	xor	eax, eax
	xor	ecx, ecx
	xor	edi, edi
	xor	edx, edx
	xor	esi, esi
	xor	r8d, r8d
	xor	r9d, r9d
	xor	r10d, r10d
	xor	r11d, r11d
	pxor	xmm1, xmm1
	pxor	xmm2, xmm2
	pxor	xmm3, xmm3
	pxor	xmm4, xmm4
	pxor	xmm5, xmm5
	pxor	xmm6, xmm6
	pxor	xmm7, xmm7
	pxor	xmm8, xmm8
	pxor	xmm9, xmm9
	pxor	xmm10, xmm10
	pxor	xmm11, xmm11
	pxor	xmm12, xmm12
	pxor	xmm13, xmm13
	pxor	xmm14, xmm14
	pxor	xmm15, xmm15
	ret
	int3
.Lfunc_end32:
	.size	fdimf, .Lfunc_end32-fdimf
	.cfi_endproc
                                        # -- End function
	.globl	fmax                            # -- Begin function fmax
	.p2align	4, 0x90
	.type	fmax,@function
fmax:                                   # @fmax
	.cfi_startproc
# %bb.0:
	push	rbp
	.cfi_def_cfa_offset 16
	.cfi_offset rbp, -16
	mov	rbp, rsp
	.cfi_def_cfa_register rbp
	movsd	qword ptr [rbp - 16], xmm0
	movsd	qword ptr [rbp - 24], xmm1
	movabs	rax, offset .L__profc_fmax
	mov	rcx, qword ptr [rax]
	inc	rcx
	mov	qword ptr [rax], rcx
	movsd	xmm0, qword ptr [rbp - 16]      # xmm0 = mem[0],zero
	ucomisd	xmm0, xmm0
	setp	al
	test	al, 1
	jne	.LBB33_1
	jmp	.LBB33_2
.LBB33_1:
	movabs	rax, offset __llvm_gcov_ctr.33
	mov	rcx, qword ptr [rax]
	inc	rcx
	mov	qword ptr [rax], rcx
	movabs	rax, offset .L__profc_fmax+8
	mov	rcx, qword ptr [rax]
	inc	rcx
	mov	qword ptr [rax], rcx
	movsd	xmm0, qword ptr [rbp - 24]      # xmm0 = mem[0],zero
	movsd	qword ptr [rbp - 8], xmm0
	jmp	.LBB33_13
.LBB33_2:
	movsd	xmm0, qword ptr [rbp - 24]      # xmm0 = mem[0],zero
	ucomisd	xmm0, xmm0
	setp	al
	test	al, 1
	jne	.LBB33_3
	jmp	.LBB33_4
.LBB33_3:
	movabs	rax, offset __llvm_gcov_ctr.33+8
	mov	rcx, qword ptr [rax]
	inc	rcx
	mov	qword ptr [rax], rcx
	movabs	rax, offset .L__profc_fmax+16
	mov	rcx, qword ptr [rax]
	inc	rcx
	mov	qword ptr [rax], rcx
	movsd	xmm0, qword ptr [rbp - 16]      # xmm0 = mem[0],zero
	movsd	qword ptr [rbp - 8], xmm0
	jmp	.LBB33_13
.LBB33_4:
	movsd	xmm0, qword ptr [rbp - 16]      # xmm0 = mem[0],zero
	movq	rax, xmm0
	cmp	rax, 0
	setl	al
	and	al, 1
	movzx	eax, al
	movsd	xmm0, qword ptr [rbp - 24]      # xmm0 = mem[0],zero
	movq	rcx, xmm0
	cmp	rcx, 0
	setl	cl
	and	cl, 1
	movzx	ecx, cl
	cmp	eax, ecx
	je	.LBB33_9
# %bb.5:
	movabs	rax, offset .L__profc_fmax+24
	mov	rcx, qword ptr [rax]
	inc	rcx
	mov	qword ptr [rax], rcx
	movsd	xmm0, qword ptr [rbp - 16]      # xmm0 = mem[0],zero
	movq	rax, xmm0
	cmp	rax, 0
	jge	.LBB33_7
# %bb.6:
	movabs	rax, offset __llvm_gcov_ctr.33+16
	mov	rcx, qword ptr [rax]
	inc	rcx
	mov	qword ptr [rax], rcx
	movabs	rax, offset .L__profc_fmax+32
	mov	rcx, qword ptr [rax]
	inc	rcx
	mov	qword ptr [rax], rcx
	movsd	xmm0, qword ptr [rbp - 24]      # xmm0 = mem[0],zero
	movsd	qword ptr [rbp - 32], xmm0      # 8-byte Spill
	jmp	.LBB33_8
.LBB33_7:
	movabs	rax, offset __llvm_gcov_ctr.33+24
	mov	rcx, qword ptr [rax]
	inc	rcx
	mov	qword ptr [rax], rcx
	movsd	xmm0, qword ptr [rbp - 16]      # xmm0 = mem[0],zero
	movsd	qword ptr [rbp - 32], xmm0      # 8-byte Spill
.LBB33_8:
	movsd	xmm0, qword ptr [rbp - 32]      # 8-byte Reload
                                        # xmm0 = mem[0],zero
	movsd	qword ptr [rbp - 8], xmm0
	jmp	.LBB33_13
.LBB33_9:
	movsd	xmm1, qword ptr [rbp - 16]      # xmm1 = mem[0],zero
	movsd	xmm0, qword ptr [rbp - 24]      # xmm0 = mem[0],zero
	ucomisd	xmm0, xmm1
	jbe	.LBB33_11
# %bb.10:
	movabs	rax, offset __llvm_gcov_ctr.33+32
	mov	rcx, qword ptr [rax]
	inc	rcx
	mov	qword ptr [rax], rcx
	movabs	rax, offset .L__profc_fmax+40
	mov	rcx, qword ptr [rax]
	inc	rcx
	mov	qword ptr [rax], rcx
	movsd	xmm0, qword ptr [rbp - 24]      # xmm0 = mem[0],zero
	movsd	qword ptr [rbp - 40], xmm0      # 8-byte Spill
	jmp	.LBB33_12
.LBB33_11:
	movabs	rax, offset __llvm_gcov_ctr.33+40
	mov	rcx, qword ptr [rax]
	inc	rcx
	mov	qword ptr [rax], rcx
	movsd	xmm0, qword ptr [rbp - 16]      # xmm0 = mem[0],zero
	movsd	qword ptr [rbp - 40], xmm0      # 8-byte Spill
.LBB33_12:
	movsd	xmm0, qword ptr [rbp - 40]      # 8-byte Reload
                                        # xmm0 = mem[0],zero
	movsd	qword ptr [rbp - 8], xmm0
.LBB33_13:
	movsd	xmm0, qword ptr [rbp - 8]       # xmm0 = mem[0],zero
	pop	rbp
	.cfi_def_cfa rsp, 8
	fldz
	fldz
	fldz
	fldz
	fldz
	fldz
	fldz
	fldz
	fstp	st(0)
	fstp	st(0)
	fstp	st(0)
	fstp	st(0)
	fstp	st(0)
	fstp	st(0)
	fstp	st(0)
	fstp	st(0)
	xor	eax, eax
	xor	ecx, ecx
	xor	edi, edi
	xor	edx, edx
	xor	esi, esi
	xor	r8d, r8d
	xor	r9d, r9d
	xor	r10d, r10d
	xor	r11d, r11d
	pxor	xmm1, xmm1
	pxor	xmm2, xmm2
	pxor	xmm3, xmm3
	pxor	xmm4, xmm4
	pxor	xmm5, xmm5
	pxor	xmm6, xmm6
	pxor	xmm7, xmm7
	pxor	xmm8, xmm8
	pxor	xmm9, xmm9
	pxor	xmm10, xmm10
	pxor	xmm11, xmm11
	pxor	xmm12, xmm12
	pxor	xmm13, xmm13
	pxor	xmm14, xmm14
	pxor	xmm15, xmm15
	ret
	int3
.Lfunc_end33:
	.size	fmax, .Lfunc_end33-fmax
	.cfi_endproc
                                        # -- End function
	.globl	fmaxf                           # -- Begin function fmaxf
	.p2align	4, 0x90
	.type	fmaxf,@function
fmaxf:                                  # @fmaxf
	.cfi_startproc
# %bb.0:
	push	rbp
	.cfi_def_cfa_offset 16
	.cfi_offset rbp, -16
	mov	rbp, rsp
	.cfi_def_cfa_register rbp
	movss	dword ptr [rbp - 8], xmm0
	movss	dword ptr [rbp - 12], xmm1
	movabs	rax, offset .L__profc_fmaxf
	mov	rcx, qword ptr [rax]
	inc	rcx
	mov	qword ptr [rax], rcx
	movss	xmm0, dword ptr [rbp - 8]       # xmm0 = mem[0],zero,zero,zero
	ucomiss	xmm0, xmm0
	setp	al
	test	al, 1
	jne	.LBB34_1
	jmp	.LBB34_2
.LBB34_1:
	movabs	rax, offset __llvm_gcov_ctr.34
	mov	rcx, qword ptr [rax]
	inc	rcx
	mov	qword ptr [rax], rcx
	movabs	rax, offset .L__profc_fmaxf+8
	mov	rcx, qword ptr [rax]
	inc	rcx
	mov	qword ptr [rax], rcx
	movss	xmm0, dword ptr [rbp - 12]      # xmm0 = mem[0],zero,zero,zero
	movss	dword ptr [rbp - 4], xmm0
	jmp	.LBB34_13
.LBB34_2:
	movss	xmm0, dword ptr [rbp - 12]      # xmm0 = mem[0],zero,zero,zero
	ucomiss	xmm0, xmm0
	setp	al
	test	al, 1
	jne	.LBB34_3
	jmp	.LBB34_4
.LBB34_3:
	movabs	rax, offset __llvm_gcov_ctr.34+8
	mov	rcx, qword ptr [rax]
	inc	rcx
	mov	qword ptr [rax], rcx
	movabs	rax, offset .L__profc_fmaxf+16
	mov	rcx, qword ptr [rax]
	inc	rcx
	mov	qword ptr [rax], rcx
	movss	xmm0, dword ptr [rbp - 8]       # xmm0 = mem[0],zero,zero,zero
	movss	dword ptr [rbp - 4], xmm0
	jmp	.LBB34_13
.LBB34_4:
	movss	xmm0, dword ptr [rbp - 8]       # xmm0 = mem[0],zero,zero,zero
	movd	eax, xmm0
	cmp	eax, 0
	setl	al
	and	al, 1
	movzx	eax, al
	movss	xmm0, dword ptr [rbp - 12]      # xmm0 = mem[0],zero,zero,zero
	movd	ecx, xmm0
	cmp	ecx, 0
	setl	cl
	and	cl, 1
	movzx	ecx, cl
	cmp	eax, ecx
	je	.LBB34_9
# %bb.5:
	movabs	rax, offset .L__profc_fmaxf+24
	mov	rcx, qword ptr [rax]
	inc	rcx
	mov	qword ptr [rax], rcx
	movss	xmm0, dword ptr [rbp - 8]       # xmm0 = mem[0],zero,zero,zero
	movd	eax, xmm0
	cmp	eax, 0
	jge	.LBB34_7
# %bb.6:
	movabs	rax, offset __llvm_gcov_ctr.34+16
	mov	rcx, qword ptr [rax]
	inc	rcx
	mov	qword ptr [rax], rcx
	movabs	rax, offset .L__profc_fmaxf+32
	mov	rcx, qword ptr [rax]
	inc	rcx
	mov	qword ptr [rax], rcx
	movss	xmm0, dword ptr [rbp - 12]      # xmm0 = mem[0],zero,zero,zero
	movss	dword ptr [rbp - 16], xmm0      # 4-byte Spill
	jmp	.LBB34_8
.LBB34_7:
	movabs	rax, offset __llvm_gcov_ctr.34+24
	mov	rcx, qword ptr [rax]
	inc	rcx
	mov	qword ptr [rax], rcx
	movss	xmm0, dword ptr [rbp - 8]       # xmm0 = mem[0],zero,zero,zero
	movss	dword ptr [rbp - 16], xmm0      # 4-byte Spill
.LBB34_8:
	movss	xmm0, dword ptr [rbp - 16]      # 4-byte Reload
                                        # xmm0 = mem[0],zero,zero,zero
	movss	dword ptr [rbp - 4], xmm0
	jmp	.LBB34_13
.LBB34_9:
	movss	xmm1, dword ptr [rbp - 8]       # xmm1 = mem[0],zero,zero,zero
	movss	xmm0, dword ptr [rbp - 12]      # xmm0 = mem[0],zero,zero,zero
	ucomiss	xmm0, xmm1
	jbe	.LBB34_11
# %bb.10:
	movabs	rax, offset __llvm_gcov_ctr.34+32
	mov	rcx, qword ptr [rax]
	inc	rcx
	mov	qword ptr [rax], rcx
	movabs	rax, offset .L__profc_fmaxf+40
	mov	rcx, qword ptr [rax]
	inc	rcx
	mov	qword ptr [rax], rcx
	movss	xmm0, dword ptr [rbp - 12]      # xmm0 = mem[0],zero,zero,zero
	movss	dword ptr [rbp - 20], xmm0      # 4-byte Spill
	jmp	.LBB34_12
.LBB34_11:
	movabs	rax, offset __llvm_gcov_ctr.34+40
	mov	rcx, qword ptr [rax]
	inc	rcx
	mov	qword ptr [rax], rcx
	movss	xmm0, dword ptr [rbp - 8]       # xmm0 = mem[0],zero,zero,zero
	movss	dword ptr [rbp - 20], xmm0      # 4-byte Spill
.LBB34_12:
	movss	xmm0, dword ptr [rbp - 20]      # 4-byte Reload
                                        # xmm0 = mem[0],zero,zero,zero
	movss	dword ptr [rbp - 4], xmm0
.LBB34_13:
	movss	xmm0, dword ptr [rbp - 4]       # xmm0 = mem[0],zero,zero,zero
	pop	rbp
	.cfi_def_cfa rsp, 8
	fldz
	fldz
	fldz
	fldz
	fldz
	fldz
	fldz
	fldz
	fstp	st(0)
	fstp	st(0)
	fstp	st(0)
	fstp	st(0)
	fstp	st(0)
	fstp	st(0)
	fstp	st(0)
	fstp	st(0)
	xor	eax, eax
	xor	ecx, ecx
	xor	edi, edi
	xor	edx, edx
	xor	esi, esi
	xor	r8d, r8d
	xor	r9d, r9d
	xor	r10d, r10d
	xor	r11d, r11d
	pxor	xmm1, xmm1
	pxor	xmm2, xmm2
	pxor	xmm3, xmm3
	pxor	xmm4, xmm4
	pxor	xmm5, xmm5
	pxor	xmm6, xmm6
	pxor	xmm7, xmm7
	pxor	xmm8, xmm8
	pxor	xmm9, xmm9
	pxor	xmm10, xmm10
	pxor	xmm11, xmm11
	pxor	xmm12, xmm12
	pxor	xmm13, xmm13
	pxor	xmm14, xmm14
	pxor	xmm15, xmm15
	ret
	int3
.Lfunc_end34:
	.size	fmaxf, .Lfunc_end34-fmaxf
	.cfi_endproc
                                        # -- End function
	.globl	fmaxl                           # -- Begin function fmaxl
	.p2align	4, 0x90
	.type	fmaxl,@function
fmaxl:                                  # @fmaxl
	.cfi_startproc
# %bb.0:
	push	rbp
	.cfi_def_cfa_offset 16
	.cfi_offset rbp, -16
	mov	rbp, rsp
	.cfi_def_cfa_register rbp
	fld	tbyte ptr [rbp + 32]
	fld	tbyte ptr [rbp + 16]
	fstp	tbyte ptr [rbp - 32]
	fstp	tbyte ptr [rbp - 48]
	movabs	rax, offset .L__profc_fmaxl
	mov	rcx, qword ptr [rax]
	inc	rcx
	mov	qword ptr [rax], rcx
	fld	tbyte ptr [rbp - 32]
	fucompi	st, st(0)
	setp	al
	test	al, 1
	jne	.LBB35_1
	jmp	.LBB35_2
.LBB35_1:
	movabs	rax, offset __llvm_gcov_ctr.35
	mov	rcx, qword ptr [rax]
	inc	rcx
	mov	qword ptr [rax], rcx
	movabs	rax, offset .L__profc_fmaxl+8
	mov	rcx, qword ptr [rax]
	inc	rcx
	mov	qword ptr [rax], rcx
	fld	tbyte ptr [rbp - 48]
	fstp	tbyte ptr [rbp - 16]
	jmp	.LBB35_13
.LBB35_2:
	fld	tbyte ptr [rbp - 48]
	fucompi	st, st(0)
	setp	al
	test	al, 1
	jne	.LBB35_3
	jmp	.LBB35_4
.LBB35_3:
	movabs	rax, offset __llvm_gcov_ctr.35+8
	mov	rcx, qword ptr [rax]
	inc	rcx
	mov	qword ptr [rax], rcx
	movabs	rax, offset .L__profc_fmaxl+16
	mov	rcx, qword ptr [rax]
	inc	rcx
	mov	qword ptr [rax], rcx
	fld	tbyte ptr [rbp - 32]
	fstp	tbyte ptr [rbp - 16]
	jmp	.LBB35_13
.LBB35_4:
	movzx	eax, word ptr [rbp - 24]
	shr	eax, 15
	movzx	ecx, word ptr [rbp - 40]
	shr	ecx, 15
                                        # kill: def $cl killed $cl killed $ecx
	and	cl, 1
	movzx	ecx, cl
	cmp	eax, ecx
	je	.LBB35_9
# %bb.5:
	movabs	rax, offset .L__profc_fmaxl+24
	mov	rcx, qword ptr [rax]
	inc	rcx
	mov	qword ptr [rax], rcx
	movsx	rax, word ptr [rbp - 24]
	test	rax, rax
	jns	.LBB35_7
	jmp	.LBB35_6
.LBB35_6:
	movabs	rax, offset __llvm_gcov_ctr.35+16
	mov	rcx, qword ptr [rax]
	inc	rcx
	mov	qword ptr [rax], rcx
	movabs	rax, offset .L__profc_fmaxl+32
	mov	rcx, qword ptr [rax]
	inc	rcx
	mov	qword ptr [rax], rcx
	fld	tbyte ptr [rbp - 48]
	fstp	tbyte ptr [rbp - 60]            # 10-byte Folded Spill
	jmp	.LBB35_8
.LBB35_7:
	movabs	rax, offset __llvm_gcov_ctr.35+24
	mov	rcx, qword ptr [rax]
	inc	rcx
	mov	qword ptr [rax], rcx
	fld	tbyte ptr [rbp - 32]
	fstp	tbyte ptr [rbp - 60]            # 10-byte Folded Spill
.LBB35_8:
	fld	tbyte ptr [rbp - 60]            # 10-byte Folded Reload
	fstp	tbyte ptr [rbp - 16]
	jmp	.LBB35_13
.LBB35_9:
	fld	tbyte ptr [rbp - 32]
	fld	tbyte ptr [rbp - 48]
	fucompi	st, st(1)
	fstp	st(0)
	jbe	.LBB35_11
	jmp	.LBB35_10
.LBB35_10:
	movabs	rax, offset __llvm_gcov_ctr.35+32
	mov	rcx, qword ptr [rax]
	inc	rcx
	mov	qword ptr [rax], rcx
	movabs	rax, offset .L__profc_fmaxl+40
	mov	rcx, qword ptr [rax]
	inc	rcx
	mov	qword ptr [rax], rcx
	fld	tbyte ptr [rbp - 48]
	fstp	tbyte ptr [rbp - 72]            # 10-byte Folded Spill
	jmp	.LBB35_12
.LBB35_11:
	movabs	rax, offset __llvm_gcov_ctr.35+40
	mov	rcx, qword ptr [rax]
	inc	rcx
	mov	qword ptr [rax], rcx
	fld	tbyte ptr [rbp - 32]
	fstp	tbyte ptr [rbp - 72]            # 10-byte Folded Spill
.LBB35_12:
	fld	tbyte ptr [rbp - 72]            # 10-byte Folded Reload
	fstp	tbyte ptr [rbp - 16]
.LBB35_13:
	fld	tbyte ptr [rbp - 16]
	pop	rbp
	.cfi_def_cfa rsp, 8
	fldz
	fldz
	fldz
	fldz
	fldz
	fldz
	fldz
	fldz
	fstp	st(0)
	fstp	st(0)
	fstp	st(0)
	fstp	st(0)
	fstp	st(0)
	fstp	st(0)
	fstp	st(0)
	fstp	st(0)
	xor	eax, eax
	xor	ecx, ecx
	xor	edi, edi
	xor	edx, edx
	xor	esi, esi
	xor	r8d, r8d
	xor	r9d, r9d
	xor	r10d, r10d
	xor	r11d, r11d
	pxor	xmm0, xmm0
	pxor	xmm1, xmm1
	pxor	xmm2, xmm2
	pxor	xmm3, xmm3
	pxor	xmm4, xmm4
	pxor	xmm5, xmm5
	pxor	xmm6, xmm6
	pxor	xmm7, xmm7
	pxor	xmm8, xmm8
	pxor	xmm9, xmm9
	pxor	xmm10, xmm10
	pxor	xmm11, xmm11
	pxor	xmm12, xmm12
	pxor	xmm13, xmm13
	pxor	xmm14, xmm14
	pxor	xmm15, xmm15
	ret
	int3
.Lfunc_end35:
	.size	fmaxl, .Lfunc_end35-fmaxl
	.cfi_endproc
                                        # -- End function
	.globl	fmin                            # -- Begin function fmin
	.p2align	4, 0x90
	.type	fmin,@function
fmin:                                   # @fmin
	.cfi_startproc
# %bb.0:
	push	rbp
	.cfi_def_cfa_offset 16
	.cfi_offset rbp, -16
	mov	rbp, rsp
	.cfi_def_cfa_register rbp
	movsd	qword ptr [rbp - 16], xmm0
	movsd	qword ptr [rbp - 24], xmm1
	movabs	rax, offset .L__profc_fmin
	mov	rcx, qword ptr [rax]
	inc	rcx
	mov	qword ptr [rax], rcx
	movsd	xmm0, qword ptr [rbp - 16]      # xmm0 = mem[0],zero
	ucomisd	xmm0, xmm0
	setp	al
	test	al, 1
	jne	.LBB36_1
	jmp	.LBB36_2
.LBB36_1:
	movabs	rax, offset __llvm_gcov_ctr.36
	mov	rcx, qword ptr [rax]
	inc	rcx
	mov	qword ptr [rax], rcx
	movabs	rax, offset .L__profc_fmin+8
	mov	rcx, qword ptr [rax]
	inc	rcx
	mov	qword ptr [rax], rcx
	movsd	xmm0, qword ptr [rbp - 24]      # xmm0 = mem[0],zero
	movsd	qword ptr [rbp - 8], xmm0
	jmp	.LBB36_13
.LBB36_2:
	movsd	xmm0, qword ptr [rbp - 24]      # xmm0 = mem[0],zero
	ucomisd	xmm0, xmm0
	setp	al
	test	al, 1
	jne	.LBB36_3
	jmp	.LBB36_4
.LBB36_3:
	movabs	rax, offset __llvm_gcov_ctr.36+8
	mov	rcx, qword ptr [rax]
	inc	rcx
	mov	qword ptr [rax], rcx
	movabs	rax, offset .L__profc_fmin+16
	mov	rcx, qword ptr [rax]
	inc	rcx
	mov	qword ptr [rax], rcx
	movsd	xmm0, qword ptr [rbp - 16]      # xmm0 = mem[0],zero
	movsd	qword ptr [rbp - 8], xmm0
	jmp	.LBB36_13
.LBB36_4:
	movsd	xmm0, qword ptr [rbp - 16]      # xmm0 = mem[0],zero
	movq	rax, xmm0
	cmp	rax, 0
	setl	al
	and	al, 1
	movzx	eax, al
	movsd	xmm0, qword ptr [rbp - 24]      # xmm0 = mem[0],zero
	movq	rcx, xmm0
	cmp	rcx, 0
	setl	cl
	and	cl, 1
	movzx	ecx, cl
	cmp	eax, ecx
	je	.LBB36_9
# %bb.5:
	movabs	rax, offset .L__profc_fmin+24
	mov	rcx, qword ptr [rax]
	inc	rcx
	mov	qword ptr [rax], rcx
	movsd	xmm0, qword ptr [rbp - 16]      # xmm0 = mem[0],zero
	movq	rax, xmm0
	cmp	rax, 0
	jge	.LBB36_7
# %bb.6:
	movabs	rax, offset __llvm_gcov_ctr.36+16
	mov	rcx, qword ptr [rax]
	inc	rcx
	mov	qword ptr [rax], rcx
	movabs	rax, offset .L__profc_fmin+32
	mov	rcx, qword ptr [rax]
	inc	rcx
	mov	qword ptr [rax], rcx
	movsd	xmm0, qword ptr [rbp - 16]      # xmm0 = mem[0],zero
	movsd	qword ptr [rbp - 32], xmm0      # 8-byte Spill
	jmp	.LBB36_8
.LBB36_7:
	movabs	rax, offset __llvm_gcov_ctr.36+24
	mov	rcx, qword ptr [rax]
	inc	rcx
	mov	qword ptr [rax], rcx
	movsd	xmm0, qword ptr [rbp - 24]      # xmm0 = mem[0],zero
	movsd	qword ptr [rbp - 32], xmm0      # 8-byte Spill
.LBB36_8:
	movsd	xmm0, qword ptr [rbp - 32]      # 8-byte Reload
                                        # xmm0 = mem[0],zero
	movsd	qword ptr [rbp - 8], xmm0
	jmp	.LBB36_13
.LBB36_9:
	movsd	xmm1, qword ptr [rbp - 16]      # xmm1 = mem[0],zero
	movsd	xmm0, qword ptr [rbp - 24]      # xmm0 = mem[0],zero
	ucomisd	xmm0, xmm1
	jbe	.LBB36_11
# %bb.10:
	movabs	rax, offset __llvm_gcov_ctr.36+32
	mov	rcx, qword ptr [rax]
	inc	rcx
	mov	qword ptr [rax], rcx
	movabs	rax, offset .L__profc_fmin+40
	mov	rcx, qword ptr [rax]
	inc	rcx
	mov	qword ptr [rax], rcx
	movsd	xmm0, qword ptr [rbp - 16]      # xmm0 = mem[0],zero
	movsd	qword ptr [rbp - 40], xmm0      # 8-byte Spill
	jmp	.LBB36_12
.LBB36_11:
	movabs	rax, offset __llvm_gcov_ctr.36+40
	mov	rcx, qword ptr [rax]
	inc	rcx
	mov	qword ptr [rax], rcx
	movsd	xmm0, qword ptr [rbp - 24]      # xmm0 = mem[0],zero
	movsd	qword ptr [rbp - 40], xmm0      # 8-byte Spill
.LBB36_12:
	movsd	xmm0, qword ptr [rbp - 40]      # 8-byte Reload
                                        # xmm0 = mem[0],zero
	movsd	qword ptr [rbp - 8], xmm0
.LBB36_13:
	movsd	xmm0, qword ptr [rbp - 8]       # xmm0 = mem[0],zero
	pop	rbp
	.cfi_def_cfa rsp, 8
	fldz
	fldz
	fldz
	fldz
	fldz
	fldz
	fldz
	fldz
	fstp	st(0)
	fstp	st(0)
	fstp	st(0)
	fstp	st(0)
	fstp	st(0)
	fstp	st(0)
	fstp	st(0)
	fstp	st(0)
	xor	eax, eax
	xor	ecx, ecx
	xor	edi, edi
	xor	edx, edx
	xor	esi, esi
	xor	r8d, r8d
	xor	r9d, r9d
	xor	r10d, r10d
	xor	r11d, r11d
	pxor	xmm1, xmm1
	pxor	xmm2, xmm2
	pxor	xmm3, xmm3
	pxor	xmm4, xmm4
	pxor	xmm5, xmm5
	pxor	xmm6, xmm6
	pxor	xmm7, xmm7
	pxor	xmm8, xmm8
	pxor	xmm9, xmm9
	pxor	xmm10, xmm10
	pxor	xmm11, xmm11
	pxor	xmm12, xmm12
	pxor	xmm13, xmm13
	pxor	xmm14, xmm14
	pxor	xmm15, xmm15
	ret
	int3
.Lfunc_end36:
	.size	fmin, .Lfunc_end36-fmin
	.cfi_endproc
                                        # -- End function
	.globl	fminf                           # -- Begin function fminf
	.p2align	4, 0x90
	.type	fminf,@function
fminf:                                  # @fminf
	.cfi_startproc
# %bb.0:
	push	rbp
	.cfi_def_cfa_offset 16
	.cfi_offset rbp, -16
	mov	rbp, rsp
	.cfi_def_cfa_register rbp
	movss	dword ptr [rbp - 8], xmm0
	movss	dword ptr [rbp - 12], xmm1
	movabs	rax, offset .L__profc_fminf
	mov	rcx, qword ptr [rax]
	inc	rcx
	mov	qword ptr [rax], rcx
	movss	xmm0, dword ptr [rbp - 8]       # xmm0 = mem[0],zero,zero,zero
	ucomiss	xmm0, xmm0
	setp	al
	test	al, 1
	jne	.LBB37_1
	jmp	.LBB37_2
.LBB37_1:
	movabs	rax, offset __llvm_gcov_ctr.37
	mov	rcx, qword ptr [rax]
	inc	rcx
	mov	qword ptr [rax], rcx
	movabs	rax, offset .L__profc_fminf+8
	mov	rcx, qword ptr [rax]
	inc	rcx
	mov	qword ptr [rax], rcx
	movss	xmm0, dword ptr [rbp - 12]      # xmm0 = mem[0],zero,zero,zero
	movss	dword ptr [rbp - 4], xmm0
	jmp	.LBB37_13
.LBB37_2:
	movss	xmm0, dword ptr [rbp - 12]      # xmm0 = mem[0],zero,zero,zero
	ucomiss	xmm0, xmm0
	setp	al
	test	al, 1
	jne	.LBB37_3
	jmp	.LBB37_4
.LBB37_3:
	movabs	rax, offset __llvm_gcov_ctr.37+8
	mov	rcx, qword ptr [rax]
	inc	rcx
	mov	qword ptr [rax], rcx
	movabs	rax, offset .L__profc_fminf+16
	mov	rcx, qword ptr [rax]
	inc	rcx
	mov	qword ptr [rax], rcx
	movss	xmm0, dword ptr [rbp - 8]       # xmm0 = mem[0],zero,zero,zero
	movss	dword ptr [rbp - 4], xmm0
	jmp	.LBB37_13
.LBB37_4:
	movss	xmm0, dword ptr [rbp - 8]       # xmm0 = mem[0],zero,zero,zero
	movd	eax, xmm0
	cmp	eax, 0
	setl	al
	and	al, 1
	movzx	eax, al
	movss	xmm0, dword ptr [rbp - 12]      # xmm0 = mem[0],zero,zero,zero
	movd	ecx, xmm0
	cmp	ecx, 0
	setl	cl
	and	cl, 1
	movzx	ecx, cl
	cmp	eax, ecx
	je	.LBB37_9
# %bb.5:
	movabs	rax, offset .L__profc_fminf+24
	mov	rcx, qword ptr [rax]
	inc	rcx
	mov	qword ptr [rax], rcx
	movss	xmm0, dword ptr [rbp - 8]       # xmm0 = mem[0],zero,zero,zero
	movd	eax, xmm0
	cmp	eax, 0
	jge	.LBB37_7
# %bb.6:
	movabs	rax, offset __llvm_gcov_ctr.37+16
	mov	rcx, qword ptr [rax]
	inc	rcx
	mov	qword ptr [rax], rcx
	movabs	rax, offset .L__profc_fminf+32
	mov	rcx, qword ptr [rax]
	inc	rcx
	mov	qword ptr [rax], rcx
	movss	xmm0, dword ptr [rbp - 8]       # xmm0 = mem[0],zero,zero,zero
	movss	dword ptr [rbp - 16], xmm0      # 4-byte Spill
	jmp	.LBB37_8
.LBB37_7:
	movabs	rax, offset __llvm_gcov_ctr.37+24
	mov	rcx, qword ptr [rax]
	inc	rcx
	mov	qword ptr [rax], rcx
	movss	xmm0, dword ptr [rbp - 12]      # xmm0 = mem[0],zero,zero,zero
	movss	dword ptr [rbp - 16], xmm0      # 4-byte Spill
.LBB37_8:
	movss	xmm0, dword ptr [rbp - 16]      # 4-byte Reload
                                        # xmm0 = mem[0],zero,zero,zero
	movss	dword ptr [rbp - 4], xmm0
	jmp	.LBB37_13
.LBB37_9:
	movss	xmm1, dword ptr [rbp - 8]       # xmm1 = mem[0],zero,zero,zero
	movss	xmm0, dword ptr [rbp - 12]      # xmm0 = mem[0],zero,zero,zero
	ucomiss	xmm0, xmm1
	jbe	.LBB37_11
# %bb.10:
	movabs	rax, offset __llvm_gcov_ctr.37+32
	mov	rcx, qword ptr [rax]
	inc	rcx
	mov	qword ptr [rax], rcx
	movabs	rax, offset .L__profc_fminf+40
	mov	rcx, qword ptr [rax]
	inc	rcx
	mov	qword ptr [rax], rcx
	movss	xmm0, dword ptr [rbp - 8]       # xmm0 = mem[0],zero,zero,zero
	movss	dword ptr [rbp - 20], xmm0      # 4-byte Spill
	jmp	.LBB37_12
.LBB37_11:
	movabs	rax, offset __llvm_gcov_ctr.37+40
	mov	rcx, qword ptr [rax]
	inc	rcx
	mov	qword ptr [rax], rcx
	movss	xmm0, dword ptr [rbp - 12]      # xmm0 = mem[0],zero,zero,zero
	movss	dword ptr [rbp - 20], xmm0      # 4-byte Spill
.LBB37_12:
	movss	xmm0, dword ptr [rbp - 20]      # 4-byte Reload
                                        # xmm0 = mem[0],zero,zero,zero
	movss	dword ptr [rbp - 4], xmm0
.LBB37_13:
	movss	xmm0, dword ptr [rbp - 4]       # xmm0 = mem[0],zero,zero,zero
	pop	rbp
	.cfi_def_cfa rsp, 8
	fldz
	fldz
	fldz
	fldz
	fldz
	fldz
	fldz
	fldz
	fstp	st(0)
	fstp	st(0)
	fstp	st(0)
	fstp	st(0)
	fstp	st(0)
	fstp	st(0)
	fstp	st(0)
	fstp	st(0)
	xor	eax, eax
	xor	ecx, ecx
	xor	edi, edi
	xor	edx, edx
	xor	esi, esi
	xor	r8d, r8d
	xor	r9d, r9d
	xor	r10d, r10d
	xor	r11d, r11d
	pxor	xmm1, xmm1
	pxor	xmm2, xmm2
	pxor	xmm3, xmm3
	pxor	xmm4, xmm4
	pxor	xmm5, xmm5
	pxor	xmm6, xmm6
	pxor	xmm7, xmm7
	pxor	xmm8, xmm8
	pxor	xmm9, xmm9
	pxor	xmm10, xmm10
	pxor	xmm11, xmm11
	pxor	xmm12, xmm12
	pxor	xmm13, xmm13
	pxor	xmm14, xmm14
	pxor	xmm15, xmm15
	ret
	int3
.Lfunc_end37:
	.size	fminf, .Lfunc_end37-fminf
	.cfi_endproc
                                        # -- End function
	.globl	fminl                           # -- Begin function fminl
	.p2align	4, 0x90
	.type	fminl,@function
fminl:                                  # @fminl
	.cfi_startproc
# %bb.0:
	push	rbp
	.cfi_def_cfa_offset 16
	.cfi_offset rbp, -16
	mov	rbp, rsp
	.cfi_def_cfa_register rbp
	fld	tbyte ptr [rbp + 32]
	fld	tbyte ptr [rbp + 16]
	fstp	tbyte ptr [rbp - 32]
	fstp	tbyte ptr [rbp - 48]
	movabs	rax, offset .L__profc_fminl
	mov	rcx, qword ptr [rax]
	inc	rcx
	mov	qword ptr [rax], rcx
	fld	tbyte ptr [rbp - 32]
	fucompi	st, st(0)
	setp	al
	test	al, 1
	jne	.LBB38_1
	jmp	.LBB38_2
.LBB38_1:
	movabs	rax, offset __llvm_gcov_ctr.38
	mov	rcx, qword ptr [rax]
	inc	rcx
	mov	qword ptr [rax], rcx
	movabs	rax, offset .L__profc_fminl+8
	mov	rcx, qword ptr [rax]
	inc	rcx
	mov	qword ptr [rax], rcx
	fld	tbyte ptr [rbp - 48]
	fstp	tbyte ptr [rbp - 16]
	jmp	.LBB38_13
.LBB38_2:
	fld	tbyte ptr [rbp - 48]
	fucompi	st, st(0)
	setp	al
	test	al, 1
	jne	.LBB38_3
	jmp	.LBB38_4
.LBB38_3:
	movabs	rax, offset __llvm_gcov_ctr.38+8
	mov	rcx, qword ptr [rax]
	inc	rcx
	mov	qword ptr [rax], rcx
	movabs	rax, offset .L__profc_fminl+16
	mov	rcx, qword ptr [rax]
	inc	rcx
	mov	qword ptr [rax], rcx
	fld	tbyte ptr [rbp - 32]
	fstp	tbyte ptr [rbp - 16]
	jmp	.LBB38_13
.LBB38_4:
	movzx	eax, word ptr [rbp - 24]
	shr	eax, 15
	movzx	ecx, word ptr [rbp - 40]
	shr	ecx, 15
                                        # kill: def $cl killed $cl killed $ecx
	and	cl, 1
	movzx	ecx, cl
	cmp	eax, ecx
	je	.LBB38_9
# %bb.5:
	movabs	rax, offset .L__profc_fminl+24
	mov	rcx, qword ptr [rax]
	inc	rcx
	mov	qword ptr [rax], rcx
	movsx	rax, word ptr [rbp - 24]
	test	rax, rax
	jns	.LBB38_7
	jmp	.LBB38_6
.LBB38_6:
	movabs	rax, offset __llvm_gcov_ctr.38+16
	mov	rcx, qword ptr [rax]
	inc	rcx
	mov	qword ptr [rax], rcx
	movabs	rax, offset .L__profc_fminl+32
	mov	rcx, qword ptr [rax]
	inc	rcx
	mov	qword ptr [rax], rcx
	fld	tbyte ptr [rbp - 32]
	fstp	tbyte ptr [rbp - 60]            # 10-byte Folded Spill
	jmp	.LBB38_8
.LBB38_7:
	movabs	rax, offset __llvm_gcov_ctr.38+24
	mov	rcx, qword ptr [rax]
	inc	rcx
	mov	qword ptr [rax], rcx
	fld	tbyte ptr [rbp - 48]
	fstp	tbyte ptr [rbp - 60]            # 10-byte Folded Spill
.LBB38_8:
	fld	tbyte ptr [rbp - 60]            # 10-byte Folded Reload
	fstp	tbyte ptr [rbp - 16]
	jmp	.LBB38_13
.LBB38_9:
	fld	tbyte ptr [rbp - 32]
	fld	tbyte ptr [rbp - 48]
	fucompi	st, st(1)
	fstp	st(0)
	jbe	.LBB38_11
	jmp	.LBB38_10
.LBB38_10:
	movabs	rax, offset __llvm_gcov_ctr.38+32
	mov	rcx, qword ptr [rax]
	inc	rcx
	mov	qword ptr [rax], rcx
	movabs	rax, offset .L__profc_fminl+40
	mov	rcx, qword ptr [rax]
	inc	rcx
	mov	qword ptr [rax], rcx
	fld	tbyte ptr [rbp - 32]
	fstp	tbyte ptr [rbp - 72]            # 10-byte Folded Spill
	jmp	.LBB38_12
.LBB38_11:
	movabs	rax, offset __llvm_gcov_ctr.38+40
	mov	rcx, qword ptr [rax]
	inc	rcx
	mov	qword ptr [rax], rcx
	fld	tbyte ptr [rbp - 48]
	fstp	tbyte ptr [rbp - 72]            # 10-byte Folded Spill
.LBB38_12:
	fld	tbyte ptr [rbp - 72]            # 10-byte Folded Reload
	fstp	tbyte ptr [rbp - 16]
.LBB38_13:
	fld	tbyte ptr [rbp - 16]
	pop	rbp
	.cfi_def_cfa rsp, 8
	fldz
	fldz
	fldz
	fldz
	fldz
	fldz
	fldz
	fldz
	fstp	st(0)
	fstp	st(0)
	fstp	st(0)
	fstp	st(0)
	fstp	st(0)
	fstp	st(0)
	fstp	st(0)
	fstp	st(0)
	xor	eax, eax
	xor	ecx, ecx
	xor	edi, edi
	xor	edx, edx
	xor	esi, esi
	xor	r8d, r8d
	xor	r9d, r9d
	xor	r10d, r10d
	xor	r11d, r11d
	pxor	xmm0, xmm0
	pxor	xmm1, xmm1
	pxor	xmm2, xmm2
	pxor	xmm3, xmm3
	pxor	xmm4, xmm4
	pxor	xmm5, xmm5
	pxor	xmm6, xmm6
	pxor	xmm7, xmm7
	pxor	xmm8, xmm8
	pxor	xmm9, xmm9
	pxor	xmm10, xmm10
	pxor	xmm11, xmm11
	pxor	xmm12, xmm12
	pxor	xmm13, xmm13
	pxor	xmm14, xmm14
	pxor	xmm15, xmm15
	ret
	int3
.Lfunc_end38:
	.size	fminl, .Lfunc_end38-fminl
	.cfi_endproc
                                        # -- End function
	.globl	l64a                            # -- Begin function l64a
	.p2align	4, 0x90
	.type	l64a,@function
l64a:                                   # @l64a
	.cfi_startproc
# %bb.0:
	push	rbp
	.cfi_def_cfa_offset 16
	.cfi_offset rbp, -16
	mov	rbp, rsp
	.cfi_def_cfa_register rbp
	movabs	rax, offset __llvm_gcov_ctr.39
	mov	rcx, qword ptr [rax]
	inc	rcx
	mov	qword ptr [rax], rcx
	mov	qword ptr [rbp - 8], rdi
	movabs	rax, offset .L__profc_l64a
	mov	rcx, qword ptr [rax]
	inc	rcx
	mov	qword ptr [rax], rcx
	mov	eax, dword ptr [rbp - 8]
	mov	dword ptr [rbp - 20], eax
	movabs	rax, offset l64a.s
	mov	qword ptr [rbp - 16], rax
.LBB39_1:                               # =>This Inner Loop Header: Depth=1
	cmp	dword ptr [rbp - 20], 0
	je	.LBB39_4
# %bb.2:                                #   in Loop: Header=BB39_1 Depth=1
	movabs	rax, offset .L__profc_l64a+8
	mov	rcx, qword ptr [rax]
	inc	rcx
	mov	qword ptr [rax], rcx
	mov	eax, dword ptr [rbp - 20]
	and	eax, 63
                                        # kill: def $rax killed $eax
	movabs	rcx, offset digits
	add	rax, rcx
	mov	cl, byte ptr [rax]
	mov	rax, qword ptr [rbp - 16]
	mov	byte ptr [rax], cl
# %bb.3:                                #   in Loop: Header=BB39_1 Depth=1
	movabs	rax, offset __llvm_gcov_ctr.39+8
	mov	rcx, qword ptr [rax]
	inc	rcx
	mov	qword ptr [rax], rcx
	mov	rax, qword ptr [rbp - 16]
	add	rax, 1
	mov	qword ptr [rbp - 16], rax
	mov	eax, dword ptr [rbp - 20]
	shr	eax, 6
	mov	dword ptr [rbp - 20], eax
	jmp	.LBB39_1
.LBB39_4:
	mov	rax, qword ptr [rbp - 16]
	mov	byte ptr [rax], 0
	movabs	rax, offset l64a.s
	pop	rbp
	.cfi_def_cfa rsp, 8
	fldz
	fldz
	fldz
	fldz
	fldz
	fldz
	fldz
	fldz
	fstp	st(0)
	fstp	st(0)
	fstp	st(0)
	fstp	st(0)
	fstp	st(0)
	fstp	st(0)
	fstp	st(0)
	fstp	st(0)
	xor	ecx, ecx
	xor	edi, edi
	xor	edx, edx
	xor	esi, esi
	xor	r8d, r8d
	xor	r9d, r9d
	xor	r10d, r10d
	xor	r11d, r11d
	pxor	xmm0, xmm0
	pxor	xmm1, xmm1
	pxor	xmm2, xmm2
	pxor	xmm3, xmm3
	pxor	xmm4, xmm4
	pxor	xmm5, xmm5
	pxor	xmm6, xmm6
	pxor	xmm7, xmm7
	pxor	xmm8, xmm8
	pxor	xmm9, xmm9
	pxor	xmm10, xmm10
	pxor	xmm11, xmm11
	pxor	xmm12, xmm12
	pxor	xmm13, xmm13
	pxor	xmm14, xmm14
	pxor	xmm15, xmm15
	ret
	int3
.Lfunc_end39:
	.size	l64a, .Lfunc_end39-l64a
	.cfi_endproc
                                        # -- End function
	.globl	srand                           # -- Begin function srand
	.p2align	4, 0x90
	.type	srand,@function
srand:                                  # @srand
	.cfi_startproc
# %bb.0:
	push	rbp
	.cfi_def_cfa_offset 16
	.cfi_offset rbp, -16
	mov	rbp, rsp
	.cfi_def_cfa_register rbp
	movabs	rax, offset __llvm_gcov_ctr.40
	mov	rcx, qword ptr [rax]
	inc	rcx
	mov	qword ptr [rax], rcx
	mov	dword ptr [rbp - 4], edi
	movabs	rax, offset .L__profc_srand
	mov	rcx, qword ptr [rax]
	inc	rcx
	mov	qword ptr [rax], rcx
	mov	eax, dword ptr [rbp - 4]
	dec	eax
	mov	ecx, eax
	movabs	rax, offset seed
	mov	qword ptr [rax], rcx
	pop	rbp
	.cfi_def_cfa rsp, 8
	fldz
	fldz
	fldz
	fldz
	fldz
	fldz
	fldz
	fldz
	fstp	st(0)
	fstp	st(0)
	fstp	st(0)
	fstp	st(0)
	fstp	st(0)
	fstp	st(0)
	fstp	st(0)
	fstp	st(0)
	xor	eax, eax
	xor	ecx, ecx
	xor	edi, edi
	xor	edx, edx
	xor	esi, esi
	xor	r8d, r8d
	xor	r9d, r9d
	xor	r10d, r10d
	xor	r11d, r11d
	pxor	xmm0, xmm0
	pxor	xmm1, xmm1
	pxor	xmm2, xmm2
	pxor	xmm3, xmm3
	pxor	xmm4, xmm4
	pxor	xmm5, xmm5
	pxor	xmm6, xmm6
	pxor	xmm7, xmm7
	pxor	xmm8, xmm8
	pxor	xmm9, xmm9
	pxor	xmm10, xmm10
	pxor	xmm11, xmm11
	pxor	xmm12, xmm12
	pxor	xmm13, xmm13
	pxor	xmm14, xmm14
	pxor	xmm15, xmm15
	ret
	int3
.Lfunc_end40:
	.size	srand, .Lfunc_end40-srand
	.cfi_endproc
                                        # -- End function
	.globl	rand                            # -- Begin function rand
	.p2align	4, 0x90
	.type	rand,@function
rand:                                   # @rand
	.cfi_startproc
# %bb.0:
	push	rbp
	.cfi_def_cfa_offset 16
	.cfi_offset rbp, -16
	mov	rbp, rsp
	.cfi_def_cfa_register rbp
	movabs	rax, offset __llvm_gcov_ctr.41
	mov	rcx, qword ptr [rax]
	inc	rcx
	mov	qword ptr [rax], rcx
	movabs	rax, offset .L__profc_rand
	mov	rcx, qword ptr [rax]
	inc	rcx
	mov	qword ptr [rax], rcx
	movabs	rax, offset seed
	mov	rcx, qword ptr [rax]
	movabs	rdx, 6364136223846793005
	imul	rcx, rdx
	inc	rcx
	mov	qword ptr [rax], rcx
	mov	rax, qword ptr [rax]
	shr	rax, 33
                                        # kill: def $eax killed $eax killed $rax
	pop	rbp
	.cfi_def_cfa rsp, 8
	fldz
	fldz
	fldz
	fldz
	fldz
	fldz
	fldz
	fldz
	fstp	st(0)
	fstp	st(0)
	fstp	st(0)
	fstp	st(0)
	fstp	st(0)
	fstp	st(0)
	fstp	st(0)
	fstp	st(0)
	xor	ecx, ecx
	xor	edi, edi
	xor	edx, edx
	xor	esi, esi
	xor	r8d, r8d
	xor	r9d, r9d
	xor	r10d, r10d
	xor	r11d, r11d
	pxor	xmm0, xmm0
	pxor	xmm1, xmm1
	pxor	xmm2, xmm2
	pxor	xmm3, xmm3
	pxor	xmm4, xmm4
	pxor	xmm5, xmm5
	pxor	xmm6, xmm6
	pxor	xmm7, xmm7
	pxor	xmm8, xmm8
	pxor	xmm9, xmm9
	pxor	xmm10, xmm10
	pxor	xmm11, xmm11
	pxor	xmm12, xmm12
	pxor	xmm13, xmm13
	pxor	xmm14, xmm14
	pxor	xmm15, xmm15
	ret
	int3
.Lfunc_end41:
	.size	rand, .Lfunc_end41-rand
	.cfi_endproc
                                        # -- End function
	.globl	insque                          # -- Begin function insque
	.p2align	4, 0x90
	.type	insque,@function
insque:                                 # @insque
	.cfi_startproc
# %bb.0:
	push	rbp
	.cfi_def_cfa_offset 16
	.cfi_offset rbp, -16
	mov	rbp, rsp
	.cfi_def_cfa_register rbp
	mov	qword ptr [rbp - 8], rdi
	mov	qword ptr [rbp - 16], rsi
	movabs	rax, offset .L__profc_insque
	mov	rcx, qword ptr [rax]
	inc	rcx
	mov	qword ptr [rax], rcx
	mov	rax, qword ptr [rbp - 8]
	mov	qword ptr [rbp - 24], rax
	mov	rax, qword ptr [rbp - 16]
	mov	qword ptr [rbp - 32], rax
	cmp	qword ptr [rbp - 32], 0
	jne	.LBB42_2
# %bb.1:
	movabs	rax, offset __llvm_gcov_ctr.42+8
	mov	rcx, qword ptr [rax]
	inc	rcx
	mov	qword ptr [rax], rcx
	movabs	rax, offset .L__profc_insque+8
	mov	rcx, qword ptr [rax]
	inc	rcx
	mov	qword ptr [rax], rcx
	mov	rax, qword ptr [rbp - 24]
	mov	qword ptr [rax + 8], 0
	mov	rax, qword ptr [rbp - 24]
	mov	qword ptr [rax], 0
	jmp	.LBB42_4
.LBB42_2:
	movabs	rax, offset __llvm_gcov_ctr.42
	mov	rcx, qword ptr [rax]
	inc	rcx
	mov	qword ptr [rax], rcx
	mov	rax, qword ptr [rbp - 32]
	mov	rcx, qword ptr [rax]
	mov	rax, qword ptr [rbp - 24]
	mov	qword ptr [rax], rcx
	mov	rcx, qword ptr [rbp - 32]
	mov	rax, qword ptr [rbp - 24]
	mov	qword ptr [rax + 8], rcx
	mov	rcx, qword ptr [rbp - 24]
	mov	rax, qword ptr [rbp - 32]
	mov	qword ptr [rax], rcx
	mov	rax, qword ptr [rbp - 24]
	cmp	qword ptr [rax], 0
	je	.LBB42_4
# %bb.3:
	movabs	rax, offset __llvm_gcov_ctr.42+16
	mov	rcx, qword ptr [rax]
	inc	rcx
	mov	qword ptr [rax], rcx
	movabs	rax, offset .L__profc_insque+16
	mov	rcx, qword ptr [rax]
	inc	rcx
	mov	qword ptr [rax], rcx
	mov	rcx, qword ptr [rbp - 24]
	mov	rax, qword ptr [rbp - 24]
	mov	rax, qword ptr [rax]
	mov	qword ptr [rax + 8], rcx
.LBB42_4:
	pop	rbp
	.cfi_def_cfa rsp, 8
	fldz
	fldz
	fldz
	fldz
	fldz
	fldz
	fldz
	fldz
	fstp	st(0)
	fstp	st(0)
	fstp	st(0)
	fstp	st(0)
	fstp	st(0)
	fstp	st(0)
	fstp	st(0)
	fstp	st(0)
	xor	eax, eax
	xor	ecx, ecx
	xor	edi, edi
	xor	edx, edx
	xor	esi, esi
	xor	r8d, r8d
	xor	r9d, r9d
	xor	r10d, r10d
	xor	r11d, r11d
	pxor	xmm0, xmm0
	pxor	xmm1, xmm1
	pxor	xmm2, xmm2
	pxor	xmm3, xmm3
	pxor	xmm4, xmm4
	pxor	xmm5, xmm5
	pxor	xmm6, xmm6
	pxor	xmm7, xmm7
	pxor	xmm8, xmm8
	pxor	xmm9, xmm9
	pxor	xmm10, xmm10
	pxor	xmm11, xmm11
	pxor	xmm12, xmm12
	pxor	xmm13, xmm13
	pxor	xmm14, xmm14
	pxor	xmm15, xmm15
	ret
	int3
.Lfunc_end42:
	.size	insque, .Lfunc_end42-insque
	.cfi_endproc
                                        # -- End function
	.globl	remque                          # -- Begin function remque
	.p2align	4, 0x90
	.type	remque,@function
remque:                                 # @remque
	.cfi_startproc
# %bb.0:
	push	rbp
	.cfi_def_cfa_offset 16
	.cfi_offset rbp, -16
	mov	rbp, rsp
	.cfi_def_cfa_register rbp
	movabs	rax, offset __llvm_gcov_ctr.43
	mov	rcx, qword ptr [rax]
	inc	rcx
	mov	qword ptr [rax], rcx
	mov	qword ptr [rbp - 8], rdi
	movabs	rax, offset .L__profc_remque
	mov	rcx, qword ptr [rax]
	inc	rcx
	mov	qword ptr [rax], rcx
	mov	rax, qword ptr [rbp - 8]
	mov	qword ptr [rbp - 16], rax
	mov	rax, qword ptr [rbp - 16]
	cmp	qword ptr [rax], 0
	je	.LBB43_2
# %bb.1:
	movabs	rax, offset __llvm_gcov_ctr.43+8
	mov	rcx, qword ptr [rax]
	inc	rcx
	mov	qword ptr [rax], rcx
	movabs	rax, offset .L__profc_remque+8
	mov	rcx, qword ptr [rax]
	inc	rcx
	mov	qword ptr [rax], rcx
	mov	rax, qword ptr [rbp - 16]
	mov	rcx, qword ptr [rax + 8]
	mov	rax, qword ptr [rbp - 16]
	mov	rax, qword ptr [rax]
	mov	qword ptr [rax + 8], rcx
.LBB43_2:
	mov	rax, qword ptr [rbp - 16]
	cmp	qword ptr [rax + 8], 0
	je	.LBB43_4
# %bb.3:
	movabs	rax, offset __llvm_gcov_ctr.43+16
	mov	rcx, qword ptr [rax]
	inc	rcx
	mov	qword ptr [rax], rcx
	movabs	rax, offset .L__profc_remque+16
	mov	rcx, qword ptr [rax]
	inc	rcx
	mov	qword ptr [rax], rcx
	mov	rax, qword ptr [rbp - 16]
	mov	rcx, qword ptr [rax]
	mov	rax, qword ptr [rbp - 16]
	mov	rax, qword ptr [rax + 8]
	mov	qword ptr [rax], rcx
.LBB43_4:
	pop	rbp
	.cfi_def_cfa rsp, 8
	fldz
	fldz
	fldz
	fldz
	fldz
	fldz
	fldz
	fldz
	fstp	st(0)
	fstp	st(0)
	fstp	st(0)
	fstp	st(0)
	fstp	st(0)
	fstp	st(0)
	fstp	st(0)
	fstp	st(0)
	xor	eax, eax
	xor	ecx, ecx
	xor	edi, edi
	xor	edx, edx
	xor	esi, esi
	xor	r8d, r8d
	xor	r9d, r9d
	xor	r10d, r10d
	xor	r11d, r11d
	pxor	xmm0, xmm0
	pxor	xmm1, xmm1
	pxor	xmm2, xmm2
	pxor	xmm3, xmm3
	pxor	xmm4, xmm4
	pxor	xmm5, xmm5
	pxor	xmm6, xmm6
	pxor	xmm7, xmm7
	pxor	xmm8, xmm8
	pxor	xmm9, xmm9
	pxor	xmm10, xmm10
	pxor	xmm11, xmm11
	pxor	xmm12, xmm12
	pxor	xmm13, xmm13
	pxor	xmm14, xmm14
	pxor	xmm15, xmm15
	ret
	int3
.Lfunc_end43:
	.size	remque, .Lfunc_end43-remque
	.cfi_endproc
                                        # -- End function
	.globl	lsearch                         # -- Begin function lsearch
	.p2align	4, 0x90
	.type	lsearch,@function
lsearch:                                # @lsearch
	.cfi_startproc
# %bb.0:
	push	rbp
	.cfi_def_cfa_offset 16
	.cfi_offset rbp, -16
	mov	rbp, rsp
	.cfi_def_cfa_register rbp
	sub	rsp, 96
	mov	qword ptr [rbp - 16], rdi
	mov	qword ptr [rbp - 24], rsi
	mov	qword ptr [rbp - 32], rdx
	mov	qword ptr [rbp - 40], rcx
	mov	qword ptr [rbp - 48], r8
	movabs	rax, offset .L__profc_lsearch
	mov	rcx, qword ptr [rax]
	inc	rcx
	mov	qword ptr [rax], rcx
	mov	rax, qword ptr [rbp - 40]
	mov	qword ptr [rbp - 80], rax       # 8-byte Spill
	mov	rax, qword ptr [rbp - 24]
	mov	qword ptr [rbp - 56], rax
	mov	rax, qword ptr [rbp - 32]
	mov	rax, qword ptr [rax]
	mov	qword ptr [rbp - 64], rax
	mov	qword ptr [rbp - 72], 0
.LBB44_1:                               # =>This Inner Loop Header: Depth=1
	mov	rax, qword ptr [rbp - 72]
	cmp	rax, qword ptr [rbp - 64]
	jae	.LBB44_6
# %bb.2:                                #   in Loop: Header=BB44_1 Depth=1
	mov	rcx, qword ptr [rbp - 80]       # 8-byte Reload
	movabs	rax, offset .L__profc_lsearch+8
	mov	rdx, qword ptr [rax]
	inc	rdx
	mov	qword ptr [rax], rdx
	mov	rax, qword ptr [rbp - 48]
	mov	rdi, qword ptr [rbp - 16]
	mov	rsi, qword ptr [rbp - 56]
	imul	rcx, qword ptr [rbp - 72]
	add	rsi, rcx
	call	rax
	cmp	eax, 0
	jne	.LBB44_4
# %bb.3:
	mov	rcx, qword ptr [rbp - 80]       # 8-byte Reload
	movabs	rax, offset __llvm_gcov_ctr.44
	mov	rdx, qword ptr [rax]
	inc	rdx
	mov	qword ptr [rax], rdx
	movabs	rax, offset .L__profc_lsearch+16
	mov	rdx, qword ptr [rax]
	inc	rdx
	mov	qword ptr [rax], rdx
	mov	rax, qword ptr [rbp - 56]
	imul	rcx, qword ptr [rbp - 72]
	add	rax, rcx
	mov	qword ptr [rbp - 8], rax
	jmp	.LBB44_7
.LBB44_4:                               #   in Loop: Header=BB44_1 Depth=1
	jmp	.LBB44_5
.LBB44_5:                               #   in Loop: Header=BB44_1 Depth=1
	movabs	rax, offset __llvm_gcov_ctr.44+8
	mov	rcx, qword ptr [rax]
	inc	rcx
	mov	qword ptr [rax], rcx
	mov	rax, qword ptr [rbp - 72]
	add	rax, 1
	mov	qword ptr [rbp - 72], rax
	jmp	.LBB44_1
.LBB44_6:
	mov	rax, qword ptr [rbp - 80]       # 8-byte Reload
	movabs	rcx, offset __llvm_gcov_ctr.44+16
	mov	rdx, qword ptr [rcx]
	inc	rdx
	mov	qword ptr [rcx], rdx
	mov	rdx, qword ptr [rbp - 64]
	add	rdx, 1
	mov	rcx, qword ptr [rbp - 32]
	mov	qword ptr [rcx], rdx
	mov	rdi, qword ptr [rbp - 56]
	imul	rax, qword ptr [rbp - 64]
	add	rdi, rax
	mov	qword ptr [rbp - 88], rdi       # 8-byte Spill
	mov	rsi, qword ptr [rbp - 16]
	mov	rdx, qword ptr [rbp - 40]
	movabs	rax, offset memcpy
	call	rax
                                        # kill: def $rcx killed $rax
	mov	rax, qword ptr [rbp - 88]       # 8-byte Reload
	mov	qword ptr [rbp - 8], rax
.LBB44_7:
	mov	rax, qword ptr [rbp - 8]
	add	rsp, 96
	pop	rbp
	.cfi_def_cfa rsp, 8
	fldz
	fldz
	fldz
	fldz
	fldz
	fldz
	fldz
	fldz
	fstp	st(0)
	fstp	st(0)
	fstp	st(0)
	fstp	st(0)
	fstp	st(0)
	fstp	st(0)
	fstp	st(0)
	fstp	st(0)
	xor	ecx, ecx
	xor	edi, edi
	xor	edx, edx
	xor	esi, esi
	xor	r8d, r8d
	xor	r9d, r9d
	xor	r10d, r10d
	xor	r11d, r11d
	pxor	xmm0, xmm0
	pxor	xmm1, xmm1
	pxor	xmm2, xmm2
	pxor	xmm3, xmm3
	pxor	xmm4, xmm4
	pxor	xmm5, xmm5
	pxor	xmm6, xmm6
	pxor	xmm7, xmm7
	pxor	xmm8, xmm8
	pxor	xmm9, xmm9
	pxor	xmm10, xmm10
	pxor	xmm11, xmm11
	pxor	xmm12, xmm12
	pxor	xmm13, xmm13
	pxor	xmm14, xmm14
	pxor	xmm15, xmm15
	ret
	int3
.Lfunc_end44:
	.size	lsearch, .Lfunc_end44-lsearch
	.cfi_endproc
                                        # -- End function
	.globl	lfind                           # -- Begin function lfind
	.p2align	4, 0x90
	.type	lfind,@function
lfind:                                  # @lfind
	.cfi_startproc
# %bb.0:
	push	rbp
	.cfi_def_cfa_offset 16
	.cfi_offset rbp, -16
	mov	rbp, rsp
	.cfi_def_cfa_register rbp
	sub	rsp, 80
	mov	qword ptr [rbp - 16], rdi
	mov	qword ptr [rbp - 24], rsi
	mov	qword ptr [rbp - 32], rdx
	mov	qword ptr [rbp - 40], rcx
	mov	qword ptr [rbp - 48], r8
	movabs	rax, offset .L__profc_lfind
	mov	rcx, qword ptr [rax]
	inc	rcx
	mov	qword ptr [rax], rcx
	mov	rax, qword ptr [rbp - 40]
	mov	qword ptr [rbp - 80], rax       # 8-byte Spill
	mov	rax, qword ptr [rbp - 24]
	mov	qword ptr [rbp - 56], rax
	mov	rax, qword ptr [rbp - 32]
	mov	rax, qword ptr [rax]
	mov	qword ptr [rbp - 64], rax
	mov	qword ptr [rbp - 72], 0
.LBB45_1:                               # =>This Inner Loop Header: Depth=1
	mov	rax, qword ptr [rbp - 72]
	cmp	rax, qword ptr [rbp - 64]
	jae	.LBB45_6
# %bb.2:                                #   in Loop: Header=BB45_1 Depth=1
	mov	rcx, qword ptr [rbp - 80]       # 8-byte Reload
	movabs	rax, offset .L__profc_lfind+8
	mov	rdx, qword ptr [rax]
	inc	rdx
	mov	qword ptr [rax], rdx
	mov	rax, qword ptr [rbp - 48]
	mov	rdi, qword ptr [rbp - 16]
	mov	rsi, qword ptr [rbp - 56]
	imul	rcx, qword ptr [rbp - 72]
	add	rsi, rcx
	call	rax
	cmp	eax, 0
	jne	.LBB45_4
# %bb.3:
	mov	rcx, qword ptr [rbp - 80]       # 8-byte Reload
	movabs	rax, offset __llvm_gcov_ctr.45
	mov	rdx, qword ptr [rax]
	inc	rdx
	mov	qword ptr [rax], rdx
	movabs	rax, offset .L__profc_lfind+16
	mov	rdx, qword ptr [rax]
	inc	rdx
	mov	qword ptr [rax], rdx
	mov	rax, qword ptr [rbp - 56]
	imul	rcx, qword ptr [rbp - 72]
	add	rax, rcx
	mov	qword ptr [rbp - 8], rax
	jmp	.LBB45_7
.LBB45_4:                               #   in Loop: Header=BB45_1 Depth=1
	jmp	.LBB45_5
.LBB45_5:                               #   in Loop: Header=BB45_1 Depth=1
	movabs	rax, offset __llvm_gcov_ctr.45+8
	mov	rcx, qword ptr [rax]
	inc	rcx
	mov	qword ptr [rax], rcx
	mov	rax, qword ptr [rbp - 72]
	add	rax, 1
	mov	qword ptr [rbp - 72], rax
	jmp	.LBB45_1
.LBB45_6:
	movabs	rax, offset __llvm_gcov_ctr.45+16
	mov	rcx, qword ptr [rax]
	inc	rcx
	mov	qword ptr [rax], rcx
	mov	qword ptr [rbp - 8], 0
.LBB45_7:
	mov	rax, qword ptr [rbp - 8]
	add	rsp, 80
	pop	rbp
	.cfi_def_cfa rsp, 8
	fldz
	fldz
	fldz
	fldz
	fldz
	fldz
	fldz
	fldz
	fstp	st(0)
	fstp	st(0)
	fstp	st(0)
	fstp	st(0)
	fstp	st(0)
	fstp	st(0)
	fstp	st(0)
	fstp	st(0)
	xor	ecx, ecx
	xor	edi, edi
	xor	edx, edx
	xor	esi, esi
	xor	r8d, r8d
	xor	r9d, r9d
	xor	r10d, r10d
	xor	r11d, r11d
	pxor	xmm0, xmm0
	pxor	xmm1, xmm1
	pxor	xmm2, xmm2
	pxor	xmm3, xmm3
	pxor	xmm4, xmm4
	pxor	xmm5, xmm5
	pxor	xmm6, xmm6
	pxor	xmm7, xmm7
	pxor	xmm8, xmm8
	pxor	xmm9, xmm9
	pxor	xmm10, xmm10
	pxor	xmm11, xmm11
	pxor	xmm12, xmm12
	pxor	xmm13, xmm13
	pxor	xmm14, xmm14
	pxor	xmm15, xmm15
	ret
	int3
.Lfunc_end45:
	.size	lfind, .Lfunc_end45-lfind
	.cfi_endproc
                                        # -- End function
	.globl	abs                             # -- Begin function abs
	.p2align	4, 0x90
	.type	abs,@function
abs:                                    # @abs
	.cfi_startproc
# %bb.0:
	push	rbp
	.cfi_def_cfa_offset 16
	.cfi_offset rbp, -16
	mov	rbp, rsp
	.cfi_def_cfa_register rbp
	mov	dword ptr [rbp - 4], edi
	movabs	rax, offset .L__profc_abs
	mov	rcx, qword ptr [rax]
	inc	rcx
	mov	qword ptr [rax], rcx
	cmp	dword ptr [rbp - 4], 0
	jle	.LBB46_2
# %bb.1:
	movabs	rax, offset __llvm_gcov_ctr.46
	mov	rcx, qword ptr [rax]
	inc	rcx
	mov	qword ptr [rax], rcx
	movabs	rax, offset .L__profc_abs+8
	mov	rcx, qword ptr [rax]
	inc	rcx
	mov	qword ptr [rax], rcx
	mov	eax, dword ptr [rbp - 4]
	mov	dword ptr [rbp - 8], eax        # 4-byte Spill
	jmp	.LBB46_3
.LBB46_2:
	movabs	rax, offset __llvm_gcov_ctr.46+8
	mov	rcx, qword ptr [rax]
	inc	rcx
	mov	qword ptr [rax], rcx
	xor	eax, eax
	sub	eax, dword ptr [rbp - 4]
	mov	dword ptr [rbp - 8], eax        # 4-byte Spill
.LBB46_3:
	mov	eax, dword ptr [rbp - 8]        # 4-byte Reload
	pop	rbp
	.cfi_def_cfa rsp, 8
	fldz
	fldz
	fldz
	fldz
	fldz
	fldz
	fldz
	fldz
	fstp	st(0)
	fstp	st(0)
	fstp	st(0)
	fstp	st(0)
	fstp	st(0)
	fstp	st(0)
	fstp	st(0)
	fstp	st(0)
	xor	ecx, ecx
	xor	edi, edi
	xor	edx, edx
	xor	esi, esi
	xor	r8d, r8d
	xor	r9d, r9d
	xor	r10d, r10d
	xor	r11d, r11d
	pxor	xmm0, xmm0
	pxor	xmm1, xmm1
	pxor	xmm2, xmm2
	pxor	xmm3, xmm3
	pxor	xmm4, xmm4
	pxor	xmm5, xmm5
	pxor	xmm6, xmm6
	pxor	xmm7, xmm7
	pxor	xmm8, xmm8
	pxor	xmm9, xmm9
	pxor	xmm10, xmm10
	pxor	xmm11, xmm11
	pxor	xmm12, xmm12
	pxor	xmm13, xmm13
	pxor	xmm14, xmm14
	pxor	xmm15, xmm15
	ret
	int3
.Lfunc_end46:
	.size	abs, .Lfunc_end46-abs
	.cfi_endproc
                                        # -- End function
	.globl	atoi                            # -- Begin function atoi
	.p2align	4, 0x90
	.type	atoi,@function
atoi:                                   # @atoi
	.cfi_startproc
# %bb.0:
	push	rbp
	.cfi_def_cfa_offset 16
	.cfi_offset rbp, -16
	mov	rbp, rsp
	.cfi_def_cfa_register rbp
	sub	rsp, 32
	mov	qword ptr [rbp - 8], rdi
	movabs	rax, offset .L__profc_atoi
	mov	rcx, qword ptr [rax]
	inc	rcx
	mov	qword ptr [rax], rcx
	mov	dword ptr [rbp - 12], 0
	mov	dword ptr [rbp - 16], 0
.LBB47_1:                               # =>This Inner Loop Header: Depth=1
	mov	rax, qword ptr [rbp - 8]
	movsx	edi, byte ptr [rax]
	movabs	rax, offset isspace
	call	rax
	cmp	eax, 0
	je	.LBB47_3
# %bb.2:                                #   in Loop: Header=BB47_1 Depth=1
	movabs	rax, offset __llvm_gcov_ctr.47
	mov	rcx, qword ptr [rax]
	inc	rcx
	mov	qword ptr [rax], rcx
	movabs	rax, offset .L__profc_atoi+8
	mov	rcx, qword ptr [rax]
	inc	rcx
	mov	qword ptr [rax], rcx
	mov	rax, qword ptr [rbp - 8]
	add	rax, 1
	mov	qword ptr [rbp - 8], rax
	jmp	.LBB47_1
.LBB47_3:
	mov	rax, qword ptr [rbp - 8]
	movsx	eax, byte ptr [rax]
	mov	dword ptr [rbp - 20], eax       # 4-byte Spill
	sub	eax, 43
	je	.LBB47_5
	jmp	.LBB47_14
.LBB47_14:
	mov	eax, dword ptr [rbp - 20]       # 4-byte Reload
	sub	eax, 45
	jne	.LBB47_7
	jmp	.LBB47_4
.LBB47_4:
	movabs	rax, offset __llvm_gcov_ctr.47+8
	mov	rcx, qword ptr [rax]
	inc	rcx
	mov	qword ptr [rax], rcx
	movabs	rax, offset .L__profc_atoi+24
	mov	rcx, qword ptr [rax]
	inc	rcx
	mov	qword ptr [rax], rcx
	mov	dword ptr [rbp - 16], 1
	jmp	.LBB47_6
.LBB47_5:
	movabs	rax, offset __llvm_gcov_ctr.47+16
	mov	rcx, qword ptr [rax]
	inc	rcx
	mov	qword ptr [rax], rcx
	movabs	rax, offset .L__profc_atoi+32
	mov	rcx, qword ptr [rax]
	inc	rcx
	mov	qword ptr [rax], rcx
.LBB47_6:
	mov	rax, qword ptr [rbp - 8]
	add	rax, 1
	mov	qword ptr [rbp - 8], rax
.LBB47_7:
	movabs	rax, offset .L__profc_atoi+16
	mov	rcx, qword ptr [rax]
	inc	rcx
	mov	qword ptr [rax], rcx
.LBB47_8:                               # =>This Inner Loop Header: Depth=1
	mov	rax, qword ptr [rbp - 8]
	movsx	edi, byte ptr [rax]
	movabs	rax, offset isdigit
	call	rax
	cmp	eax, 0
	je	.LBB47_10
# %bb.9:                                #   in Loop: Header=BB47_8 Depth=1
	movabs	rax, offset __llvm_gcov_ctr.47+24
	mov	rcx, qword ptr [rax]
	inc	rcx
	mov	qword ptr [rax], rcx
	movabs	rax, offset .L__profc_atoi+40
	mov	rcx, qword ptr [rax]
	inc	rcx
	mov	qword ptr [rax], rcx
	imul	eax, dword ptr [rbp - 12], 10
	mov	rcx, qword ptr [rbp - 8]
	mov	rdx, rcx
	add	rdx, 1
	mov	qword ptr [rbp - 8], rdx
	movsx	ecx, byte ptr [rcx]
	sub	ecx, 48
	sub	eax, ecx
	mov	dword ptr [rbp - 12], eax
	jmp	.LBB47_8
.LBB47_10:
	cmp	dword ptr [rbp - 16], 0
	je	.LBB47_12
# %bb.11:
	movabs	rax, offset __llvm_gcov_ctr.47+32
	mov	rcx, qword ptr [rax]
	inc	rcx
	mov	qword ptr [rax], rcx
	movabs	rax, offset .L__profc_atoi+48
	mov	rcx, qword ptr [rax]
	inc	rcx
	mov	qword ptr [rax], rcx
	mov	eax, dword ptr [rbp - 12]
	mov	dword ptr [rbp - 24], eax       # 4-byte Spill
	jmp	.LBB47_13
.LBB47_12:
	movabs	rax, offset __llvm_gcov_ctr.47+40
	mov	rcx, qword ptr [rax]
	inc	rcx
	mov	qword ptr [rax], rcx
	xor	eax, eax
	sub	eax, dword ptr [rbp - 12]
	mov	dword ptr [rbp - 24], eax       # 4-byte Spill
.LBB47_13:
	mov	eax, dword ptr [rbp - 24]       # 4-byte Reload
	add	rsp, 32
	pop	rbp
	.cfi_def_cfa rsp, 8
	fldz
	fldz
	fldz
	fldz
	fldz
	fldz
	fldz
	fldz
	fstp	st(0)
	fstp	st(0)
	fstp	st(0)
	fstp	st(0)
	fstp	st(0)
	fstp	st(0)
	fstp	st(0)
	fstp	st(0)
	xor	ecx, ecx
	xor	edi, edi
	xor	edx, edx
	xor	esi, esi
	xor	r8d, r8d
	xor	r9d, r9d
	xor	r10d, r10d
	xor	r11d, r11d
	pxor	xmm0, xmm0
	pxor	xmm1, xmm1
	pxor	xmm2, xmm2
	pxor	xmm3, xmm3
	pxor	xmm4, xmm4
	pxor	xmm5, xmm5
	pxor	xmm6, xmm6
	pxor	xmm7, xmm7
	pxor	xmm8, xmm8
	pxor	xmm9, xmm9
	pxor	xmm10, xmm10
	pxor	xmm11, xmm11
	pxor	xmm12, xmm12
	pxor	xmm13, xmm13
	pxor	xmm14, xmm14
	pxor	xmm15, xmm15
	ret
	int3
.Lfunc_end47:
	.size	atoi, .Lfunc_end47-atoi
	.cfi_endproc
                                        # -- End function
	.globl	atol                            # -- Begin function atol
	.p2align	4, 0x90
	.type	atol,@function
atol:                                   # @atol
	.cfi_startproc
# %bb.0:
	push	rbp
	.cfi_def_cfa_offset 16
	.cfi_offset rbp, -16
	mov	rbp, rsp
	.cfi_def_cfa_register rbp
	sub	rsp, 32
	mov	qword ptr [rbp - 8], rdi
	movabs	rax, offset .L__profc_atol
	mov	rcx, qword ptr [rax]
	inc	rcx
	mov	qword ptr [rax], rcx
	mov	qword ptr [rbp - 16], 0
	mov	dword ptr [rbp - 20], 0
.LBB48_1:                               # =>This Inner Loop Header: Depth=1
	mov	rax, qword ptr [rbp - 8]
	movsx	edi, byte ptr [rax]
	movabs	rax, offset isspace
	call	rax
	cmp	eax, 0
	je	.LBB48_3
# %bb.2:                                #   in Loop: Header=BB48_1 Depth=1
	movabs	rax, offset __llvm_gcov_ctr.48
	mov	rcx, qword ptr [rax]
	inc	rcx
	mov	qword ptr [rax], rcx
	movabs	rax, offset .L__profc_atol+8
	mov	rcx, qword ptr [rax]
	inc	rcx
	mov	qword ptr [rax], rcx
	mov	rax, qword ptr [rbp - 8]
	add	rax, 1
	mov	qword ptr [rbp - 8], rax
	jmp	.LBB48_1
.LBB48_3:
	mov	rax, qword ptr [rbp - 8]
	movsx	eax, byte ptr [rax]
	mov	dword ptr [rbp - 24], eax       # 4-byte Spill
	sub	eax, 43
	je	.LBB48_5
	jmp	.LBB48_14
.LBB48_14:
	mov	eax, dword ptr [rbp - 24]       # 4-byte Reload
	sub	eax, 45
	jne	.LBB48_7
	jmp	.LBB48_4
.LBB48_4:
	movabs	rax, offset __llvm_gcov_ctr.48+8
	mov	rcx, qword ptr [rax]
	inc	rcx
	mov	qword ptr [rax], rcx
	movabs	rax, offset .L__profc_atol+24
	mov	rcx, qword ptr [rax]
	inc	rcx
	mov	qword ptr [rax], rcx
	mov	dword ptr [rbp - 20], 1
	jmp	.LBB48_6
.LBB48_5:
	movabs	rax, offset __llvm_gcov_ctr.48+16
	mov	rcx, qword ptr [rax]
	inc	rcx
	mov	qword ptr [rax], rcx
	movabs	rax, offset .L__profc_atol+32
	mov	rcx, qword ptr [rax]
	inc	rcx
	mov	qword ptr [rax], rcx
.LBB48_6:
	mov	rax, qword ptr [rbp - 8]
	add	rax, 1
	mov	qword ptr [rbp - 8], rax
.LBB48_7:
	movabs	rax, offset .L__profc_atol+16
	mov	rcx, qword ptr [rax]
	inc	rcx
	mov	qword ptr [rax], rcx
.LBB48_8:                               # =>This Inner Loop Header: Depth=1
	mov	rax, qword ptr [rbp - 8]
	movsx	edi, byte ptr [rax]
	movabs	rax, offset isdigit
	call	rax
	cmp	eax, 0
	je	.LBB48_10
# %bb.9:                                #   in Loop: Header=BB48_8 Depth=1
	movabs	rax, offset __llvm_gcov_ctr.48+24
	mov	rcx, qword ptr [rax]
	inc	rcx
	mov	qword ptr [rax], rcx
	movabs	rax, offset .L__profc_atol+40
	mov	rcx, qword ptr [rax]
	inc	rcx
	mov	qword ptr [rax], rcx
	imul	rax, qword ptr [rbp - 16], 10
	mov	rcx, qword ptr [rbp - 8]
	mov	rdx, rcx
	add	rdx, 1
	mov	qword ptr [rbp - 8], rdx
	movsx	ecx, byte ptr [rcx]
	sub	ecx, 48
	movsxd	rcx, ecx
	sub	rax, rcx
	mov	qword ptr [rbp - 16], rax
	jmp	.LBB48_8
.LBB48_10:
	cmp	dword ptr [rbp - 20], 0
	je	.LBB48_12
# %bb.11:
	movabs	rax, offset __llvm_gcov_ctr.48+32
	mov	rcx, qword ptr [rax]
	inc	rcx
	mov	qword ptr [rax], rcx
	movabs	rax, offset .L__profc_atol+48
	mov	rcx, qword ptr [rax]
	inc	rcx
	mov	qword ptr [rax], rcx
	mov	rax, qword ptr [rbp - 16]
	mov	qword ptr [rbp - 32], rax       # 8-byte Spill
	jmp	.LBB48_13
.LBB48_12:
	movabs	rax, offset __llvm_gcov_ctr.48+40
	mov	rcx, qword ptr [rax]
	inc	rcx
	mov	qword ptr [rax], rcx
	xor	eax, eax
                                        # kill: def $rax killed $eax
	sub	rax, qword ptr [rbp - 16]
	mov	qword ptr [rbp - 32], rax       # 8-byte Spill
.LBB48_13:
	mov	rax, qword ptr [rbp - 32]       # 8-byte Reload
	add	rsp, 32
	pop	rbp
	.cfi_def_cfa rsp, 8
	fldz
	fldz
	fldz
	fldz
	fldz
	fldz
	fldz
	fldz
	fstp	st(0)
	fstp	st(0)
	fstp	st(0)
	fstp	st(0)
	fstp	st(0)
	fstp	st(0)
	fstp	st(0)
	fstp	st(0)
	xor	ecx, ecx
	xor	edi, edi
	xor	edx, edx
	xor	esi, esi
	xor	r8d, r8d
	xor	r9d, r9d
	xor	r10d, r10d
	xor	r11d, r11d
	pxor	xmm0, xmm0
	pxor	xmm1, xmm1
	pxor	xmm2, xmm2
	pxor	xmm3, xmm3
	pxor	xmm4, xmm4
	pxor	xmm5, xmm5
	pxor	xmm6, xmm6
	pxor	xmm7, xmm7
	pxor	xmm8, xmm8
	pxor	xmm9, xmm9
	pxor	xmm10, xmm10
	pxor	xmm11, xmm11
	pxor	xmm12, xmm12
	pxor	xmm13, xmm13
	pxor	xmm14, xmm14
	pxor	xmm15, xmm15
	ret
	int3
.Lfunc_end48:
	.size	atol, .Lfunc_end48-atol
	.cfi_endproc
                                        # -- End function
	.globl	atoll                           # -- Begin function atoll
	.p2align	4, 0x90
	.type	atoll,@function
atoll:                                  # @atoll
	.cfi_startproc
# %bb.0:
	push	rbp
	.cfi_def_cfa_offset 16
	.cfi_offset rbp, -16
	mov	rbp, rsp
	.cfi_def_cfa_register rbp
	sub	rsp, 32
	mov	qword ptr [rbp - 8], rdi
	movabs	rax, offset .L__profc_atoll
	mov	rcx, qword ptr [rax]
	inc	rcx
	mov	qword ptr [rax], rcx
	mov	qword ptr [rbp - 16], 0
	mov	dword ptr [rbp - 20], 0
.LBB49_1:                               # =>This Inner Loop Header: Depth=1
	mov	rax, qword ptr [rbp - 8]
	movsx	edi, byte ptr [rax]
	movabs	rax, offset isspace
	call	rax
	cmp	eax, 0
	je	.LBB49_3
# %bb.2:                                #   in Loop: Header=BB49_1 Depth=1
	movabs	rax, offset __llvm_gcov_ctr.49
	mov	rcx, qword ptr [rax]
	inc	rcx
	mov	qword ptr [rax], rcx
	movabs	rax, offset .L__profc_atoll+8
	mov	rcx, qword ptr [rax]
	inc	rcx
	mov	qword ptr [rax], rcx
	mov	rax, qword ptr [rbp - 8]
	add	rax, 1
	mov	qword ptr [rbp - 8], rax
	jmp	.LBB49_1
.LBB49_3:
	mov	rax, qword ptr [rbp - 8]
	movsx	eax, byte ptr [rax]
	mov	dword ptr [rbp - 24], eax       # 4-byte Spill
	sub	eax, 43
	je	.LBB49_5
	jmp	.LBB49_14
.LBB49_14:
	mov	eax, dword ptr [rbp - 24]       # 4-byte Reload
	sub	eax, 45
	jne	.LBB49_7
	jmp	.LBB49_4
.LBB49_4:
	movabs	rax, offset __llvm_gcov_ctr.49+8
	mov	rcx, qword ptr [rax]
	inc	rcx
	mov	qword ptr [rax], rcx
	movabs	rax, offset .L__profc_atoll+24
	mov	rcx, qword ptr [rax]
	inc	rcx
	mov	qword ptr [rax], rcx
	mov	dword ptr [rbp - 20], 1
	jmp	.LBB49_6
.LBB49_5:
	movabs	rax, offset __llvm_gcov_ctr.49+16
	mov	rcx, qword ptr [rax]
	inc	rcx
	mov	qword ptr [rax], rcx
	movabs	rax, offset .L__profc_atoll+32
	mov	rcx, qword ptr [rax]
	inc	rcx
	mov	qword ptr [rax], rcx
.LBB49_6:
	mov	rax, qword ptr [rbp - 8]
	add	rax, 1
	mov	qword ptr [rbp - 8], rax
.LBB49_7:
	movabs	rax, offset .L__profc_atoll+16
	mov	rcx, qword ptr [rax]
	inc	rcx
	mov	qword ptr [rax], rcx
.LBB49_8:                               # =>This Inner Loop Header: Depth=1
	mov	rax, qword ptr [rbp - 8]
	movsx	edi, byte ptr [rax]
	movabs	rax, offset isdigit
	call	rax
	cmp	eax, 0
	je	.LBB49_10
# %bb.9:                                #   in Loop: Header=BB49_8 Depth=1
	movabs	rax, offset __llvm_gcov_ctr.49+24
	mov	rcx, qword ptr [rax]
	inc	rcx
	mov	qword ptr [rax], rcx
	movabs	rax, offset .L__profc_atoll+40
	mov	rcx, qword ptr [rax]
	inc	rcx
	mov	qword ptr [rax], rcx
	imul	rax, qword ptr [rbp - 16], 10
	mov	rcx, qword ptr [rbp - 8]
	mov	rdx, rcx
	add	rdx, 1
	mov	qword ptr [rbp - 8], rdx
	movsx	ecx, byte ptr [rcx]
	sub	ecx, 48
	movsxd	rcx, ecx
	sub	rax, rcx
	mov	qword ptr [rbp - 16], rax
	jmp	.LBB49_8
.LBB49_10:
	cmp	dword ptr [rbp - 20], 0
	je	.LBB49_12
# %bb.11:
	movabs	rax, offset __llvm_gcov_ctr.49+32
	mov	rcx, qword ptr [rax]
	inc	rcx
	mov	qword ptr [rax], rcx
	movabs	rax, offset .L__profc_atoll+48
	mov	rcx, qword ptr [rax]
	inc	rcx
	mov	qword ptr [rax], rcx
	mov	rax, qword ptr [rbp - 16]
	mov	qword ptr [rbp - 32], rax       # 8-byte Spill
	jmp	.LBB49_13
.LBB49_12:
	movabs	rax, offset __llvm_gcov_ctr.49+40
	mov	rcx, qword ptr [rax]
	inc	rcx
	mov	qword ptr [rax], rcx
	xor	eax, eax
                                        # kill: def $rax killed $eax
	sub	rax, qword ptr [rbp - 16]
	mov	qword ptr [rbp - 32], rax       # 8-byte Spill
.LBB49_13:
	mov	rax, qword ptr [rbp - 32]       # 8-byte Reload
	add	rsp, 32
	pop	rbp
	.cfi_def_cfa rsp, 8
	fldz
	fldz
	fldz
	fldz
	fldz
	fldz
	fldz
	fldz
	fstp	st(0)
	fstp	st(0)
	fstp	st(0)
	fstp	st(0)
	fstp	st(0)
	fstp	st(0)
	fstp	st(0)
	fstp	st(0)
	xor	ecx, ecx
	xor	edi, edi
	xor	edx, edx
	xor	esi, esi
	xor	r8d, r8d
	xor	r9d, r9d
	xor	r10d, r10d
	xor	r11d, r11d
	pxor	xmm0, xmm0
	pxor	xmm1, xmm1
	pxor	xmm2, xmm2
	pxor	xmm3, xmm3
	pxor	xmm4, xmm4
	pxor	xmm5, xmm5
	pxor	xmm6, xmm6
	pxor	xmm7, xmm7
	pxor	xmm8, xmm8
	pxor	xmm9, xmm9
	pxor	xmm10, xmm10
	pxor	xmm11, xmm11
	pxor	xmm12, xmm12
	pxor	xmm13, xmm13
	pxor	xmm14, xmm14
	pxor	xmm15, xmm15
	ret
	int3
.Lfunc_end49:
	.size	atoll, .Lfunc_end49-atoll
	.cfi_endproc
                                        # -- End function
	.globl	bsearch                         # -- Begin function bsearch
	.p2align	4, 0x90
	.type	bsearch,@function
bsearch:                                # @bsearch
	.cfi_startproc
# %bb.0:
	push	rbp
	.cfi_def_cfa_offset 16
	.cfi_offset rbp, -16
	mov	rbp, rsp
	.cfi_def_cfa_register rbp
	sub	rsp, 64
	mov	qword ptr [rbp - 16], rdi
	mov	qword ptr [rbp - 24], rsi
	mov	qword ptr [rbp - 32], rdx
	mov	qword ptr [rbp - 40], rcx
	mov	qword ptr [rbp - 48], r8
	movabs	rax, offset .L__profc_bsearch
	mov	rcx, qword ptr [rax]
	inc	rcx
	mov	qword ptr [rax], rcx
.LBB50_1:                               # =>This Inner Loop Header: Depth=1
	cmp	qword ptr [rbp - 32], 0
	jbe	.LBB50_9
# %bb.2:                                #   in Loop: Header=BB50_1 Depth=1
	movabs	rax, offset .L__profc_bsearch+8
	mov	rcx, qword ptr [rax]
	inc	rcx
	mov	qword ptr [rax], rcx
	mov	rax, qword ptr [rbp - 24]
	mov	rcx, qword ptr [rbp - 40]
	mov	rdx, qword ptr [rbp - 32]
	shr	rdx
	imul	rcx, rdx
	add	rax, rcx
	mov	qword ptr [rbp - 56], rax
	mov	rax, qword ptr [rbp - 48]
	mov	rdi, qword ptr [rbp - 16]
	mov	rsi, qword ptr [rbp - 56]
	call	rax
	mov	dword ptr [rbp - 60], eax
	cmp	dword ptr [rbp - 60], 0
	jge	.LBB50_4
# %bb.3:                                #   in Loop: Header=BB50_1 Depth=1
	movabs	rax, offset __llvm_gcov_ctr.50+8
	mov	rcx, qword ptr [rax]
	inc	rcx
	mov	qword ptr [rax], rcx
	movabs	rax, offset .L__profc_bsearch+16
	mov	rcx, qword ptr [rax]
	inc	rcx
	mov	qword ptr [rax], rcx
	mov	rax, qword ptr [rbp - 32]
	shr	rax
	mov	qword ptr [rbp - 32], rax
	jmp	.LBB50_8
.LBB50_4:                               #   in Loop: Header=BB50_1 Depth=1
	cmp	dword ptr [rbp - 60], 0
	jle	.LBB50_6
# %bb.5:                                #   in Loop: Header=BB50_1 Depth=1
	movabs	rax, offset .L__profc_bsearch+24
	mov	rcx, qword ptr [rax]
	inc	rcx
	mov	qword ptr [rax], rcx
	mov	rax, qword ptr [rbp - 56]
	add	rax, qword ptr [rbp - 40]
	mov	qword ptr [rbp - 24], rax
	mov	rcx, qword ptr [rbp - 32]
	shr	rcx
	add	rcx, 1
	mov	rax, qword ptr [rbp - 32]
	sub	rax, rcx
	mov	qword ptr [rbp - 32], rax
	jmp	.LBB50_7
.LBB50_6:
	movabs	rax, offset __llvm_gcov_ctr.50+16
	mov	rcx, qword ptr [rax]
	inc	rcx
	mov	qword ptr [rax], rcx
	mov	rax, qword ptr [rbp - 56]
	mov	qword ptr [rbp - 8], rax
	jmp	.LBB50_10
.LBB50_7:                               #   in Loop: Header=BB50_1 Depth=1
	movabs	rax, offset __llvm_gcov_ctr.50+24
	mov	rcx, qword ptr [rax]
	inc	rcx
	mov	qword ptr [rax], rcx
.LBB50_8:                               #   in Loop: Header=BB50_1 Depth=1
	jmp	.LBB50_1
.LBB50_9:
	movabs	rax, offset __llvm_gcov_ctr.50
	mov	rcx, qword ptr [rax]
	inc	rcx
	mov	qword ptr [rax], rcx
	mov	qword ptr [rbp - 8], 0
.LBB50_10:
	mov	rax, qword ptr [rbp - 8]
	add	rsp, 64
	pop	rbp
	.cfi_def_cfa rsp, 8
	fldz
	fldz
	fldz
	fldz
	fldz
	fldz
	fldz
	fldz
	fstp	st(0)
	fstp	st(0)
	fstp	st(0)
	fstp	st(0)
	fstp	st(0)
	fstp	st(0)
	fstp	st(0)
	fstp	st(0)
	xor	ecx, ecx
	xor	edi, edi
	xor	edx, edx
	xor	esi, esi
	xor	r8d, r8d
	xor	r9d, r9d
	xor	r10d, r10d
	xor	r11d, r11d
	pxor	xmm0, xmm0
	pxor	xmm1, xmm1
	pxor	xmm2, xmm2
	pxor	xmm3, xmm3
	pxor	xmm4, xmm4
	pxor	xmm5, xmm5
	pxor	xmm6, xmm6
	pxor	xmm7, xmm7
	pxor	xmm8, xmm8
	pxor	xmm9, xmm9
	pxor	xmm10, xmm10
	pxor	xmm11, xmm11
	pxor	xmm12, xmm12
	pxor	xmm13, xmm13
	pxor	xmm14, xmm14
	pxor	xmm15, xmm15
	ret
	int3
.Lfunc_end50:
	.size	bsearch, .Lfunc_end50-bsearch
	.cfi_endproc
                                        # -- End function
	.globl	bsearch_r                       # -- Begin function bsearch_r
	.p2align	4, 0x90
	.type	bsearch_r,@function
bsearch_r:                              # @bsearch_r
	.cfi_startproc
# %bb.0:
	push	rbp
	.cfi_def_cfa_offset 16
	.cfi_offset rbp, -16
	mov	rbp, rsp
	.cfi_def_cfa_register rbp
	sub	rsp, 80
	mov	qword ptr [rbp - 16], rdi
	mov	qword ptr [rbp - 24], rsi
	mov	qword ptr [rbp - 32], rdx
	mov	qword ptr [rbp - 40], rcx
	mov	qword ptr [rbp - 48], r8
	mov	qword ptr [rbp - 56], r9
	movabs	rax, offset .L__profc_bsearch_r
	mov	rcx, qword ptr [rax]
	inc	rcx
	mov	qword ptr [rax], rcx
	mov	rax, qword ptr [rbp - 24]
	mov	qword ptr [rbp - 64], rax
	mov	rax, qword ptr [rbp - 32]
                                        # kill: def $eax killed $eax killed $rax
	mov	dword ptr [rbp - 68], eax
.LBB51_1:                               # =>This Inner Loop Header: Depth=1
	cmp	dword ptr [rbp - 68], 0
	je	.LBB51_8
# %bb.2:                                #   in Loop: Header=BB51_1 Depth=1
	movabs	rax, offset .L__profc_bsearch_r+8
	mov	rcx, qword ptr [rax]
	inc	rcx
	mov	qword ptr [rax], rcx
	mov	rax, qword ptr [rbp - 64]
	mov	ecx, dword ptr [rbp - 68]
	sar	ecx
	movsxd	rcx, ecx
	imul	rcx, qword ptr [rbp - 40]
	add	rax, rcx
	mov	qword ptr [rbp - 80], rax
	mov	rax, qword ptr [rbp - 48]
	mov	rdi, qword ptr [rbp - 16]
	mov	rsi, qword ptr [rbp - 80]
	mov	rdx, qword ptr [rbp - 56]
	call	rax
	mov	dword ptr [rbp - 72], eax
	cmp	dword ptr [rbp - 72], 0
	jne	.LBB51_4
# %bb.3:
	movabs	rax, offset __llvm_gcov_ctr.51
	mov	rcx, qword ptr [rax]
	inc	rcx
	mov	qword ptr [rax], rcx
	movabs	rax, offset .L__profc_bsearch_r+16
	mov	rcx, qword ptr [rax]
	inc	rcx
	mov	qword ptr [rax], rcx
	mov	rax, qword ptr [rbp - 80]
	mov	qword ptr [rbp - 8], rax
	jmp	.LBB51_9
.LBB51_4:                               #   in Loop: Header=BB51_1 Depth=1
	cmp	dword ptr [rbp - 72], 0
	jle	.LBB51_6
# %bb.5:                                #   in Loop: Header=BB51_1 Depth=1
	movabs	rax, offset __llvm_gcov_ctr.51+8
	mov	rcx, qword ptr [rax]
	inc	rcx
	mov	qword ptr [rax], rcx
	movabs	rax, offset .L__profc_bsearch_r+24
	mov	rcx, qword ptr [rax]
	inc	rcx
	mov	qword ptr [rax], rcx
	mov	rax, qword ptr [rbp - 80]
	add	rax, qword ptr [rbp - 40]
	mov	qword ptr [rbp - 64], rax
	mov	eax, dword ptr [rbp - 68]
	add	eax, -1
	mov	dword ptr [rbp - 68], eax
.LBB51_6:                               #   in Loop: Header=BB51_1 Depth=1
	jmp	.LBB51_7
.LBB51_7:                               #   in Loop: Header=BB51_1 Depth=1
	movabs	rax, offset __llvm_gcov_ctr.51+16
	mov	rcx, qword ptr [rax]
	inc	rcx
	mov	qword ptr [rax], rcx
	mov	eax, dword ptr [rbp - 68]
	sar	eax
	mov	dword ptr [rbp - 68], eax
	jmp	.LBB51_1
.LBB51_8:
	movabs	rax, offset __llvm_gcov_ctr.51+24
	mov	rcx, qword ptr [rax]
	inc	rcx
	mov	qword ptr [rax], rcx
	mov	qword ptr [rbp - 8], 0
.LBB51_9:
	mov	rax, qword ptr [rbp - 8]
	add	rsp, 80
	pop	rbp
	.cfi_def_cfa rsp, 8
	fldz
	fldz
	fldz
	fldz
	fldz
	fldz
	fldz
	fldz
	fstp	st(0)
	fstp	st(0)
	fstp	st(0)
	fstp	st(0)
	fstp	st(0)
	fstp	st(0)
	fstp	st(0)
	fstp	st(0)
	xor	ecx, ecx
	xor	edi, edi
	xor	edx, edx
	xor	esi, esi
	xor	r8d, r8d
	xor	r9d, r9d
	xor	r10d, r10d
	xor	r11d, r11d
	pxor	xmm0, xmm0
	pxor	xmm1, xmm1
	pxor	xmm2, xmm2
	pxor	xmm3, xmm3
	pxor	xmm4, xmm4
	pxor	xmm5, xmm5
	pxor	xmm6, xmm6
	pxor	xmm7, xmm7
	pxor	xmm8, xmm8
	pxor	xmm9, xmm9
	pxor	xmm10, xmm10
	pxor	xmm11, xmm11
	pxor	xmm12, xmm12
	pxor	xmm13, xmm13
	pxor	xmm14, xmm14
	pxor	xmm15, xmm15
	ret
	int3
.Lfunc_end51:
	.size	bsearch_r, .Lfunc_end51-bsearch_r
	.cfi_endproc
                                        # -- End function
	.globl	div                             # -- Begin function div
	.p2align	4, 0x90
	.type	div,@function
div:                                    # @div
	.cfi_startproc
# %bb.0:
	push	rbp
	.cfi_def_cfa_offset 16
	.cfi_offset rbp, -16
	mov	rbp, rsp
	.cfi_def_cfa_register rbp
	movabs	rax, offset __llvm_gcov_ctr.52
	mov	rcx, qword ptr [rax]
	inc	rcx
	mov	qword ptr [rax], rcx
	mov	dword ptr [rbp - 12], edi
	mov	dword ptr [rbp - 16], esi
	movabs	rax, offset .L__profc_div
	mov	rcx, qword ptr [rax]
	inc	rcx
	mov	qword ptr [rax], rcx
	mov	eax, dword ptr [rbp - 12]
	cdq
	idiv	dword ptr [rbp - 16]
	mov	dword ptr [rbp - 8], eax
	mov	eax, dword ptr [rbp - 12]
	cdq
	idiv	dword ptr [rbp - 16]
	mov	dword ptr [rbp - 4], edx
	mov	rax, qword ptr [rbp - 8]
	pop	rbp
	.cfi_def_cfa rsp, 8
	fldz
	fldz
	fldz
	fldz
	fldz
	fldz
	fldz
	fldz
	fstp	st(0)
	fstp	st(0)
	fstp	st(0)
	fstp	st(0)
	fstp	st(0)
	fstp	st(0)
	fstp	st(0)
	fstp	st(0)
	xor	ecx, ecx
	xor	edi, edi
	xor	edx, edx
	xor	esi, esi
	xor	r8d, r8d
	xor	r9d, r9d
	xor	r10d, r10d
	xor	r11d, r11d
	pxor	xmm0, xmm0
	pxor	xmm1, xmm1
	pxor	xmm2, xmm2
	pxor	xmm3, xmm3
	pxor	xmm4, xmm4
	pxor	xmm5, xmm5
	pxor	xmm6, xmm6
	pxor	xmm7, xmm7
	pxor	xmm8, xmm8
	pxor	xmm9, xmm9
	pxor	xmm10, xmm10
	pxor	xmm11, xmm11
	pxor	xmm12, xmm12
	pxor	xmm13, xmm13
	pxor	xmm14, xmm14
	pxor	xmm15, xmm15
	ret
	int3
.Lfunc_end52:
	.size	div, .Lfunc_end52-div
	.cfi_endproc
                                        # -- End function
	.globl	imaxabs                         # -- Begin function imaxabs
	.p2align	4, 0x90
	.type	imaxabs,@function
imaxabs:                                # @imaxabs
	.cfi_startproc
# %bb.0:
	push	rbp
	.cfi_def_cfa_offset 16
	.cfi_offset rbp, -16
	mov	rbp, rsp
	.cfi_def_cfa_register rbp
	mov	qword ptr [rbp - 8], rdi
	movabs	rax, offset .L__profc_imaxabs
	mov	rcx, qword ptr [rax]
	inc	rcx
	mov	qword ptr [rax], rcx
	cmp	qword ptr [rbp - 8], 0
	jle	.LBB53_2
# %bb.1:
	movabs	rax, offset __llvm_gcov_ctr.53
	mov	rcx, qword ptr [rax]
	inc	rcx
	mov	qword ptr [rax], rcx
	movabs	rax, offset .L__profc_imaxabs+8
	mov	rcx, qword ptr [rax]
	inc	rcx
	mov	qword ptr [rax], rcx
	mov	rax, qword ptr [rbp - 8]
	mov	qword ptr [rbp - 16], rax       # 8-byte Spill
	jmp	.LBB53_3
.LBB53_2:
	movabs	rax, offset __llvm_gcov_ctr.53+8
	mov	rcx, qword ptr [rax]
	inc	rcx
	mov	qword ptr [rax], rcx
	xor	eax, eax
                                        # kill: def $rax killed $eax
	sub	rax, qword ptr [rbp - 8]
	mov	qword ptr [rbp - 16], rax       # 8-byte Spill
.LBB53_3:
	mov	rax, qword ptr [rbp - 16]       # 8-byte Reload
	pop	rbp
	.cfi_def_cfa rsp, 8
	fldz
	fldz
	fldz
	fldz
	fldz
	fldz
	fldz
	fldz
	fstp	st(0)
	fstp	st(0)
	fstp	st(0)
	fstp	st(0)
	fstp	st(0)
	fstp	st(0)
	fstp	st(0)
	fstp	st(0)
	xor	ecx, ecx
	xor	edi, edi
	xor	edx, edx
	xor	esi, esi
	xor	r8d, r8d
	xor	r9d, r9d
	xor	r10d, r10d
	xor	r11d, r11d
	pxor	xmm0, xmm0
	pxor	xmm1, xmm1
	pxor	xmm2, xmm2
	pxor	xmm3, xmm3
	pxor	xmm4, xmm4
	pxor	xmm5, xmm5
	pxor	xmm6, xmm6
	pxor	xmm7, xmm7
	pxor	xmm8, xmm8
	pxor	xmm9, xmm9
	pxor	xmm10, xmm10
	pxor	xmm11, xmm11
	pxor	xmm12, xmm12
	pxor	xmm13, xmm13
	pxor	xmm14, xmm14
	pxor	xmm15, xmm15
	ret
	int3
.Lfunc_end53:
	.size	imaxabs, .Lfunc_end53-imaxabs
	.cfi_endproc
                                        # -- End function
	.globl	imaxdiv                         # -- Begin function imaxdiv
	.p2align	4, 0x90
	.type	imaxdiv,@function
imaxdiv:                                # @imaxdiv
	.cfi_startproc
# %bb.0:
	push	rbp
	.cfi_def_cfa_offset 16
	.cfi_offset rbp, -16
	mov	rbp, rsp
	.cfi_def_cfa_register rbp
	movabs	rax, offset __llvm_gcov_ctr.54
	mov	rcx, qword ptr [rax]
	inc	rcx
	mov	qword ptr [rax], rcx
	mov	qword ptr [rbp - 24], rdi
	mov	qword ptr [rbp - 32], rsi
	movabs	rax, offset .L__profc_imaxdiv
	mov	rcx, qword ptr [rax]
	inc	rcx
	mov	qword ptr [rax], rcx
	mov	rax, qword ptr [rbp - 24]
	mov	rcx, qword ptr [rbp - 32]
	cqo
	idiv	rcx
	mov	qword ptr [rbp - 16], rax
	mov	rax, qword ptr [rbp - 24]
	mov	rcx, qword ptr [rbp - 32]
	cqo
	idiv	rcx
	mov	qword ptr [rbp - 8], rdx
	mov	rax, qword ptr [rbp - 16]
	mov	rdx, qword ptr [rbp - 8]
	pop	rbp
	.cfi_def_cfa rsp, 8
	fldz
	fldz
	fldz
	fldz
	fldz
	fldz
	fldz
	fldz
	fstp	st(0)
	fstp	st(0)
	fstp	st(0)
	fstp	st(0)
	fstp	st(0)
	fstp	st(0)
	fstp	st(0)
	fstp	st(0)
	xor	ecx, ecx
	xor	edi, edi
	xor	esi, esi
	xor	r8d, r8d
	xor	r9d, r9d
	xor	r10d, r10d
	xor	r11d, r11d
	pxor	xmm0, xmm0
	pxor	xmm1, xmm1
	pxor	xmm2, xmm2
	pxor	xmm3, xmm3
	pxor	xmm4, xmm4
	pxor	xmm5, xmm5
	pxor	xmm6, xmm6
	pxor	xmm7, xmm7
	pxor	xmm8, xmm8
	pxor	xmm9, xmm9
	pxor	xmm10, xmm10
	pxor	xmm11, xmm11
	pxor	xmm12, xmm12
	pxor	xmm13, xmm13
	pxor	xmm14, xmm14
	pxor	xmm15, xmm15
	ret
	int3
.Lfunc_end54:
	.size	imaxdiv, .Lfunc_end54-imaxdiv
	.cfi_endproc
                                        # -- End function
	.globl	labs                            # -- Begin function labs
	.p2align	4, 0x90
	.type	labs,@function
labs:                                   # @labs
	.cfi_startproc
# %bb.0:
	push	rbp
	.cfi_def_cfa_offset 16
	.cfi_offset rbp, -16
	mov	rbp, rsp
	.cfi_def_cfa_register rbp
	mov	qword ptr [rbp - 8], rdi
	movabs	rax, offset .L__profc_labs
	mov	rcx, qword ptr [rax]
	inc	rcx
	mov	qword ptr [rax], rcx
	cmp	qword ptr [rbp - 8], 0
	jle	.LBB55_2
# %bb.1:
	movabs	rax, offset __llvm_gcov_ctr.55
	mov	rcx, qword ptr [rax]
	inc	rcx
	mov	qword ptr [rax], rcx
	movabs	rax, offset .L__profc_labs+8
	mov	rcx, qword ptr [rax]
	inc	rcx
	mov	qword ptr [rax], rcx
	mov	rax, qword ptr [rbp - 8]
	mov	qword ptr [rbp - 16], rax       # 8-byte Spill
	jmp	.LBB55_3
.LBB55_2:
	movabs	rax, offset __llvm_gcov_ctr.55+8
	mov	rcx, qword ptr [rax]
	inc	rcx
	mov	qword ptr [rax], rcx
	xor	eax, eax
                                        # kill: def $rax killed $eax
	sub	rax, qword ptr [rbp - 8]
	mov	qword ptr [rbp - 16], rax       # 8-byte Spill
.LBB55_3:
	mov	rax, qword ptr [rbp - 16]       # 8-byte Reload
	pop	rbp
	.cfi_def_cfa rsp, 8
	fldz
	fldz
	fldz
	fldz
	fldz
	fldz
	fldz
	fldz
	fstp	st(0)
	fstp	st(0)
	fstp	st(0)
	fstp	st(0)
	fstp	st(0)
	fstp	st(0)
	fstp	st(0)
	fstp	st(0)
	xor	ecx, ecx
	xor	edi, edi
	xor	edx, edx
	xor	esi, esi
	xor	r8d, r8d
	xor	r9d, r9d
	xor	r10d, r10d
	xor	r11d, r11d
	pxor	xmm0, xmm0
	pxor	xmm1, xmm1
	pxor	xmm2, xmm2
	pxor	xmm3, xmm3
	pxor	xmm4, xmm4
	pxor	xmm5, xmm5
	pxor	xmm6, xmm6
	pxor	xmm7, xmm7
	pxor	xmm8, xmm8
	pxor	xmm9, xmm9
	pxor	xmm10, xmm10
	pxor	xmm11, xmm11
	pxor	xmm12, xmm12
	pxor	xmm13, xmm13
	pxor	xmm14, xmm14
	pxor	xmm15, xmm15
	ret
	int3
.Lfunc_end55:
	.size	labs, .Lfunc_end55-labs
	.cfi_endproc
                                        # -- End function
	.globl	ldiv                            # -- Begin function ldiv
	.p2align	4, 0x90
	.type	ldiv,@function
ldiv:                                   # @ldiv
	.cfi_startproc
# %bb.0:
	push	rbp
	.cfi_def_cfa_offset 16
	.cfi_offset rbp, -16
	mov	rbp, rsp
	.cfi_def_cfa_register rbp
	movabs	rax, offset __llvm_gcov_ctr.56
	mov	rcx, qword ptr [rax]
	inc	rcx
	mov	qword ptr [rax], rcx
	mov	qword ptr [rbp - 24], rdi
	mov	qword ptr [rbp - 32], rsi
	movabs	rax, offset .L__profc_ldiv
	mov	rcx, qword ptr [rax]
	inc	rcx
	mov	qword ptr [rax], rcx
	mov	rax, qword ptr [rbp - 24]
	mov	rcx, qword ptr [rbp - 32]
	cqo
	idiv	rcx
	mov	qword ptr [rbp - 16], rax
	mov	rax, qword ptr [rbp - 24]
	mov	rcx, qword ptr [rbp - 32]
	cqo
	idiv	rcx
	mov	qword ptr [rbp - 8], rdx
	mov	rax, qword ptr [rbp - 16]
	mov	rdx, qword ptr [rbp - 8]
	pop	rbp
	.cfi_def_cfa rsp, 8
	fldz
	fldz
	fldz
	fldz
	fldz
	fldz
	fldz
	fldz
	fstp	st(0)
	fstp	st(0)
	fstp	st(0)
	fstp	st(0)
	fstp	st(0)
	fstp	st(0)
	fstp	st(0)
	fstp	st(0)
	xor	ecx, ecx
	xor	edi, edi
	xor	esi, esi
	xor	r8d, r8d
	xor	r9d, r9d
	xor	r10d, r10d
	xor	r11d, r11d
	pxor	xmm0, xmm0
	pxor	xmm1, xmm1
	pxor	xmm2, xmm2
	pxor	xmm3, xmm3
	pxor	xmm4, xmm4
	pxor	xmm5, xmm5
	pxor	xmm6, xmm6
	pxor	xmm7, xmm7
	pxor	xmm8, xmm8
	pxor	xmm9, xmm9
	pxor	xmm10, xmm10
	pxor	xmm11, xmm11
	pxor	xmm12, xmm12
	pxor	xmm13, xmm13
	pxor	xmm14, xmm14
	pxor	xmm15, xmm15
	ret
	int3
.Lfunc_end56:
	.size	ldiv, .Lfunc_end56-ldiv
	.cfi_endproc
                                        # -- End function
	.globl	llabs                           # -- Begin function llabs
	.p2align	4, 0x90
	.type	llabs,@function
llabs:                                  # @llabs
	.cfi_startproc
# %bb.0:
	push	rbp
	.cfi_def_cfa_offset 16
	.cfi_offset rbp, -16
	mov	rbp, rsp
	.cfi_def_cfa_register rbp
	mov	qword ptr [rbp - 8], rdi
	movabs	rax, offset .L__profc_llabs
	mov	rcx, qword ptr [rax]
	inc	rcx
	mov	qword ptr [rax], rcx
	cmp	qword ptr [rbp - 8], 0
	jle	.LBB57_2
# %bb.1:
	movabs	rax, offset __llvm_gcov_ctr.57
	mov	rcx, qword ptr [rax]
	inc	rcx
	mov	qword ptr [rax], rcx
	movabs	rax, offset .L__profc_llabs+8
	mov	rcx, qword ptr [rax]
	inc	rcx
	mov	qword ptr [rax], rcx
	mov	rax, qword ptr [rbp - 8]
	mov	qword ptr [rbp - 16], rax       # 8-byte Spill
	jmp	.LBB57_3
.LBB57_2:
	movabs	rax, offset __llvm_gcov_ctr.57+8
	mov	rcx, qword ptr [rax]
	inc	rcx
	mov	qword ptr [rax], rcx
	xor	eax, eax
                                        # kill: def $rax killed $eax
	sub	rax, qword ptr [rbp - 8]
	mov	qword ptr [rbp - 16], rax       # 8-byte Spill
.LBB57_3:
	mov	rax, qword ptr [rbp - 16]       # 8-byte Reload
	pop	rbp
	.cfi_def_cfa rsp, 8
	fldz
	fldz
	fldz
	fldz
	fldz
	fldz
	fldz
	fldz
	fstp	st(0)
	fstp	st(0)
	fstp	st(0)
	fstp	st(0)
	fstp	st(0)
	fstp	st(0)
	fstp	st(0)
	fstp	st(0)
	xor	ecx, ecx
	xor	edi, edi
	xor	edx, edx
	xor	esi, esi
	xor	r8d, r8d
	xor	r9d, r9d
	xor	r10d, r10d
	xor	r11d, r11d
	pxor	xmm0, xmm0
	pxor	xmm1, xmm1
	pxor	xmm2, xmm2
	pxor	xmm3, xmm3
	pxor	xmm4, xmm4
	pxor	xmm5, xmm5
	pxor	xmm6, xmm6
	pxor	xmm7, xmm7
	pxor	xmm8, xmm8
	pxor	xmm9, xmm9
	pxor	xmm10, xmm10
	pxor	xmm11, xmm11
	pxor	xmm12, xmm12
	pxor	xmm13, xmm13
	pxor	xmm14, xmm14
	pxor	xmm15, xmm15
	ret
	int3
.Lfunc_end57:
	.size	llabs, .Lfunc_end57-llabs
	.cfi_endproc
                                        # -- End function
	.globl	lldiv                           # -- Begin function lldiv
	.p2align	4, 0x90
	.type	lldiv,@function
lldiv:                                  # @lldiv
	.cfi_startproc
# %bb.0:
	push	rbp
	.cfi_def_cfa_offset 16
	.cfi_offset rbp, -16
	mov	rbp, rsp
	.cfi_def_cfa_register rbp
	movabs	rax, offset __llvm_gcov_ctr.58
	mov	rcx, qword ptr [rax]
	inc	rcx
	mov	qword ptr [rax], rcx
	mov	qword ptr [rbp - 24], rdi
	mov	qword ptr [rbp - 32], rsi
	movabs	rax, offset .L__profc_lldiv
	mov	rcx, qword ptr [rax]
	inc	rcx
	mov	qword ptr [rax], rcx
	mov	rax, qword ptr [rbp - 24]
	mov	rcx, qword ptr [rbp - 32]
	cqo
	idiv	rcx
	mov	qword ptr [rbp - 16], rax
	mov	rax, qword ptr [rbp - 24]
	mov	rcx, qword ptr [rbp - 32]
	cqo
	idiv	rcx
	mov	qword ptr [rbp - 8], rdx
	mov	rax, qword ptr [rbp - 16]
	mov	rdx, qword ptr [rbp - 8]
	pop	rbp
	.cfi_def_cfa rsp, 8
	fldz
	fldz
	fldz
	fldz
	fldz
	fldz
	fldz
	fldz
	fstp	st(0)
	fstp	st(0)
	fstp	st(0)
	fstp	st(0)
	fstp	st(0)
	fstp	st(0)
	fstp	st(0)
	fstp	st(0)
	xor	ecx, ecx
	xor	edi, edi
	xor	esi, esi
	xor	r8d, r8d
	xor	r9d, r9d
	xor	r10d, r10d
	xor	r11d, r11d
	pxor	xmm0, xmm0
	pxor	xmm1, xmm1
	pxor	xmm2, xmm2
	pxor	xmm3, xmm3
	pxor	xmm4, xmm4
	pxor	xmm5, xmm5
	pxor	xmm6, xmm6
	pxor	xmm7, xmm7
	pxor	xmm8, xmm8
	pxor	xmm9, xmm9
	pxor	xmm10, xmm10
	pxor	xmm11, xmm11
	pxor	xmm12, xmm12
	pxor	xmm13, xmm13
	pxor	xmm14, xmm14
	pxor	xmm15, xmm15
	ret
	int3
.Lfunc_end58:
	.size	lldiv, .Lfunc_end58-lldiv
	.cfi_endproc
                                        # -- End function
	.globl	wcschr                          # -- Begin function wcschr
	.p2align	4, 0x90
	.type	wcschr,@function
wcschr:                                 # @wcschr
	.cfi_startproc
# %bb.0:
	push	rbp
	.cfi_def_cfa_offset 16
	.cfi_offset rbp, -16
	mov	rbp, rsp
	.cfi_def_cfa_register rbp
	mov	qword ptr [rbp - 8], rdi
	mov	dword ptr [rbp - 12], esi
	movabs	rax, offset .L__profc_wcschr
	mov	rcx, qword ptr [rax]
	inc	rcx
	mov	qword ptr [rax], rcx
.LBB59_1:                               # =>This Inner Loop Header: Depth=1
	mov	rcx, qword ptr [rbp - 8]
	xor	eax, eax
                                        # kill: def $al killed $al killed $eax
	cmp	dword ptr [rcx], 0
	mov	byte ptr [rbp - 13], al         # 1-byte Spill
	je	.LBB59_4
# %bb.2:                                #   in Loop: Header=BB59_1 Depth=1
	movabs	rax, offset __llvm_gcov_ctr.59
	mov	rcx, qword ptr [rax]
	inc	rcx
	mov	qword ptr [rax], rcx
	movabs	rax, offset .L__profc_wcschr+16
	mov	rcx, qword ptr [rax]
	inc	rcx
	mov	qword ptr [rax], rcx
	mov	rax, qword ptr [rbp - 8]
	mov	eax, dword ptr [rax]
	cmp	eax, dword ptr [rbp - 12]
	setne	al
	mov	byte ptr [rbp - 14], al         # 1-byte Spill
	test	al, 1
	mov	byte ptr [rbp - 13], al         # 1-byte Spill
	jne	.LBB59_3
	jmp	.LBB59_4
.LBB59_3:                               #   in Loop: Header=BB59_1 Depth=1
	mov	al, byte ptr [rbp - 14]         # 1-byte Reload
	movabs	rcx, offset __llvm_gcov_ctr.59+8
	mov	rdx, qword ptr [rcx]
	inc	rdx
	mov	qword ptr [rcx], rdx
	movabs	rcx, offset .L__profc_wcschr+24
	mov	rdx, qword ptr [rcx]
	inc	rdx
	mov	qword ptr [rcx], rdx
	mov	byte ptr [rbp - 13], al         # 1-byte Spill
.LBB59_4:                               #   in Loop: Header=BB59_1 Depth=1
	mov	al, byte ptr [rbp - 13]         # 1-byte Reload
	test	al, 1
	jne	.LBB59_5
	jmp	.LBB59_7
.LBB59_5:                               #   in Loop: Header=BB59_1 Depth=1
	movabs	rax, offset .L__profc_wcschr+8
	mov	rcx, qword ptr [rax]
	inc	rcx
	mov	qword ptr [rax], rcx
# %bb.6:                                #   in Loop: Header=BB59_1 Depth=1
	movabs	rax, offset __llvm_gcov_ctr.59+16
	mov	rcx, qword ptr [rax]
	inc	rcx
	mov	qword ptr [rax], rcx
	mov	rax, qword ptr [rbp - 8]
	add	rax, 4
	mov	qword ptr [rbp - 8], rax
	jmp	.LBB59_1
.LBB59_7:
	mov	rax, qword ptr [rbp - 8]
	cmp	dword ptr [rax], 0
	je	.LBB59_9
# %bb.8:
	movabs	rax, offset __llvm_gcov_ctr.59+24
	mov	rcx, qword ptr [rax]
	inc	rcx
	mov	qword ptr [rax], rcx
	movabs	rax, offset .L__profc_wcschr+32
	mov	rcx, qword ptr [rax]
	inc	rcx
	mov	qword ptr [rax], rcx
	mov	rax, qword ptr [rbp - 8]
	mov	qword ptr [rbp - 24], rax       # 8-byte Spill
	jmp	.LBB59_10
.LBB59_9:
	movabs	rax, offset __llvm_gcov_ctr.59+32
	mov	rcx, qword ptr [rax]
	inc	rcx
	mov	qword ptr [rax], rcx
	xor	eax, eax
                                        # kill: def $rax killed $eax
	mov	qword ptr [rbp - 24], rax       # 8-byte Spill
.LBB59_10:
	mov	rax, qword ptr [rbp - 24]       # 8-byte Reload
	pop	rbp
	.cfi_def_cfa rsp, 8
	fldz
	fldz
	fldz
	fldz
	fldz
	fldz
	fldz
	fldz
	fstp	st(0)
	fstp	st(0)
	fstp	st(0)
	fstp	st(0)
	fstp	st(0)
	fstp	st(0)
	fstp	st(0)
	fstp	st(0)
	xor	ecx, ecx
	xor	edi, edi
	xor	edx, edx
	xor	esi, esi
	xor	r8d, r8d
	xor	r9d, r9d
	xor	r10d, r10d
	xor	r11d, r11d
	pxor	xmm0, xmm0
	pxor	xmm1, xmm1
	pxor	xmm2, xmm2
	pxor	xmm3, xmm3
	pxor	xmm4, xmm4
	pxor	xmm5, xmm5
	pxor	xmm6, xmm6
	pxor	xmm7, xmm7
	pxor	xmm8, xmm8
	pxor	xmm9, xmm9
	pxor	xmm10, xmm10
	pxor	xmm11, xmm11
	pxor	xmm12, xmm12
	pxor	xmm13, xmm13
	pxor	xmm14, xmm14
	pxor	xmm15, xmm15
	ret
	int3
.Lfunc_end59:
	.size	wcschr, .Lfunc_end59-wcschr
	.cfi_endproc
                                        # -- End function
	.globl	wcscmp                          # -- Begin function wcscmp
	.p2align	4, 0x90
	.type	wcscmp,@function
wcscmp:                                 # @wcscmp
	.cfi_startproc
# %bb.0:
	push	rbp
	.cfi_def_cfa_offset 16
	.cfi_offset rbp, -16
	mov	rbp, rsp
	.cfi_def_cfa_register rbp
	mov	qword ptr [rbp - 8], rdi
	mov	qword ptr [rbp - 16], rsi
	movabs	rax, offset .L__profc_wcscmp
	mov	rcx, qword ptr [rax]
	inc	rcx
	mov	qword ptr [rax], rcx
.LBB60_1:                               # =>This Inner Loop Header: Depth=1
	mov	rax, qword ptr [rbp - 8]
	mov	ecx, dword ptr [rax]
	mov	rdx, qword ptr [rbp - 16]
	xor	eax, eax
                                        # kill: def $al killed $al killed $eax
	cmp	ecx, dword ptr [rdx]
	mov	byte ptr [rbp - 17], al         # 1-byte Spill
	jne	.LBB60_6
# %bb.2:                                #   in Loop: Header=BB60_1 Depth=1
	movabs	rax, offset __llvm_gcov_ctr.60
	mov	rcx, qword ptr [rax]
	inc	rcx
	mov	qword ptr [rax], rcx
	movabs	rax, offset .L__profc_wcscmp+32
	mov	rcx, qword ptr [rax]
	inc	rcx
	mov	qword ptr [rax], rcx
	mov	rcx, qword ptr [rbp - 8]
	xor	eax, eax
                                        # kill: def $al killed $al killed $eax
	cmp	dword ptr [rcx], 0
	mov	byte ptr [rbp - 17], al         # 1-byte Spill
	je	.LBB60_6
# %bb.3:                                #   in Loop: Header=BB60_1 Depth=1
	movabs	rax, offset __llvm_gcov_ctr.60+8
	mov	rcx, qword ptr [rax]
	inc	rcx
	mov	qword ptr [rax], rcx
	movabs	rax, offset .L__profc_wcscmp+40
	mov	rcx, qword ptr [rax]
	inc	rcx
	mov	qword ptr [rax], rcx
# %bb.4:                                #   in Loop: Header=BB60_1 Depth=1
	movabs	rax, offset .L__profc_wcscmp+16
	mov	rcx, qword ptr [rax]
	inc	rcx
	mov	qword ptr [rax], rcx
	mov	rax, qword ptr [rbp - 16]
	cmp	dword ptr [rax], 0
	setne	al
	mov	byte ptr [rbp - 18], al         # 1-byte Spill
	test	al, 1
	mov	byte ptr [rbp - 17], al         # 1-byte Spill
	jne	.LBB60_5
	jmp	.LBB60_6
.LBB60_5:                               #   in Loop: Header=BB60_1 Depth=1
	mov	al, byte ptr [rbp - 18]         # 1-byte Reload
	movabs	rcx, offset __llvm_gcov_ctr.60+16
	mov	rdx, qword ptr [rcx]
	inc	rdx
	mov	qword ptr [rcx], rdx
	movabs	rcx, offset .L__profc_wcscmp+24
	mov	rdx, qword ptr [rcx]
	inc	rdx
	mov	qword ptr [rcx], rdx
	mov	byte ptr [rbp - 17], al         # 1-byte Spill
.LBB60_6:                               #   in Loop: Header=BB60_1 Depth=1
	mov	al, byte ptr [rbp - 17]         # 1-byte Reload
	test	al, 1
	jne	.LBB60_7
	jmp	.LBB60_9
.LBB60_7:                               #   in Loop: Header=BB60_1 Depth=1
	movabs	rax, offset .L__profc_wcscmp+8
	mov	rcx, qword ptr [rax]
	inc	rcx
	mov	qword ptr [rax], rcx
# %bb.8:                                #   in Loop: Header=BB60_1 Depth=1
	movabs	rax, offset __llvm_gcov_ctr.60+24
	mov	rcx, qword ptr [rax]
	inc	rcx
	mov	qword ptr [rax], rcx
	mov	rax, qword ptr [rbp - 8]
	add	rax, 4
	mov	qword ptr [rbp - 8], rax
	mov	rax, qword ptr [rbp - 16]
	add	rax, 4
	mov	qword ptr [rbp - 16], rax
	jmp	.LBB60_1
.LBB60_9:
	mov	rax, qword ptr [rbp - 8]
	mov	eax, dword ptr [rax]
	mov	rcx, qword ptr [rbp - 16]
	cmp	eax, dword ptr [rcx]
	jge	.LBB60_11
# %bb.10:
	movabs	rax, offset __llvm_gcov_ctr.60+32
	mov	rcx, qword ptr [rax]
	inc	rcx
	mov	qword ptr [rax], rcx
	movabs	rax, offset .L__profc_wcscmp+48
	mov	rcx, qword ptr [rax]
	inc	rcx
	mov	qword ptr [rax], rcx
	mov	eax, 4294967295
	mov	dword ptr [rbp - 24], eax       # 4-byte Spill
	jmp	.LBB60_12
.LBB60_11:
	movabs	rax, offset __llvm_gcov_ctr.60+40
	mov	rcx, qword ptr [rax]
	inc	rcx
	mov	qword ptr [rax], rcx
	mov	rax, qword ptr [rbp - 8]
	mov	eax, dword ptr [rax]
	mov	rcx, qword ptr [rbp - 16]
	cmp	eax, dword ptr [rcx]
	setg	al
	and	al, 1
	movzx	eax, al
	mov	dword ptr [rbp - 24], eax       # 4-byte Spill
.LBB60_12:
	mov	eax, dword ptr [rbp - 24]       # 4-byte Reload
	pop	rbp
	.cfi_def_cfa rsp, 8
	fldz
	fldz
	fldz
	fldz
	fldz
	fldz
	fldz
	fldz
	fstp	st(0)
	fstp	st(0)
	fstp	st(0)
	fstp	st(0)
	fstp	st(0)
	fstp	st(0)
	fstp	st(0)
	fstp	st(0)
	xor	ecx, ecx
	xor	edi, edi
	xor	edx, edx
	xor	esi, esi
	xor	r8d, r8d
	xor	r9d, r9d
	xor	r10d, r10d
	xor	r11d, r11d
	pxor	xmm0, xmm0
	pxor	xmm1, xmm1
	pxor	xmm2, xmm2
	pxor	xmm3, xmm3
	pxor	xmm4, xmm4
	pxor	xmm5, xmm5
	pxor	xmm6, xmm6
	pxor	xmm7, xmm7
	pxor	xmm8, xmm8
	pxor	xmm9, xmm9
	pxor	xmm10, xmm10
	pxor	xmm11, xmm11
	pxor	xmm12, xmm12
	pxor	xmm13, xmm13
	pxor	xmm14, xmm14
	pxor	xmm15, xmm15
	ret
	int3
.Lfunc_end60:
	.size	wcscmp, .Lfunc_end60-wcscmp
	.cfi_endproc
                                        # -- End function
	.globl	wcscpy                          # -- Begin function wcscpy
	.p2align	4, 0x90
	.type	wcscpy,@function
wcscpy:                                 # @wcscpy
	.cfi_startproc
# %bb.0:
	push	rbp
	.cfi_def_cfa_offset 16
	.cfi_offset rbp, -16
	mov	rbp, rsp
	.cfi_def_cfa_register rbp
	movabs	rax, offset __llvm_gcov_ctr.61
	mov	rcx, qword ptr [rax]
	inc	rcx
	mov	qword ptr [rax], rcx
	mov	qword ptr [rbp - 8], rdi
	mov	qword ptr [rbp - 16], rsi
	movabs	rax, offset .L__profc_wcscpy
	mov	rcx, qword ptr [rax]
	inc	rcx
	mov	qword ptr [rax], rcx
	mov	rax, qword ptr [rbp - 8]
	mov	qword ptr [rbp - 24], rax
.LBB61_1:                               # =>This Inner Loop Header: Depth=1
	mov	rax, qword ptr [rbp - 16]
	mov	rcx, rax
	add	rcx, 4
	mov	qword ptr [rbp - 16], rcx
	mov	eax, dword ptr [rax]
	mov	rcx, qword ptr [rbp - 8]
	mov	rdx, rcx
	add	rdx, 4
	mov	qword ptr [rbp - 8], rdx
	mov	dword ptr [rcx], eax
	cmp	eax, 0
	je	.LBB61_3
# %bb.2:                                #   in Loop: Header=BB61_1 Depth=1
	movabs	rax, offset __llvm_gcov_ctr.61+8
	mov	rcx, qword ptr [rax]
	inc	rcx
	mov	qword ptr [rax], rcx
	movabs	rax, offset .L__profc_wcscpy+8
	mov	rcx, qword ptr [rax]
	inc	rcx
	mov	qword ptr [rax], rcx
	jmp	.LBB61_1
.LBB61_3:
	mov	rax, qword ptr [rbp - 24]
	pop	rbp
	.cfi_def_cfa rsp, 8
	fldz
	fldz
	fldz
	fldz
	fldz
	fldz
	fldz
	fldz
	fstp	st(0)
	fstp	st(0)
	fstp	st(0)
	fstp	st(0)
	fstp	st(0)
	fstp	st(0)
	fstp	st(0)
	fstp	st(0)
	xor	ecx, ecx
	xor	edi, edi
	xor	edx, edx
	xor	esi, esi
	xor	r8d, r8d
	xor	r9d, r9d
	xor	r10d, r10d
	xor	r11d, r11d
	pxor	xmm0, xmm0
	pxor	xmm1, xmm1
	pxor	xmm2, xmm2
	pxor	xmm3, xmm3
	pxor	xmm4, xmm4
	pxor	xmm5, xmm5
	pxor	xmm6, xmm6
	pxor	xmm7, xmm7
	pxor	xmm8, xmm8
	pxor	xmm9, xmm9
	pxor	xmm10, xmm10
	pxor	xmm11, xmm11
	pxor	xmm12, xmm12
	pxor	xmm13, xmm13
	pxor	xmm14, xmm14
	pxor	xmm15, xmm15
	ret
	int3
.Lfunc_end61:
	.size	wcscpy, .Lfunc_end61-wcscpy
	.cfi_endproc
                                        # -- End function
	.globl	wcslen                          # -- Begin function wcslen
	.p2align	4, 0x90
	.type	wcslen,@function
wcslen:                                 # @wcslen
	.cfi_startproc
# %bb.0:
	push	rbp
	.cfi_def_cfa_offset 16
	.cfi_offset rbp, -16
	mov	rbp, rsp
	.cfi_def_cfa_register rbp
	movabs	rax, offset __llvm_gcov_ctr.62
	mov	rcx, qword ptr [rax]
	inc	rcx
	mov	qword ptr [rax], rcx
	mov	qword ptr [rbp - 8], rdi
	movabs	rax, offset .L__profc_wcslen
	mov	rcx, qword ptr [rax]
	inc	rcx
	mov	qword ptr [rax], rcx
	mov	rax, qword ptr [rbp - 8]
	mov	qword ptr [rbp - 16], rax
.LBB62_1:                               # =>This Inner Loop Header: Depth=1
	mov	rax, qword ptr [rbp - 8]
	cmp	dword ptr [rax], 0
	je	.LBB62_4
# %bb.2:                                #   in Loop: Header=BB62_1 Depth=1
	movabs	rax, offset .L__profc_wcslen+8
	mov	rcx, qword ptr [rax]
	inc	rcx
	mov	qword ptr [rax], rcx
# %bb.3:                                #   in Loop: Header=BB62_1 Depth=1
	movabs	rax, offset __llvm_gcov_ctr.62+8
	mov	rcx, qword ptr [rax]
	inc	rcx
	mov	qword ptr [rax], rcx
	mov	rax, qword ptr [rbp - 8]
	add	rax, 4
	mov	qword ptr [rbp - 8], rax
	jmp	.LBB62_1
.LBB62_4:
	mov	rax, qword ptr [rbp - 8]
	mov	rcx, qword ptr [rbp - 16]
	sub	rax, rcx
	sar	rax, 2
	pop	rbp
	.cfi_def_cfa rsp, 8
	fldz
	fldz
	fldz
	fldz
	fldz
	fldz
	fldz
	fldz
	fstp	st(0)
	fstp	st(0)
	fstp	st(0)
	fstp	st(0)
	fstp	st(0)
	fstp	st(0)
	fstp	st(0)
	fstp	st(0)
	xor	ecx, ecx
	xor	edi, edi
	xor	edx, edx
	xor	esi, esi
	xor	r8d, r8d
	xor	r9d, r9d
	xor	r10d, r10d
	xor	r11d, r11d
	pxor	xmm0, xmm0
	pxor	xmm1, xmm1
	pxor	xmm2, xmm2
	pxor	xmm3, xmm3
	pxor	xmm4, xmm4
	pxor	xmm5, xmm5
	pxor	xmm6, xmm6
	pxor	xmm7, xmm7
	pxor	xmm8, xmm8
	pxor	xmm9, xmm9
	pxor	xmm10, xmm10
	pxor	xmm11, xmm11
	pxor	xmm12, xmm12
	pxor	xmm13, xmm13
	pxor	xmm14, xmm14
	pxor	xmm15, xmm15
	ret
	int3
.Lfunc_end62:
	.size	wcslen, .Lfunc_end62-wcslen
	.cfi_endproc
                                        # -- End function
	.globl	wcsncmp                         # -- Begin function wcsncmp
	.p2align	4, 0x90
	.type	wcsncmp,@function
wcsncmp:                                # @wcsncmp
	.cfi_startproc
# %bb.0:
	push	rbp
	.cfi_def_cfa_offset 16
	.cfi_offset rbp, -16
	mov	rbp, rsp
	.cfi_def_cfa_register rbp
	mov	qword ptr [rbp - 8], rdi
	mov	qword ptr [rbp - 16], rsi
	mov	qword ptr [rbp - 24], rdx
	movabs	rax, offset .L__profc_wcsncmp
	mov	rcx, qword ptr [rax]
	inc	rcx
	mov	qword ptr [rax], rcx
.LBB63_1:                               # =>This Inner Loop Header: Depth=1
	xor	eax, eax
                                        # kill: def $al killed $al killed $eax
	cmp	qword ptr [rbp - 24], 0
	mov	byte ptr [rbp - 25], al         # 1-byte Spill
	je	.LBB63_8
# %bb.2:                                #   in Loop: Header=BB63_1 Depth=1
	movabs	rax, offset __llvm_gcov_ctr.63
	mov	rcx, qword ptr [rax]
	inc	rcx
	mov	qword ptr [rax], rcx
	movabs	rax, offset .L__profc_wcsncmp+48
	mov	rcx, qword ptr [rax]
	inc	rcx
	mov	qword ptr [rax], rcx
	mov	rax, qword ptr [rbp - 8]
	mov	ecx, dword ptr [rax]
	mov	rdx, qword ptr [rbp - 16]
	xor	eax, eax
                                        # kill: def $al killed $al killed $eax
	cmp	ecx, dword ptr [rdx]
	mov	byte ptr [rbp - 25], al         # 1-byte Spill
	jne	.LBB63_8
# %bb.3:                                #   in Loop: Header=BB63_1 Depth=1
	movabs	rax, offset __llvm_gcov_ctr.63+8
	mov	rcx, qword ptr [rax]
	inc	rcx
	mov	qword ptr [rax], rcx
	movabs	rax, offset .L__profc_wcsncmp+56
	mov	rcx, qword ptr [rax]
	inc	rcx
	mov	qword ptr [rax], rcx
# %bb.4:                                #   in Loop: Header=BB63_1 Depth=1
	movabs	rax, offset .L__profc_wcsncmp+32
	mov	rcx, qword ptr [rax]
	inc	rcx
	mov	qword ptr [rax], rcx
	mov	rcx, qword ptr [rbp - 8]
	xor	eax, eax
                                        # kill: def $al killed $al killed $eax
	cmp	dword ptr [rcx], 0
	mov	byte ptr [rbp - 25], al         # 1-byte Spill
	je	.LBB63_8
# %bb.5:                                #   in Loop: Header=BB63_1 Depth=1
	movabs	rax, offset __llvm_gcov_ctr.63+16
	mov	rcx, qword ptr [rax]
	inc	rcx
	mov	qword ptr [rax], rcx
	movabs	rax, offset .L__profc_wcsncmp+40
	mov	rcx, qword ptr [rax]
	inc	rcx
	mov	qword ptr [rax], rcx
# %bb.6:                                #   in Loop: Header=BB63_1 Depth=1
	movabs	rax, offset .L__profc_wcsncmp+16
	mov	rcx, qword ptr [rax]
	inc	rcx
	mov	qword ptr [rax], rcx
	mov	rax, qword ptr [rbp - 16]
	cmp	dword ptr [rax], 0
	setne	al
	mov	byte ptr [rbp - 26], al         # 1-byte Spill
	test	al, 1
	mov	byte ptr [rbp - 25], al         # 1-byte Spill
	jne	.LBB63_7
	jmp	.LBB63_8
.LBB63_7:                               #   in Loop: Header=BB63_1 Depth=1
	mov	al, byte ptr [rbp - 26]         # 1-byte Reload
	movabs	rcx, offset __llvm_gcov_ctr.63+24
	mov	rdx, qword ptr [rcx]
	inc	rdx
	mov	qword ptr [rcx], rdx
	movabs	rcx, offset .L__profc_wcsncmp+24
	mov	rdx, qword ptr [rcx]
	inc	rdx
	mov	qword ptr [rcx], rdx
	mov	byte ptr [rbp - 25], al         # 1-byte Spill
.LBB63_8:                               #   in Loop: Header=BB63_1 Depth=1
	mov	al, byte ptr [rbp - 25]         # 1-byte Reload
	test	al, 1
	jne	.LBB63_9
	jmp	.LBB63_11
.LBB63_9:                               #   in Loop: Header=BB63_1 Depth=1
	movabs	rax, offset .L__profc_wcsncmp+8
	mov	rcx, qword ptr [rax]
	inc	rcx
	mov	qword ptr [rax], rcx
# %bb.10:                               #   in Loop: Header=BB63_1 Depth=1
	movabs	rax, offset __llvm_gcov_ctr.63+32
	mov	rcx, qword ptr [rax]
	inc	rcx
	mov	qword ptr [rax], rcx
	mov	rax, qword ptr [rbp - 24]
	add	rax, -1
	mov	qword ptr [rbp - 24], rax
	mov	rax, qword ptr [rbp - 8]
	add	rax, 4
	mov	qword ptr [rbp - 8], rax
	mov	rax, qword ptr [rbp - 16]
	add	rax, 4
	mov	qword ptr [rbp - 16], rax
	jmp	.LBB63_1
.LBB63_11:
	cmp	qword ptr [rbp - 24], 0
	je	.LBB63_16
# %bb.12:
	movabs	rax, offset .L__profc_wcsncmp+64
	mov	rcx, qword ptr [rax]
	inc	rcx
	mov	qword ptr [rax], rcx
	mov	rax, qword ptr [rbp - 8]
	mov	eax, dword ptr [rax]
	mov	rcx, qword ptr [rbp - 16]
	cmp	eax, dword ptr [rcx]
	jge	.LBB63_14
# %bb.13:
	movabs	rax, offset __llvm_gcov_ctr.63+40
	mov	rcx, qword ptr [rax]
	inc	rcx
	mov	qword ptr [rax], rcx
	movabs	rax, offset .L__profc_wcsncmp+72
	mov	rcx, qword ptr [rax]
	inc	rcx
	mov	qword ptr [rax], rcx
	mov	eax, 4294967295
	mov	dword ptr [rbp - 32], eax       # 4-byte Spill
	jmp	.LBB63_15
.LBB63_14:
	movabs	rax, offset __llvm_gcov_ctr.63+48
	mov	rcx, qword ptr [rax]
	inc	rcx
	mov	qword ptr [rax], rcx
	mov	rax, qword ptr [rbp - 8]
	mov	eax, dword ptr [rax]
	mov	rcx, qword ptr [rbp - 16]
	cmp	eax, dword ptr [rcx]
	setg	al
	and	al, 1
	movzx	eax, al
	mov	dword ptr [rbp - 32], eax       # 4-byte Spill
.LBB63_15:
	mov	eax, dword ptr [rbp - 32]       # 4-byte Reload
	mov	dword ptr [rbp - 36], eax       # 4-byte Spill
	jmp	.LBB63_17
.LBB63_16:
	movabs	rax, offset __llvm_gcov_ctr.63+56
	mov	rcx, qword ptr [rax]
	inc	rcx
	mov	qword ptr [rax], rcx
	xor	eax, eax
	mov	dword ptr [rbp - 36], eax       # 4-byte Spill
.LBB63_17:
	mov	eax, dword ptr [rbp - 36]       # 4-byte Reload
	pop	rbp
	.cfi_def_cfa rsp, 8
	fldz
	fldz
	fldz
	fldz
	fldz
	fldz
	fldz
	fldz
	fstp	st(0)
	fstp	st(0)
	fstp	st(0)
	fstp	st(0)
	fstp	st(0)
	fstp	st(0)
	fstp	st(0)
	fstp	st(0)
	xor	ecx, ecx
	xor	edi, edi
	xor	edx, edx
	xor	esi, esi
	xor	r8d, r8d
	xor	r9d, r9d
	xor	r10d, r10d
	xor	r11d, r11d
	pxor	xmm0, xmm0
	pxor	xmm1, xmm1
	pxor	xmm2, xmm2
	pxor	xmm3, xmm3
	pxor	xmm4, xmm4
	pxor	xmm5, xmm5
	pxor	xmm6, xmm6
	pxor	xmm7, xmm7
	pxor	xmm8, xmm8
	pxor	xmm9, xmm9
	pxor	xmm10, xmm10
	pxor	xmm11, xmm11
	pxor	xmm12, xmm12
	pxor	xmm13, xmm13
	pxor	xmm14, xmm14
	pxor	xmm15, xmm15
	ret
	int3
.Lfunc_end63:
	.size	wcsncmp, .Lfunc_end63-wcsncmp
	.cfi_endproc
                                        # -- End function
	.globl	wmemchr                         # -- Begin function wmemchr
	.p2align	4, 0x90
	.type	wmemchr,@function
wmemchr:                                # @wmemchr
	.cfi_startproc
# %bb.0:
	push	rbp
	.cfi_def_cfa_offset 16
	.cfi_offset rbp, -16
	mov	rbp, rsp
	.cfi_def_cfa_register rbp
	mov	qword ptr [rbp - 8], rdi
	mov	dword ptr [rbp - 12], esi
	mov	qword ptr [rbp - 24], rdx
	movabs	rax, offset .L__profc_wmemchr
	mov	rcx, qword ptr [rax]
	inc	rcx
	mov	qword ptr [rax], rcx
.LBB64_1:                               # =>This Inner Loop Header: Depth=1
	xor	eax, eax
                                        # kill: def $al killed $al killed $eax
	cmp	qword ptr [rbp - 24], 0
	mov	byte ptr [rbp - 25], al         # 1-byte Spill
	je	.LBB64_4
# %bb.2:                                #   in Loop: Header=BB64_1 Depth=1
	movabs	rax, offset __llvm_gcov_ctr.64
	mov	rcx, qword ptr [rax]
	inc	rcx
	mov	qword ptr [rax], rcx
	movabs	rax, offset .L__profc_wmemchr+16
	mov	rcx, qword ptr [rax]
	inc	rcx
	mov	qword ptr [rax], rcx
	mov	rax, qword ptr [rbp - 8]
	mov	eax, dword ptr [rax]
	cmp	eax, dword ptr [rbp - 12]
	setne	al
	mov	byte ptr [rbp - 26], al         # 1-byte Spill
	test	al, 1
	mov	byte ptr [rbp - 25], al         # 1-byte Spill
	jne	.LBB64_3
	jmp	.LBB64_4
.LBB64_3:                               #   in Loop: Header=BB64_1 Depth=1
	mov	al, byte ptr [rbp - 26]         # 1-byte Reload
	movabs	rcx, offset __llvm_gcov_ctr.64+8
	mov	rdx, qword ptr [rcx]
	inc	rdx
	mov	qword ptr [rcx], rdx
	movabs	rcx, offset .L__profc_wmemchr+24
	mov	rdx, qword ptr [rcx]
	inc	rdx
	mov	qword ptr [rcx], rdx
	mov	byte ptr [rbp - 25], al         # 1-byte Spill
.LBB64_4:                               #   in Loop: Header=BB64_1 Depth=1
	mov	al, byte ptr [rbp - 25]         # 1-byte Reload
	test	al, 1
	jne	.LBB64_5
	jmp	.LBB64_7
.LBB64_5:                               #   in Loop: Header=BB64_1 Depth=1
	movabs	rax, offset .L__profc_wmemchr+8
	mov	rcx, qword ptr [rax]
	inc	rcx
	mov	qword ptr [rax], rcx
# %bb.6:                                #   in Loop: Header=BB64_1 Depth=1
	movabs	rax, offset __llvm_gcov_ctr.64+16
	mov	rcx, qword ptr [rax]
	inc	rcx
	mov	qword ptr [rax], rcx
	mov	rax, qword ptr [rbp - 24]
	add	rax, -1
	mov	qword ptr [rbp - 24], rax
	mov	rax, qword ptr [rbp - 8]
	add	rax, 4
	mov	qword ptr [rbp - 8], rax
	jmp	.LBB64_1
.LBB64_7:
	cmp	qword ptr [rbp - 24], 0
	je	.LBB64_9
# %bb.8:
	movabs	rax, offset __llvm_gcov_ctr.64+24
	mov	rcx, qword ptr [rax]
	inc	rcx
	mov	qword ptr [rax], rcx
	movabs	rax, offset .L__profc_wmemchr+32
	mov	rcx, qword ptr [rax]
	inc	rcx
	mov	qword ptr [rax], rcx
	mov	rax, qword ptr [rbp - 8]
	mov	qword ptr [rbp - 40], rax       # 8-byte Spill
	jmp	.LBB64_10
.LBB64_9:
	movabs	rax, offset __llvm_gcov_ctr.64+32
	mov	rcx, qword ptr [rax]
	inc	rcx
	mov	qword ptr [rax], rcx
	xor	eax, eax
                                        # kill: def $rax killed $eax
	mov	qword ptr [rbp - 40], rax       # 8-byte Spill
.LBB64_10:
	mov	rax, qword ptr [rbp - 40]       # 8-byte Reload
	pop	rbp
	.cfi_def_cfa rsp, 8
	fldz
	fldz
	fldz
	fldz
	fldz
	fldz
	fldz
	fldz
	fstp	st(0)
	fstp	st(0)
	fstp	st(0)
	fstp	st(0)
	fstp	st(0)
	fstp	st(0)
	fstp	st(0)
	fstp	st(0)
	xor	ecx, ecx
	xor	edi, edi
	xor	edx, edx
	xor	esi, esi
	xor	r8d, r8d
	xor	r9d, r9d
	xor	r10d, r10d
	xor	r11d, r11d
	pxor	xmm0, xmm0
	pxor	xmm1, xmm1
	pxor	xmm2, xmm2
	pxor	xmm3, xmm3
	pxor	xmm4, xmm4
	pxor	xmm5, xmm5
	pxor	xmm6, xmm6
	pxor	xmm7, xmm7
	pxor	xmm8, xmm8
	pxor	xmm9, xmm9
	pxor	xmm10, xmm10
	pxor	xmm11, xmm11
	pxor	xmm12, xmm12
	pxor	xmm13, xmm13
	pxor	xmm14, xmm14
	pxor	xmm15, xmm15
	ret
	int3
.Lfunc_end64:
	.size	wmemchr, .Lfunc_end64-wmemchr
	.cfi_endproc
                                        # -- End function
	.globl	wmemcmp                         # -- Begin function wmemcmp
	.p2align	4, 0x90
	.type	wmemcmp,@function
wmemcmp:                                # @wmemcmp
	.cfi_startproc
# %bb.0:
	push	rbp
	.cfi_def_cfa_offset 16
	.cfi_offset rbp, -16
	mov	rbp, rsp
	.cfi_def_cfa_register rbp
	mov	qword ptr [rbp - 8], rdi
	mov	qword ptr [rbp - 16], rsi
	mov	qword ptr [rbp - 24], rdx
	movabs	rax, offset .L__profc_wmemcmp
	mov	rcx, qword ptr [rax]
	inc	rcx
	mov	qword ptr [rax], rcx
.LBB65_1:                               # =>This Inner Loop Header: Depth=1
	xor	eax, eax
                                        # kill: def $al killed $al killed $eax
	cmp	qword ptr [rbp - 24], 0
	mov	byte ptr [rbp - 25], al         # 1-byte Spill
	je	.LBB65_4
# %bb.2:                                #   in Loop: Header=BB65_1 Depth=1
	movabs	rax, offset __llvm_gcov_ctr.65
	mov	rcx, qword ptr [rax]
	inc	rcx
	mov	qword ptr [rax], rcx
	movabs	rax, offset .L__profc_wmemcmp+16
	mov	rcx, qword ptr [rax]
	inc	rcx
	mov	qword ptr [rax], rcx
	mov	rax, qword ptr [rbp - 8]
	mov	eax, dword ptr [rax]
	mov	rcx, qword ptr [rbp - 16]
	cmp	eax, dword ptr [rcx]
	sete	al
	mov	byte ptr [rbp - 26], al         # 1-byte Spill
	test	al, 1
	mov	byte ptr [rbp - 25], al         # 1-byte Spill
	jne	.LBB65_3
	jmp	.LBB65_4
.LBB65_3:                               #   in Loop: Header=BB65_1 Depth=1
	mov	al, byte ptr [rbp - 26]         # 1-byte Reload
	movabs	rcx, offset __llvm_gcov_ctr.65+8
	mov	rdx, qword ptr [rcx]
	inc	rdx
	mov	qword ptr [rcx], rdx
	movabs	rcx, offset .L__profc_wmemcmp+24
	mov	rdx, qword ptr [rcx]
	inc	rdx
	mov	qword ptr [rcx], rdx
	mov	byte ptr [rbp - 25], al         # 1-byte Spill
.LBB65_4:                               #   in Loop: Header=BB65_1 Depth=1
	mov	al, byte ptr [rbp - 25]         # 1-byte Reload
	test	al, 1
	jne	.LBB65_5
	jmp	.LBB65_7
.LBB65_5:                               #   in Loop: Header=BB65_1 Depth=1
	movabs	rax, offset .L__profc_wmemcmp+8
	mov	rcx, qword ptr [rax]
	inc	rcx
	mov	qword ptr [rax], rcx
# %bb.6:                                #   in Loop: Header=BB65_1 Depth=1
	movabs	rax, offset __llvm_gcov_ctr.65+16
	mov	rcx, qword ptr [rax]
	inc	rcx
	mov	qword ptr [rax], rcx
	mov	rax, qword ptr [rbp - 24]
	add	rax, -1
	mov	qword ptr [rbp - 24], rax
	mov	rax, qword ptr [rbp - 8]
	add	rax, 4
	mov	qword ptr [rbp - 8], rax
	mov	rax, qword ptr [rbp - 16]
	add	rax, 4
	mov	qword ptr [rbp - 16], rax
	jmp	.LBB65_1
.LBB65_7:
	cmp	qword ptr [rbp - 24], 0
	je	.LBB65_12
# %bb.8:
	movabs	rax, offset .L__profc_wmemcmp+32
	mov	rcx, qword ptr [rax]
	inc	rcx
	mov	qword ptr [rax], rcx
	mov	rax, qword ptr [rbp - 8]
	mov	eax, dword ptr [rax]
	mov	rcx, qword ptr [rbp - 16]
	cmp	eax, dword ptr [rcx]
	jge	.LBB65_10
# %bb.9:
	movabs	rax, offset __llvm_gcov_ctr.65+24
	mov	rcx, qword ptr [rax]
	inc	rcx
	mov	qword ptr [rax], rcx
	movabs	rax, offset .L__profc_wmemcmp+40
	mov	rcx, qword ptr [rax]
	inc	rcx
	mov	qword ptr [rax], rcx
	mov	eax, 4294967295
	mov	dword ptr [rbp - 32], eax       # 4-byte Spill
	jmp	.LBB65_11
.LBB65_10:
	movabs	rax, offset __llvm_gcov_ctr.65+32
	mov	rcx, qword ptr [rax]
	inc	rcx
	mov	qword ptr [rax], rcx
	mov	rax, qword ptr [rbp - 8]
	mov	eax, dword ptr [rax]
	mov	rcx, qword ptr [rbp - 16]
	cmp	eax, dword ptr [rcx]
	setg	al
	and	al, 1
	movzx	eax, al
	mov	dword ptr [rbp - 32], eax       # 4-byte Spill
.LBB65_11:
	mov	eax, dword ptr [rbp - 32]       # 4-byte Reload
	mov	dword ptr [rbp - 36], eax       # 4-byte Spill
	jmp	.LBB65_13
.LBB65_12:
	movabs	rax, offset __llvm_gcov_ctr.65+40
	mov	rcx, qword ptr [rax]
	inc	rcx
	mov	qword ptr [rax], rcx
	xor	eax, eax
	mov	dword ptr [rbp - 36], eax       # 4-byte Spill
.LBB65_13:
	mov	eax, dword ptr [rbp - 36]       # 4-byte Reload
	pop	rbp
	.cfi_def_cfa rsp, 8
	fldz
	fldz
	fldz
	fldz
	fldz
	fldz
	fldz
	fldz
	fstp	st(0)
	fstp	st(0)
	fstp	st(0)
	fstp	st(0)
	fstp	st(0)
	fstp	st(0)
	fstp	st(0)
	fstp	st(0)
	xor	ecx, ecx
	xor	edi, edi
	xor	edx, edx
	xor	esi, esi
	xor	r8d, r8d
	xor	r9d, r9d
	xor	r10d, r10d
	xor	r11d, r11d
	pxor	xmm0, xmm0
	pxor	xmm1, xmm1
	pxor	xmm2, xmm2
	pxor	xmm3, xmm3
	pxor	xmm4, xmm4
	pxor	xmm5, xmm5
	pxor	xmm6, xmm6
	pxor	xmm7, xmm7
	pxor	xmm8, xmm8
	pxor	xmm9, xmm9
	pxor	xmm10, xmm10
	pxor	xmm11, xmm11
	pxor	xmm12, xmm12
	pxor	xmm13, xmm13
	pxor	xmm14, xmm14
	pxor	xmm15, xmm15
	ret
	int3
.Lfunc_end65:
	.size	wmemcmp, .Lfunc_end65-wmemcmp
	.cfi_endproc
                                        # -- End function
	.globl	wmemcpy                         # -- Begin function wmemcpy
	.p2align	4, 0x90
	.type	wmemcpy,@function
wmemcpy:                                # @wmemcpy
	.cfi_startproc
# %bb.0:
	push	rbp
	.cfi_def_cfa_offset 16
	.cfi_offset rbp, -16
	mov	rbp, rsp
	.cfi_def_cfa_register rbp
	movabs	rax, offset __llvm_gcov_ctr.66
	mov	rcx, qword ptr [rax]
	inc	rcx
	mov	qword ptr [rax], rcx
	mov	qword ptr [rbp - 8], rdi
	mov	qword ptr [rbp - 16], rsi
	mov	qword ptr [rbp - 24], rdx
	movabs	rax, offset .L__profc_wmemcpy
	mov	rcx, qword ptr [rax]
	inc	rcx
	mov	qword ptr [rax], rcx
	mov	rax, qword ptr [rbp - 8]
	mov	qword ptr [rbp - 32], rax
.LBB66_1:                               # =>This Inner Loop Header: Depth=1
	mov	rax, qword ptr [rbp - 24]
	mov	rcx, rax
	add	rcx, -1
	mov	qword ptr [rbp - 24], rcx
	cmp	rax, 0
	je	.LBB66_3
# %bb.2:                                #   in Loop: Header=BB66_1 Depth=1
	movabs	rax, offset __llvm_gcov_ctr.66+8
	mov	rcx, qword ptr [rax]
	inc	rcx
	mov	qword ptr [rax], rcx
	movabs	rax, offset .L__profc_wmemcpy+8
	mov	rcx, qword ptr [rax]
	inc	rcx
	mov	qword ptr [rax], rcx
	mov	rax, qword ptr [rbp - 16]
	mov	rcx, rax
	add	rcx, 4
	mov	qword ptr [rbp - 16], rcx
	mov	ecx, dword ptr [rax]
	mov	rax, qword ptr [rbp - 8]
	mov	rdx, rax
	add	rdx, 4
	mov	qword ptr [rbp - 8], rdx
	mov	dword ptr [rax], ecx
	jmp	.LBB66_1
.LBB66_3:
	mov	rax, qword ptr [rbp - 32]
	pop	rbp
	.cfi_def_cfa rsp, 8
	fldz
	fldz
	fldz
	fldz
	fldz
	fldz
	fldz
	fldz
	fstp	st(0)
	fstp	st(0)
	fstp	st(0)
	fstp	st(0)
	fstp	st(0)
	fstp	st(0)
	fstp	st(0)
	fstp	st(0)
	xor	ecx, ecx
	xor	edi, edi
	xor	edx, edx
	xor	esi, esi
	xor	r8d, r8d
	xor	r9d, r9d
	xor	r10d, r10d
	xor	r11d, r11d
	pxor	xmm0, xmm0
	pxor	xmm1, xmm1
	pxor	xmm2, xmm2
	pxor	xmm3, xmm3
	pxor	xmm4, xmm4
	pxor	xmm5, xmm5
	pxor	xmm6, xmm6
	pxor	xmm7, xmm7
	pxor	xmm8, xmm8
	pxor	xmm9, xmm9
	pxor	xmm10, xmm10
	pxor	xmm11, xmm11
	pxor	xmm12, xmm12
	pxor	xmm13, xmm13
	pxor	xmm14, xmm14
	pxor	xmm15, xmm15
	ret
	int3
.Lfunc_end66:
	.size	wmemcpy, .Lfunc_end66-wmemcpy
	.cfi_endproc
                                        # -- End function
	.globl	wmemmove                        # -- Begin function wmemmove
	.p2align	4, 0x90
	.type	wmemmove,@function
wmemmove:                               # @wmemmove
	.cfi_startproc
# %bb.0:
	push	rbp
	.cfi_def_cfa_offset 16
	.cfi_offset rbp, -16
	mov	rbp, rsp
	.cfi_def_cfa_register rbp
	mov	qword ptr [rbp - 16], rdi
	mov	qword ptr [rbp - 24], rsi
	mov	qword ptr [rbp - 32], rdx
	movabs	rax, offset .L__profc_wmemmove
	mov	rcx, qword ptr [rax]
	inc	rcx
	mov	qword ptr [rax], rcx
	mov	rax, qword ptr [rbp - 16]
	mov	qword ptr [rbp - 40], rax
	mov	rax, qword ptr [rbp - 16]
	cmp	rax, qword ptr [rbp - 24]
	jne	.LBB67_2
# %bb.1:
	movabs	rax, offset __llvm_gcov_ctr.67
	mov	rcx, qword ptr [rax]
	inc	rcx
	mov	qword ptr [rax], rcx
	movabs	rax, offset .L__profc_wmemmove+8
	mov	rcx, qword ptr [rax]
	inc	rcx
	mov	qword ptr [rax], rcx
	mov	rax, qword ptr [rbp - 16]
	mov	qword ptr [rbp - 8], rax
	jmp	.LBB67_12
.LBB67_2:
	mov	rax, qword ptr [rbp - 16]
	mov	rcx, qword ptr [rbp - 24]
	sub	rax, rcx
	mov	rcx, qword ptr [rbp - 32]
	shl	rcx, 2
	cmp	rax, rcx
	jae	.LBB67_7
# %bb.3:
	movabs	rax, offset __llvm_gcov_ctr.67+8
	mov	rcx, qword ptr [rax]
	inc	rcx
	mov	qword ptr [rax], rcx
	movabs	rax, offset .L__profc_wmemmove+16
	mov	rcx, qword ptr [rax]
	inc	rcx
	mov	qword ptr [rax], rcx
.LBB67_4:                               # =>This Inner Loop Header: Depth=1
	mov	rax, qword ptr [rbp - 32]
	mov	rcx, rax
	add	rcx, -1
	mov	qword ptr [rbp - 32], rcx
	cmp	rax, 0
	je	.LBB67_6
# %bb.5:                                #   in Loop: Header=BB67_4 Depth=1
	movabs	rax, offset __llvm_gcov_ctr.67+16
	mov	rcx, qword ptr [rax]
	inc	rcx
	mov	qword ptr [rax], rcx
	movabs	rax, offset .L__profc_wmemmove+24
	mov	rcx, qword ptr [rax]
	inc	rcx
	mov	qword ptr [rax], rcx
	mov	rax, qword ptr [rbp - 24]
	mov	rcx, qword ptr [rbp - 32]
	mov	edx, dword ptr [rax + 4*rcx]
	mov	rax, qword ptr [rbp - 16]
	mov	rcx, qword ptr [rbp - 32]
	mov	dword ptr [rax + 4*rcx], edx
	jmp	.LBB67_4
.LBB67_6:
	jmp	.LBB67_11
.LBB67_7:
	jmp	.LBB67_8
.LBB67_8:                               # =>This Inner Loop Header: Depth=1
	mov	rax, qword ptr [rbp - 32]
	mov	rcx, rax
	add	rcx, -1
	mov	qword ptr [rbp - 32], rcx
	cmp	rax, 0
	je	.LBB67_10
# %bb.9:                                #   in Loop: Header=BB67_8 Depth=1
	movabs	rax, offset __llvm_gcov_ctr.67+24
	mov	rcx, qword ptr [rax]
	inc	rcx
	mov	qword ptr [rax], rcx
	movabs	rax, offset .L__profc_wmemmove+32
	mov	rcx, qword ptr [rax]
	inc	rcx
	mov	qword ptr [rax], rcx
	mov	rax, qword ptr [rbp - 24]
	mov	rcx, rax
	add	rcx, 4
	mov	qword ptr [rbp - 24], rcx
	mov	ecx, dword ptr [rax]
	mov	rax, qword ptr [rbp - 16]
	mov	rdx, rax
	add	rdx, 4
	mov	qword ptr [rbp - 16], rdx
	mov	dword ptr [rax], ecx
	jmp	.LBB67_8
.LBB67_10:
	movabs	rax, offset __llvm_gcov_ctr.67+32
	mov	rcx, qword ptr [rax]
	inc	rcx
	mov	qword ptr [rax], rcx
.LBB67_11:
	mov	rax, qword ptr [rbp - 40]
	mov	qword ptr [rbp - 8], rax
.LBB67_12:
	mov	rax, qword ptr [rbp - 8]
	pop	rbp
	.cfi_def_cfa rsp, 8
	fldz
	fldz
	fldz
	fldz
	fldz
	fldz
	fldz
	fldz
	fstp	st(0)
	fstp	st(0)
	fstp	st(0)
	fstp	st(0)
	fstp	st(0)
	fstp	st(0)
	fstp	st(0)
	fstp	st(0)
	xor	ecx, ecx
	xor	edi, edi
	xor	edx, edx
	xor	esi, esi
	xor	r8d, r8d
	xor	r9d, r9d
	xor	r10d, r10d
	xor	r11d, r11d
	pxor	xmm0, xmm0
	pxor	xmm1, xmm1
	pxor	xmm2, xmm2
	pxor	xmm3, xmm3
	pxor	xmm4, xmm4
	pxor	xmm5, xmm5
	pxor	xmm6, xmm6
	pxor	xmm7, xmm7
	pxor	xmm8, xmm8
	pxor	xmm9, xmm9
	pxor	xmm10, xmm10
	pxor	xmm11, xmm11
	pxor	xmm12, xmm12
	pxor	xmm13, xmm13
	pxor	xmm14, xmm14
	pxor	xmm15, xmm15
	ret
	int3
.Lfunc_end67:
	.size	wmemmove, .Lfunc_end67-wmemmove
	.cfi_endproc
                                        # -- End function
	.globl	wmemset                         # -- Begin function wmemset
	.p2align	4, 0x90
	.type	wmemset,@function
wmemset:                                # @wmemset
	.cfi_startproc
# %bb.0:
	push	rbp
	.cfi_def_cfa_offset 16
	.cfi_offset rbp, -16
	mov	rbp, rsp
	.cfi_def_cfa_register rbp
	movabs	rax, offset __llvm_gcov_ctr.68
	mov	rcx, qword ptr [rax]
	inc	rcx
	mov	qword ptr [rax], rcx
	mov	qword ptr [rbp - 8], rdi
	mov	dword ptr [rbp - 12], esi
	mov	qword ptr [rbp - 24], rdx
	movabs	rax, offset .L__profc_wmemset
	mov	rcx, qword ptr [rax]
	inc	rcx
	mov	qword ptr [rax], rcx
	mov	rax, qword ptr [rbp - 8]
	mov	qword ptr [rbp - 32], rax
.LBB68_1:                               # =>This Inner Loop Header: Depth=1
	mov	rax, qword ptr [rbp - 24]
	mov	rcx, rax
	add	rcx, -1
	mov	qword ptr [rbp - 24], rcx
	cmp	rax, 0
	je	.LBB68_3
# %bb.2:                                #   in Loop: Header=BB68_1 Depth=1
	movabs	rax, offset __llvm_gcov_ctr.68+8
	mov	rcx, qword ptr [rax]
	inc	rcx
	mov	qword ptr [rax], rcx
	movabs	rax, offset .L__profc_wmemset+8
	mov	rcx, qword ptr [rax]
	inc	rcx
	mov	qword ptr [rax], rcx
	mov	ecx, dword ptr [rbp - 12]
	mov	rax, qword ptr [rbp - 8]
	mov	rdx, rax
	add	rdx, 4
	mov	qword ptr [rbp - 8], rdx
	mov	dword ptr [rax], ecx
	jmp	.LBB68_1
.LBB68_3:
	mov	rax, qword ptr [rbp - 32]
	pop	rbp
	.cfi_def_cfa rsp, 8
	fldz
	fldz
	fldz
	fldz
	fldz
	fldz
	fldz
	fldz
	fstp	st(0)
	fstp	st(0)
	fstp	st(0)
	fstp	st(0)
	fstp	st(0)
	fstp	st(0)
	fstp	st(0)
	fstp	st(0)
	xor	ecx, ecx
	xor	edi, edi
	xor	edx, edx
	xor	esi, esi
	xor	r8d, r8d
	xor	r9d, r9d
	xor	r10d, r10d
	xor	r11d, r11d
	pxor	xmm0, xmm0
	pxor	xmm1, xmm1
	pxor	xmm2, xmm2
	pxor	xmm3, xmm3
	pxor	xmm4, xmm4
	pxor	xmm5, xmm5
	pxor	xmm6, xmm6
	pxor	xmm7, xmm7
	pxor	xmm8, xmm8
	pxor	xmm9, xmm9
	pxor	xmm10, xmm10
	pxor	xmm11, xmm11
	pxor	xmm12, xmm12
	pxor	xmm13, xmm13
	pxor	xmm14, xmm14
	pxor	xmm15, xmm15
	ret
	int3
.Lfunc_end68:
	.size	wmemset, .Lfunc_end68-wmemset
	.cfi_endproc
                                        # -- End function
	.globl	bcopy                           # -- Begin function bcopy
	.p2align	4, 0x90
	.type	bcopy,@function
bcopy:                                  # @bcopy
	.cfi_startproc
# %bb.0:
	push	rbp
	.cfi_def_cfa_offset 16
	.cfi_offset rbp, -16
	mov	rbp, rsp
	.cfi_def_cfa_register rbp
	mov	qword ptr [rbp - 8], rdi
	mov	qword ptr [rbp - 16], rsi
	mov	qword ptr [rbp - 24], rdx
	movabs	rax, offset .L__profc_bcopy
	mov	rcx, qword ptr [rax]
	inc	rcx
	mov	qword ptr [rax], rcx
	mov	rax, qword ptr [rbp - 8]
	mov	qword ptr [rbp - 32], rax
	mov	rax, qword ptr [rbp - 16]
	mov	qword ptr [rbp - 40], rax
	mov	rax, qword ptr [rbp - 32]
	cmp	rax, qword ptr [rbp - 40]
	jae	.LBB69_6
# %bb.1:
	movabs	rax, offset __llvm_gcov_ctr.69
	mov	rcx, qword ptr [rax]
	inc	rcx
	mov	qword ptr [rax], rcx
	movabs	rax, offset .L__profc_bcopy+8
	mov	rcx, qword ptr [rax]
	inc	rcx
	mov	qword ptr [rax], rcx
	mov	rax, qword ptr [rbp - 24]
	add	rax, qword ptr [rbp - 32]
	mov	qword ptr [rbp - 32], rax
	mov	rax, qword ptr [rbp - 24]
	add	rax, qword ptr [rbp - 40]
	mov	qword ptr [rbp - 40], rax
.LBB69_2:                               # =>This Inner Loop Header: Depth=1
	cmp	qword ptr [rbp - 24], 0
	je	.LBB69_5
# %bb.3:                                #   in Loop: Header=BB69_2 Depth=1
	movabs	rax, offset .L__profc_bcopy+16
	mov	rcx, qword ptr [rax]
	inc	rcx
	mov	qword ptr [rax], rcx
	mov	rax, qword ptr [rbp - 32]
	mov	rcx, rax
	add	rcx, -1
	mov	qword ptr [rbp - 32], rcx
	mov	cl, byte ptr [rax - 1]
	mov	rax, qword ptr [rbp - 40]
	mov	rdx, rax
	add	rdx, -1
	mov	qword ptr [rbp - 40], rdx
	mov	byte ptr [rax - 1], cl
# %bb.4:                                #   in Loop: Header=BB69_2 Depth=1
	movabs	rax, offset __llvm_gcov_ctr.69+8
	mov	rcx, qword ptr [rax]
	inc	rcx
	mov	qword ptr [rax], rcx
	mov	rax, qword ptr [rbp - 24]
	add	rax, -1
	mov	qword ptr [rbp - 24], rax
	jmp	.LBB69_2
.LBB69_5:
	jmp	.LBB69_13
.LBB69_6:
	mov	rax, qword ptr [rbp - 32]
	cmp	rax, qword ptr [rbp - 40]
	je	.LBB69_12
# %bb.7:
	movabs	rax, offset .L__profc_bcopy+24
	mov	rcx, qword ptr [rax]
	inc	rcx
	mov	qword ptr [rax], rcx
.LBB69_8:                               # =>This Inner Loop Header: Depth=1
	cmp	qword ptr [rbp - 24], 0
	je	.LBB69_11
# %bb.9:                                #   in Loop: Header=BB69_8 Depth=1
	movabs	rax, offset __llvm_gcov_ctr.69+16
	mov	rcx, qword ptr [rax]
	inc	rcx
	mov	qword ptr [rax], rcx
	movabs	rax, offset .L__profc_bcopy+32
	mov	rcx, qword ptr [rax]
	inc	rcx
	mov	qword ptr [rax], rcx
	mov	rax, qword ptr [rbp - 32]
	mov	rcx, rax
	add	rcx, 1
	mov	qword ptr [rbp - 32], rcx
	mov	cl, byte ptr [rax]
	mov	rax, qword ptr [rbp - 40]
	mov	rdx, rax
	add	rdx, 1
	mov	qword ptr [rbp - 40], rdx
	mov	byte ptr [rax], cl
# %bb.10:                               #   in Loop: Header=BB69_8 Depth=1
	mov	rax, qword ptr [rbp - 24]
	add	rax, -1
	mov	qword ptr [rbp - 24], rax
	jmp	.LBB69_8
.LBB69_11:
	movabs	rax, offset __llvm_gcov_ctr.69+24
	mov	rcx, qword ptr [rax]
	inc	rcx
	mov	qword ptr [rax], rcx
.LBB69_12:
	movabs	rax, offset __llvm_gcov_ctr.69+32
	mov	rcx, qword ptr [rax]
	inc	rcx
	mov	qword ptr [rax], rcx
.LBB69_13:
	pop	rbp
	.cfi_def_cfa rsp, 8
	fldz
	fldz
	fldz
	fldz
	fldz
	fldz
	fldz
	fldz
	fstp	st(0)
	fstp	st(0)
	fstp	st(0)
	fstp	st(0)
	fstp	st(0)
	fstp	st(0)
	fstp	st(0)
	fstp	st(0)
	xor	eax, eax
	xor	ecx, ecx
	xor	edi, edi
	xor	edx, edx
	xor	esi, esi
	xor	r8d, r8d
	xor	r9d, r9d
	xor	r10d, r10d
	xor	r11d, r11d
	pxor	xmm0, xmm0
	pxor	xmm1, xmm1
	pxor	xmm2, xmm2
	pxor	xmm3, xmm3
	pxor	xmm4, xmm4
	pxor	xmm5, xmm5
	pxor	xmm6, xmm6
	pxor	xmm7, xmm7
	pxor	xmm8, xmm8
	pxor	xmm9, xmm9
	pxor	xmm10, xmm10
	pxor	xmm11, xmm11
	pxor	xmm12, xmm12
	pxor	xmm13, xmm13
	pxor	xmm14, xmm14
	pxor	xmm15, xmm15
	ret
	int3
.Lfunc_end69:
	.size	bcopy, .Lfunc_end69-bcopy
	.cfi_endproc
                                        # -- End function
	.globl	rotl64                          # -- Begin function rotl64
	.p2align	4, 0x90
	.type	rotl64,@function
rotl64:                                 # @rotl64
	.cfi_startproc
# %bb.0:
	push	rbp
	.cfi_def_cfa_offset 16
	.cfi_offset rbp, -16
	mov	rbp, rsp
	.cfi_def_cfa_register rbp
	movabs	rax, offset __llvm_gcov_ctr.70
	mov	rcx, qword ptr [rax]
	inc	rcx
	mov	qword ptr [rax], rcx
	mov	qword ptr [rbp - 8], rdi
	mov	dword ptr [rbp - 12], esi
	movabs	rax, offset .L__profc_rotl64
	mov	rcx, qword ptr [rax]
	inc	rcx
	mov	qword ptr [rax], rcx
	mov	rax, qword ptr [rbp - 8]
	mov	ecx, dword ptr [rbp - 12]
                                        # kill: def $rcx killed $ecx
                                        # kill: def $cl killed $rcx
	shl	rax, cl
	mov	rdx, qword ptr [rbp - 8]
	mov	ecx, 64
	sub	ecx, dword ptr [rbp - 12]
	mov	ecx, ecx
                                        # kill: def $rcx killed $ecx
                                        # kill: def $cl killed $rcx
	shr	rdx, cl
	mov	rcx, rdx
	or	rax, rcx
	and	rax, -1
	pop	rbp
	.cfi_def_cfa rsp, 8
	fldz
	fldz
	fldz
	fldz
	fldz
	fldz
	fldz
	fldz
	fstp	st(0)
	fstp	st(0)
	fstp	st(0)
	fstp	st(0)
	fstp	st(0)
	fstp	st(0)
	fstp	st(0)
	fstp	st(0)
	xor	ecx, ecx
	xor	edi, edi
	xor	edx, edx
	xor	esi, esi
	xor	r8d, r8d
	xor	r9d, r9d
	xor	r10d, r10d
	xor	r11d, r11d
	pxor	xmm0, xmm0
	pxor	xmm1, xmm1
	pxor	xmm2, xmm2
	pxor	xmm3, xmm3
	pxor	xmm4, xmm4
	pxor	xmm5, xmm5
	pxor	xmm6, xmm6
	pxor	xmm7, xmm7
	pxor	xmm8, xmm8
	pxor	xmm9, xmm9
	pxor	xmm10, xmm10
	pxor	xmm11, xmm11
	pxor	xmm12, xmm12
	pxor	xmm13, xmm13
	pxor	xmm14, xmm14
	pxor	xmm15, xmm15
	ret
	int3
.Lfunc_end70:
	.size	rotl64, .Lfunc_end70-rotl64
	.cfi_endproc
                                        # -- End function
	.globl	rotr64                          # -- Begin function rotr64
	.p2align	4, 0x90
	.type	rotr64,@function
rotr64:                                 # @rotr64
	.cfi_startproc
# %bb.0:
	push	rbp
	.cfi_def_cfa_offset 16
	.cfi_offset rbp, -16
	mov	rbp, rsp
	.cfi_def_cfa_register rbp
	movabs	rax, offset __llvm_gcov_ctr.71
	mov	rcx, qword ptr [rax]
	inc	rcx
	mov	qword ptr [rax], rcx
	mov	qword ptr [rbp - 8], rdi
	mov	dword ptr [rbp - 12], esi
	movabs	rax, offset .L__profc_rotr64
	mov	rcx, qword ptr [rax]
	inc	rcx
	mov	qword ptr [rax], rcx
	mov	rax, qword ptr [rbp - 8]
	mov	ecx, dword ptr [rbp - 12]
                                        # kill: def $rcx killed $ecx
                                        # kill: def $cl killed $rcx
	shr	rax, cl
	mov	rdx, qword ptr [rbp - 8]
	mov	ecx, 64
	sub	ecx, dword ptr [rbp - 12]
	mov	ecx, ecx
                                        # kill: def $rcx killed $ecx
                                        # kill: def $cl killed $rcx
	shl	rdx, cl
	mov	rcx, rdx
	or	rax, rcx
	and	rax, -1
	pop	rbp
	.cfi_def_cfa rsp, 8
	fldz
	fldz
	fldz
	fldz
	fldz
	fldz
	fldz
	fldz
	fstp	st(0)
	fstp	st(0)
	fstp	st(0)
	fstp	st(0)
	fstp	st(0)
	fstp	st(0)
	fstp	st(0)
	fstp	st(0)
	xor	ecx, ecx
	xor	edi, edi
	xor	edx, edx
	xor	esi, esi
	xor	r8d, r8d
	xor	r9d, r9d
	xor	r10d, r10d
	xor	r11d, r11d
	pxor	xmm0, xmm0
	pxor	xmm1, xmm1
	pxor	xmm2, xmm2
	pxor	xmm3, xmm3
	pxor	xmm4, xmm4
	pxor	xmm5, xmm5
	pxor	xmm6, xmm6
	pxor	xmm7, xmm7
	pxor	xmm8, xmm8
	pxor	xmm9, xmm9
	pxor	xmm10, xmm10
	pxor	xmm11, xmm11
	pxor	xmm12, xmm12
	pxor	xmm13, xmm13
	pxor	xmm14, xmm14
	pxor	xmm15, xmm15
	ret
	int3
.Lfunc_end71:
	.size	rotr64, .Lfunc_end71-rotr64
	.cfi_endproc
                                        # -- End function
	.globl	rotl32                          # -- Begin function rotl32
	.p2align	4, 0x90
	.type	rotl32,@function
rotl32:                                 # @rotl32
	.cfi_startproc
# %bb.0:
	push	rbp
	.cfi_def_cfa_offset 16
	.cfi_offset rbp, -16
	mov	rbp, rsp
	.cfi_def_cfa_register rbp
	movabs	rax, offset __llvm_gcov_ctr.72
	mov	rcx, qword ptr [rax]
	inc	rcx
	mov	qword ptr [rax], rcx
	mov	dword ptr [rbp - 4], edi
	mov	dword ptr [rbp - 8], esi
	movabs	rax, offset .L__profc_rotl32
	mov	rcx, qword ptr [rax]
	inc	rcx
	mov	qword ptr [rax], rcx
	mov	eax, dword ptr [rbp - 4]
	mov	ecx, dword ptr [rbp - 8]
                                        # kill: def $cl killed $ecx
	shl	eax, cl
	mov	edx, dword ptr [rbp - 4]
	mov	ecx, 32
	sub	ecx, dword ptr [rbp - 8]
                                        # kill: def $cl killed $ecx
	shr	edx, cl
	mov	ecx, edx
	or	eax, ecx
	and	eax, -1
	pop	rbp
	.cfi_def_cfa rsp, 8
	fldz
	fldz
	fldz
	fldz
	fldz
	fldz
	fldz
	fldz
	fstp	st(0)
	fstp	st(0)
	fstp	st(0)
	fstp	st(0)
	fstp	st(0)
	fstp	st(0)
	fstp	st(0)
	fstp	st(0)
	xor	ecx, ecx
	xor	edi, edi
	xor	edx, edx
	xor	esi, esi
	xor	r8d, r8d
	xor	r9d, r9d
	xor	r10d, r10d
	xor	r11d, r11d
	pxor	xmm0, xmm0
	pxor	xmm1, xmm1
	pxor	xmm2, xmm2
	pxor	xmm3, xmm3
	pxor	xmm4, xmm4
	pxor	xmm5, xmm5
	pxor	xmm6, xmm6
	pxor	xmm7, xmm7
	pxor	xmm8, xmm8
	pxor	xmm9, xmm9
	pxor	xmm10, xmm10
	pxor	xmm11, xmm11
	pxor	xmm12, xmm12
	pxor	xmm13, xmm13
	pxor	xmm14, xmm14
	pxor	xmm15, xmm15
	ret
	int3
.Lfunc_end72:
	.size	rotl32, .Lfunc_end72-rotl32
	.cfi_endproc
                                        # -- End function
	.globl	rotr32                          # -- Begin function rotr32
	.p2align	4, 0x90
	.type	rotr32,@function
rotr32:                                 # @rotr32
	.cfi_startproc
# %bb.0:
	push	rbp
	.cfi_def_cfa_offset 16
	.cfi_offset rbp, -16
	mov	rbp, rsp
	.cfi_def_cfa_register rbp
	movabs	rax, offset __llvm_gcov_ctr.73
	mov	rcx, qword ptr [rax]
	inc	rcx
	mov	qword ptr [rax], rcx
	mov	dword ptr [rbp - 4], edi
	mov	dword ptr [rbp - 8], esi
	movabs	rax, offset .L__profc_rotr32
	mov	rcx, qword ptr [rax]
	inc	rcx
	mov	qword ptr [rax], rcx
	mov	eax, dword ptr [rbp - 4]
	mov	ecx, dword ptr [rbp - 8]
                                        # kill: def $cl killed $ecx
	shr	eax, cl
	mov	edx, dword ptr [rbp - 4]
	mov	ecx, 32
	sub	ecx, dword ptr [rbp - 8]
                                        # kill: def $cl killed $ecx
	shl	edx, cl
	mov	ecx, edx
	or	eax, ecx
	and	eax, -1
	pop	rbp
	.cfi_def_cfa rsp, 8
	fldz
	fldz
	fldz
	fldz
	fldz
	fldz
	fldz
	fldz
	fstp	st(0)
	fstp	st(0)
	fstp	st(0)
	fstp	st(0)
	fstp	st(0)
	fstp	st(0)
	fstp	st(0)
	fstp	st(0)
	xor	ecx, ecx
	xor	edi, edi
	xor	edx, edx
	xor	esi, esi
	xor	r8d, r8d
	xor	r9d, r9d
	xor	r10d, r10d
	xor	r11d, r11d
	pxor	xmm0, xmm0
	pxor	xmm1, xmm1
	pxor	xmm2, xmm2
	pxor	xmm3, xmm3
	pxor	xmm4, xmm4
	pxor	xmm5, xmm5
	pxor	xmm6, xmm6
	pxor	xmm7, xmm7
	pxor	xmm8, xmm8
	pxor	xmm9, xmm9
	pxor	xmm10, xmm10
	pxor	xmm11, xmm11
	pxor	xmm12, xmm12
	pxor	xmm13, xmm13
	pxor	xmm14, xmm14
	pxor	xmm15, xmm15
	ret
	int3
.Lfunc_end73:
	.size	rotr32, .Lfunc_end73-rotr32
	.cfi_endproc
                                        # -- End function
	.globl	rotl_sz                         # -- Begin function rotl_sz
	.p2align	4, 0x90
	.type	rotl_sz,@function
rotl_sz:                                # @rotl_sz
	.cfi_startproc
# %bb.0:
	push	rbp
	.cfi_def_cfa_offset 16
	.cfi_offset rbp, -16
	mov	rbp, rsp
	.cfi_def_cfa_register rbp
	movabs	rax, offset __llvm_gcov_ctr.74
	mov	rcx, qword ptr [rax]
	inc	rcx
	mov	qword ptr [rax], rcx
	mov	qword ptr [rbp - 8], rdi
	mov	dword ptr [rbp - 12], esi
	movabs	rax, offset .L__profc_rotl_sz
	mov	rcx, qword ptr [rax]
	inc	rcx
	mov	qword ptr [rax], rcx
	mov	rax, qword ptr [rbp - 8]
	mov	ecx, dword ptr [rbp - 12]
                                        # kill: def $rcx killed $ecx
                                        # kill: def $cl killed $rcx
	shl	rax, cl
	mov	rdx, qword ptr [rbp - 8]
	movsxd	rsi, dword ptr [rbp - 12]
	mov	ecx, 64
	sub	rcx, rsi
                                        # kill: def $cl killed $rcx
	shr	rdx, cl
	mov	rcx, rdx
	or	rax, rcx
	and	rax, -1
	pop	rbp
	.cfi_def_cfa rsp, 8
	fldz
	fldz
	fldz
	fldz
	fldz
	fldz
	fldz
	fldz
	fstp	st(0)
	fstp	st(0)
	fstp	st(0)
	fstp	st(0)
	fstp	st(0)
	fstp	st(0)
	fstp	st(0)
	fstp	st(0)
	xor	ecx, ecx
	xor	edi, edi
	xor	edx, edx
	xor	esi, esi
	xor	r8d, r8d
	xor	r9d, r9d
	xor	r10d, r10d
	xor	r11d, r11d
	pxor	xmm0, xmm0
	pxor	xmm1, xmm1
	pxor	xmm2, xmm2
	pxor	xmm3, xmm3
	pxor	xmm4, xmm4
	pxor	xmm5, xmm5
	pxor	xmm6, xmm6
	pxor	xmm7, xmm7
	pxor	xmm8, xmm8
	pxor	xmm9, xmm9
	pxor	xmm10, xmm10
	pxor	xmm11, xmm11
	pxor	xmm12, xmm12
	pxor	xmm13, xmm13
	pxor	xmm14, xmm14
	pxor	xmm15, xmm15
	ret
	int3
.Lfunc_end74:
	.size	rotl_sz, .Lfunc_end74-rotl_sz
	.cfi_endproc
                                        # -- End function
	.globl	rotr_sz                         # -- Begin function rotr_sz
	.p2align	4, 0x90
	.type	rotr_sz,@function
rotr_sz:                                # @rotr_sz
	.cfi_startproc
# %bb.0:
	push	rbp
	.cfi_def_cfa_offset 16
	.cfi_offset rbp, -16
	mov	rbp, rsp
	.cfi_def_cfa_register rbp
	movabs	rax, offset __llvm_gcov_ctr.75
	mov	rcx, qword ptr [rax]
	inc	rcx
	mov	qword ptr [rax], rcx
	mov	qword ptr [rbp - 8], rdi
	mov	dword ptr [rbp - 12], esi
	movabs	rax, offset .L__profc_rotr_sz
	mov	rcx, qword ptr [rax]
	inc	rcx
	mov	qword ptr [rax], rcx
	mov	rax, qword ptr [rbp - 8]
	mov	ecx, dword ptr [rbp - 12]
                                        # kill: def $rcx killed $ecx
                                        # kill: def $cl killed $rcx
	shr	rax, cl
	mov	rdx, qword ptr [rbp - 8]
	movsxd	rsi, dword ptr [rbp - 12]
	mov	ecx, 64
	sub	rcx, rsi
                                        # kill: def $cl killed $rcx
	shl	rdx, cl
	mov	rcx, rdx
	or	rax, rcx
	and	rax, -1
	pop	rbp
	.cfi_def_cfa rsp, 8
	fldz
	fldz
	fldz
	fldz
	fldz
	fldz
	fldz
	fldz
	fstp	st(0)
	fstp	st(0)
	fstp	st(0)
	fstp	st(0)
	fstp	st(0)
	fstp	st(0)
	fstp	st(0)
	fstp	st(0)
	xor	ecx, ecx
	xor	edi, edi
	xor	edx, edx
	xor	esi, esi
	xor	r8d, r8d
	xor	r9d, r9d
	xor	r10d, r10d
	xor	r11d, r11d
	pxor	xmm0, xmm0
	pxor	xmm1, xmm1
	pxor	xmm2, xmm2
	pxor	xmm3, xmm3
	pxor	xmm4, xmm4
	pxor	xmm5, xmm5
	pxor	xmm6, xmm6
	pxor	xmm7, xmm7
	pxor	xmm8, xmm8
	pxor	xmm9, xmm9
	pxor	xmm10, xmm10
	pxor	xmm11, xmm11
	pxor	xmm12, xmm12
	pxor	xmm13, xmm13
	pxor	xmm14, xmm14
	pxor	xmm15, xmm15
	ret
	int3
.Lfunc_end75:
	.size	rotr_sz, .Lfunc_end75-rotr_sz
	.cfi_endproc
                                        # -- End function
	.globl	rotl16                          # -- Begin function rotl16
	.p2align	4, 0x90
	.type	rotl16,@function
rotl16:                                 # @rotl16
	.cfi_startproc
# %bb.0:
	push	rbp
	.cfi_def_cfa_offset 16
	.cfi_offset rbp, -16
	mov	rbp, rsp
	.cfi_def_cfa_register rbp
	mov	ax, di
	movabs	rcx, offset __llvm_gcov_ctr.76
	mov	rdx, qword ptr [rcx]
	inc	rdx
	mov	qword ptr [rcx], rdx
	mov	word ptr [rbp - 2], ax
	mov	dword ptr [rbp - 8], esi
	movabs	rax, offset .L__profc_rotl16
	mov	rcx, qword ptr [rax]
	inc	rcx
	mov	qword ptr [rax], rcx
	movzx	eax, word ptr [rbp - 2]
	mov	ecx, dword ptr [rbp - 8]
                                        # kill: def $cl killed $ecx
	shl	eax, cl
	movzx	edx, word ptr [rbp - 2]
	mov	ecx, 16
	sub	ecx, dword ptr [rbp - 8]
                                        # kill: def $cl killed $ecx
	shr	edx, cl
	mov	ecx, edx
	or	eax, ecx
	and	eax, 65535
                                        # kill: def $ax killed $ax killed $eax
	pop	rbp
	.cfi_def_cfa rsp, 8
	fldz
	fldz
	fldz
	fldz
	fldz
	fldz
	fldz
	fldz
	fstp	st(0)
	fstp	st(0)
	fstp	st(0)
	fstp	st(0)
	fstp	st(0)
	fstp	st(0)
	fstp	st(0)
	fstp	st(0)
	xor	ecx, ecx
	xor	edi, edi
	xor	edx, edx
	xor	esi, esi
	xor	r8d, r8d
	xor	r9d, r9d
	xor	r10d, r10d
	xor	r11d, r11d
	pxor	xmm0, xmm0
	pxor	xmm1, xmm1
	pxor	xmm2, xmm2
	pxor	xmm3, xmm3
	pxor	xmm4, xmm4
	pxor	xmm5, xmm5
	pxor	xmm6, xmm6
	pxor	xmm7, xmm7
	pxor	xmm8, xmm8
	pxor	xmm9, xmm9
	pxor	xmm10, xmm10
	pxor	xmm11, xmm11
	pxor	xmm12, xmm12
	pxor	xmm13, xmm13
	pxor	xmm14, xmm14
	pxor	xmm15, xmm15
	ret
	int3
.Lfunc_end76:
	.size	rotl16, .Lfunc_end76-rotl16
	.cfi_endproc
                                        # -- End function
	.globl	rotr16                          # -- Begin function rotr16
	.p2align	4, 0x90
	.type	rotr16,@function
rotr16:                                 # @rotr16
	.cfi_startproc
# %bb.0:
	push	rbp
	.cfi_def_cfa_offset 16
	.cfi_offset rbp, -16
	mov	rbp, rsp
	.cfi_def_cfa_register rbp
	mov	ax, di
	movabs	rcx, offset __llvm_gcov_ctr.77
	mov	rdx, qword ptr [rcx]
	inc	rdx
	mov	qword ptr [rcx], rdx
	mov	word ptr [rbp - 2], ax
	mov	dword ptr [rbp - 8], esi
	movabs	rax, offset .L__profc_rotr16
	mov	rcx, qword ptr [rax]
	inc	rcx
	mov	qword ptr [rax], rcx
	movzx	eax, word ptr [rbp - 2]
	mov	ecx, dword ptr [rbp - 8]
                                        # kill: def $cl killed $ecx
	shr	eax, cl
	movzx	edx, word ptr [rbp - 2]
	mov	ecx, 16
	sub	ecx, dword ptr [rbp - 8]
                                        # kill: def $cl killed $ecx
	shl	edx, cl
	mov	ecx, edx
	or	eax, ecx
	and	eax, 65535
                                        # kill: def $ax killed $ax killed $eax
	pop	rbp
	.cfi_def_cfa rsp, 8
	fldz
	fldz
	fldz
	fldz
	fldz
	fldz
	fldz
	fldz
	fstp	st(0)
	fstp	st(0)
	fstp	st(0)
	fstp	st(0)
	fstp	st(0)
	fstp	st(0)
	fstp	st(0)
	fstp	st(0)
	xor	ecx, ecx
	xor	edi, edi
	xor	edx, edx
	xor	esi, esi
	xor	r8d, r8d
	xor	r9d, r9d
	xor	r10d, r10d
	xor	r11d, r11d
	pxor	xmm0, xmm0
	pxor	xmm1, xmm1
	pxor	xmm2, xmm2
	pxor	xmm3, xmm3
	pxor	xmm4, xmm4
	pxor	xmm5, xmm5
	pxor	xmm6, xmm6
	pxor	xmm7, xmm7
	pxor	xmm8, xmm8
	pxor	xmm9, xmm9
	pxor	xmm10, xmm10
	pxor	xmm11, xmm11
	pxor	xmm12, xmm12
	pxor	xmm13, xmm13
	pxor	xmm14, xmm14
	pxor	xmm15, xmm15
	ret
	int3
.Lfunc_end77:
	.size	rotr16, .Lfunc_end77-rotr16
	.cfi_endproc
                                        # -- End function
	.globl	rotl8                           # -- Begin function rotl8
	.p2align	4, 0x90
	.type	rotl8,@function
rotl8:                                  # @rotl8
	.cfi_startproc
# %bb.0:
	push	rbp
	.cfi_def_cfa_offset 16
	.cfi_offset rbp, -16
	mov	rbp, rsp
	.cfi_def_cfa_register rbp
	mov	al, dil
	movabs	rcx, offset __llvm_gcov_ctr.78
	mov	rdx, qword ptr [rcx]
	inc	rdx
	mov	qword ptr [rcx], rdx
	mov	byte ptr [rbp - 1], al
	mov	dword ptr [rbp - 8], esi
	movabs	rax, offset .L__profc_rotl8
	mov	rcx, qword ptr [rax]
	inc	rcx
	mov	qword ptr [rax], rcx
	movzx	eax, byte ptr [rbp - 1]
	mov	ecx, dword ptr [rbp - 8]
                                        # kill: def $cl killed $ecx
	shl	eax, cl
	movzx	edx, byte ptr [rbp - 1]
	mov	ecx, 8
	sub	ecx, dword ptr [rbp - 8]
                                        # kill: def $cl killed $ecx
	shr	edx, cl
	mov	ecx, edx
	or	eax, ecx
	and	eax, 255
                                        # kill: def $al killed $al killed $eax
	pop	rbp
	.cfi_def_cfa rsp, 8
	fldz
	fldz
	fldz
	fldz
	fldz
	fldz
	fldz
	fldz
	fstp	st(0)
	fstp	st(0)
	fstp	st(0)
	fstp	st(0)
	fstp	st(0)
	fstp	st(0)
	fstp	st(0)
	fstp	st(0)
	xor	ecx, ecx
	xor	edi, edi
	xor	edx, edx
	xor	esi, esi
	xor	r8d, r8d
	xor	r9d, r9d
	xor	r10d, r10d
	xor	r11d, r11d
	pxor	xmm0, xmm0
	pxor	xmm1, xmm1
	pxor	xmm2, xmm2
	pxor	xmm3, xmm3
	pxor	xmm4, xmm4
	pxor	xmm5, xmm5
	pxor	xmm6, xmm6
	pxor	xmm7, xmm7
	pxor	xmm8, xmm8
	pxor	xmm9, xmm9
	pxor	xmm10, xmm10
	pxor	xmm11, xmm11
	pxor	xmm12, xmm12
	pxor	xmm13, xmm13
	pxor	xmm14, xmm14
	pxor	xmm15, xmm15
	ret
	int3
.Lfunc_end78:
	.size	rotl8, .Lfunc_end78-rotl8
	.cfi_endproc
                                        # -- End function
	.globl	rotr8                           # -- Begin function rotr8
	.p2align	4, 0x90
	.type	rotr8,@function
rotr8:                                  # @rotr8
	.cfi_startproc
# %bb.0:
	push	rbp
	.cfi_def_cfa_offset 16
	.cfi_offset rbp, -16
	mov	rbp, rsp
	.cfi_def_cfa_register rbp
	mov	al, dil
	movabs	rcx, offset __llvm_gcov_ctr.79
	mov	rdx, qword ptr [rcx]
	inc	rdx
	mov	qword ptr [rcx], rdx
	mov	byte ptr [rbp - 1], al
	mov	dword ptr [rbp - 8], esi
	movabs	rax, offset .L__profc_rotr8
	mov	rcx, qword ptr [rax]
	inc	rcx
	mov	qword ptr [rax], rcx
	movzx	eax, byte ptr [rbp - 1]
	mov	ecx, dword ptr [rbp - 8]
                                        # kill: def $cl killed $ecx
	shr	eax, cl
	movzx	edx, byte ptr [rbp - 1]
	mov	ecx, 8
	sub	ecx, dword ptr [rbp - 8]
                                        # kill: def $cl killed $ecx
	shl	edx, cl
	mov	ecx, edx
	or	eax, ecx
	and	eax, 255
                                        # kill: def $al killed $al killed $eax
	pop	rbp
	.cfi_def_cfa rsp, 8
	fldz
	fldz
	fldz
	fldz
	fldz
	fldz
	fldz
	fldz
	fstp	st(0)
	fstp	st(0)
	fstp	st(0)
	fstp	st(0)
	fstp	st(0)
	fstp	st(0)
	fstp	st(0)
	fstp	st(0)
	xor	ecx, ecx
	xor	edi, edi
	xor	edx, edx
	xor	esi, esi
	xor	r8d, r8d
	xor	r9d, r9d
	xor	r10d, r10d
	xor	r11d, r11d
	pxor	xmm0, xmm0
	pxor	xmm1, xmm1
	pxor	xmm2, xmm2
	pxor	xmm3, xmm3
	pxor	xmm4, xmm4
	pxor	xmm5, xmm5
	pxor	xmm6, xmm6
	pxor	xmm7, xmm7
	pxor	xmm8, xmm8
	pxor	xmm9, xmm9
	pxor	xmm10, xmm10
	pxor	xmm11, xmm11
	pxor	xmm12, xmm12
	pxor	xmm13, xmm13
	pxor	xmm14, xmm14
	pxor	xmm15, xmm15
	ret
	int3
.Lfunc_end79:
	.size	rotr8, .Lfunc_end79-rotr8
	.cfi_endproc
                                        # -- End function
	.globl	bswap_16                        # -- Begin function bswap_16
	.p2align	4, 0x90
	.type	bswap_16,@function
bswap_16:                               # @bswap_16
	.cfi_startproc
# %bb.0:
	push	rbp
	.cfi_def_cfa_offset 16
	.cfi_offset rbp, -16
	mov	rbp, rsp
	.cfi_def_cfa_register rbp
	mov	ax, di
	movabs	rcx, offset __llvm_gcov_ctr.80
	mov	rdx, qword ptr [rcx]
	inc	rdx
	mov	qword ptr [rcx], rdx
	mov	word ptr [rbp - 2], ax
	movabs	rax, offset .L__profc_bswap_16
	mov	rcx, qword ptr [rax]
	inc	rcx
	mov	qword ptr [rax], rcx
	mov	word ptr [rbp - 4], 255
	movzx	eax, word ptr [rbp - 2]
	movzx	ecx, word ptr [rbp - 4]
	shl	ecx, 8
	and	eax, ecx
	sar	eax, 8
	movzx	ecx, word ptr [rbp - 2]
	movzx	edx, word ptr [rbp - 4]
	shl	edx, 0
	and	ecx, edx
	shl	ecx, 8
	or	eax, ecx
                                        # kill: def $ax killed $ax killed $eax
	pop	rbp
	.cfi_def_cfa rsp, 8
	fldz
	fldz
	fldz
	fldz
	fldz
	fldz
	fldz
	fldz
	fstp	st(0)
	fstp	st(0)
	fstp	st(0)
	fstp	st(0)
	fstp	st(0)
	fstp	st(0)
	fstp	st(0)
	fstp	st(0)
	xor	ecx, ecx
	xor	edi, edi
	xor	edx, edx
	xor	esi, esi
	xor	r8d, r8d
	xor	r9d, r9d
	xor	r10d, r10d
	xor	r11d, r11d
	pxor	xmm0, xmm0
	pxor	xmm1, xmm1
	pxor	xmm2, xmm2
	pxor	xmm3, xmm3
	pxor	xmm4, xmm4
	pxor	xmm5, xmm5
	pxor	xmm6, xmm6
	pxor	xmm7, xmm7
	pxor	xmm8, xmm8
	pxor	xmm9, xmm9
	pxor	xmm10, xmm10
	pxor	xmm11, xmm11
	pxor	xmm12, xmm12
	pxor	xmm13, xmm13
	pxor	xmm14, xmm14
	pxor	xmm15, xmm15
	ret
	int3
.Lfunc_end80:
	.size	bswap_16, .Lfunc_end80-bswap_16
	.cfi_endproc
                                        # -- End function
	.globl	bswap_32                        # -- Begin function bswap_32
	.p2align	4, 0x90
	.type	bswap_32,@function
bswap_32:                               # @bswap_32
	.cfi_startproc
# %bb.0:
	push	rbp
	.cfi_def_cfa_offset 16
	.cfi_offset rbp, -16
	mov	rbp, rsp
	.cfi_def_cfa_register rbp
	movabs	rax, offset __llvm_gcov_ctr.81
	mov	rcx, qword ptr [rax]
	inc	rcx
	mov	qword ptr [rax], rcx
	mov	dword ptr [rbp - 4], edi
	movabs	rax, offset .L__profc_bswap_32
	mov	rcx, qword ptr [rax]
	inc	rcx
	mov	qword ptr [rax], rcx
	mov	dword ptr [rbp - 8], 255
	mov	eax, dword ptr [rbp - 4]
	mov	ecx, dword ptr [rbp - 8]
	shl	ecx, 24
	and	eax, ecx
	shr	eax, 24
	mov	ecx, dword ptr [rbp - 4]
	mov	edx, dword ptr [rbp - 8]
	shl	edx, 16
	and	ecx, edx
	shr	ecx, 8
	or	eax, ecx
	mov	ecx, dword ptr [rbp - 4]
	mov	edx, dword ptr [rbp - 8]
	shl	edx, 8
	and	ecx, edx
	shl	ecx, 8
	or	eax, ecx
	mov	ecx, dword ptr [rbp - 4]
	mov	edx, dword ptr [rbp - 8]
	shl	edx, 0
	and	ecx, edx
	shl	ecx, 24
	or	eax, ecx
	pop	rbp
	.cfi_def_cfa rsp, 8
	fldz
	fldz
	fldz
	fldz
	fldz
	fldz
	fldz
	fldz
	fstp	st(0)
	fstp	st(0)
	fstp	st(0)
	fstp	st(0)
	fstp	st(0)
	fstp	st(0)
	fstp	st(0)
	fstp	st(0)
	xor	ecx, ecx
	xor	edi, edi
	xor	edx, edx
	xor	esi, esi
	xor	r8d, r8d
	xor	r9d, r9d
	xor	r10d, r10d
	xor	r11d, r11d
	pxor	xmm0, xmm0
	pxor	xmm1, xmm1
	pxor	xmm2, xmm2
	pxor	xmm3, xmm3
	pxor	xmm4, xmm4
	pxor	xmm5, xmm5
	pxor	xmm6, xmm6
	pxor	xmm7, xmm7
	pxor	xmm8, xmm8
	pxor	xmm9, xmm9
	pxor	xmm10, xmm10
	pxor	xmm11, xmm11
	pxor	xmm12, xmm12
	pxor	xmm13, xmm13
	pxor	xmm14, xmm14
	pxor	xmm15, xmm15
	ret
	int3
.Lfunc_end81:
	.size	bswap_32, .Lfunc_end81-bswap_32
	.cfi_endproc
                                        # -- End function
	.globl	bswap_64                        # -- Begin function bswap_64
	.p2align	4, 0x90
	.type	bswap_64,@function
bswap_64:                               # @bswap_64
	.cfi_startproc
# %bb.0:
	push	rbp
	.cfi_def_cfa_offset 16
	.cfi_offset rbp, -16
	mov	rbp, rsp
	.cfi_def_cfa_register rbp
	movabs	rax, offset __llvm_gcov_ctr.82
	mov	rcx, qword ptr [rax]
	inc	rcx
	mov	qword ptr [rax], rcx
	mov	qword ptr [rbp - 8], rdi
	movabs	rax, offset .L__profc_bswap_64
	mov	rcx, qword ptr [rax]
	inc	rcx
	mov	qword ptr [rax], rcx
	mov	qword ptr [rbp - 16], 255
	mov	rax, qword ptr [rbp - 8]
	mov	rcx, qword ptr [rbp - 16]
	shl	rcx, 56
	and	rax, rcx
	shr	rax, 56
	mov	rcx, qword ptr [rbp - 8]
	mov	rdx, qword ptr [rbp - 16]
	shl	rdx, 48
	and	rcx, rdx
	shr	rcx, 40
	or	rax, rcx
	mov	rcx, qword ptr [rbp - 8]
	mov	rdx, qword ptr [rbp - 16]
	shl	rdx, 40
	and	rcx, rdx
	shr	rcx, 24
	or	rax, rcx
	mov	rcx, qword ptr [rbp - 8]
	mov	rdx, qword ptr [rbp - 16]
	shl	rdx, 32
	and	rcx, rdx
	shr	rcx, 8
	or	rax, rcx
	mov	rcx, qword ptr [rbp - 8]
	mov	rdx, qword ptr [rbp - 16]
	shl	rdx, 24
	and	rcx, rdx
	shl	rcx, 8
	or	rax, rcx
	mov	rcx, qword ptr [rbp - 8]
	mov	rdx, qword ptr [rbp - 16]
	shl	rdx, 16
	and	rcx, rdx
	shl	rcx, 24
	or	rax, rcx
	mov	rcx, qword ptr [rbp - 8]
	mov	rdx, qword ptr [rbp - 16]
	shl	rdx, 8
	and	rcx, rdx
	shl	rcx, 40
	or	rax, rcx
	mov	rcx, qword ptr [rbp - 8]
	mov	rdx, qword ptr [rbp - 16]
	shl	rdx, 0
	and	rcx, rdx
	shl	rcx, 56
	or	rax, rcx
	pop	rbp
	.cfi_def_cfa rsp, 8
	fldz
	fldz
	fldz
	fldz
	fldz
	fldz
	fldz
	fldz
	fstp	st(0)
	fstp	st(0)
	fstp	st(0)
	fstp	st(0)
	fstp	st(0)
	fstp	st(0)
	fstp	st(0)
	fstp	st(0)
	xor	ecx, ecx
	xor	edi, edi
	xor	edx, edx
	xor	esi, esi
	xor	r8d, r8d
	xor	r9d, r9d
	xor	r10d, r10d
	xor	r11d, r11d
	pxor	xmm0, xmm0
	pxor	xmm1, xmm1
	pxor	xmm2, xmm2
	pxor	xmm3, xmm3
	pxor	xmm4, xmm4
	pxor	xmm5, xmm5
	pxor	xmm6, xmm6
	pxor	xmm7, xmm7
	pxor	xmm8, xmm8
	pxor	xmm9, xmm9
	pxor	xmm10, xmm10
	pxor	xmm11, xmm11
	pxor	xmm12, xmm12
	pxor	xmm13, xmm13
	pxor	xmm14, xmm14
	pxor	xmm15, xmm15
	ret
	int3
.Lfunc_end82:
	.size	bswap_64, .Lfunc_end82-bswap_64
	.cfi_endproc
                                        # -- End function
	.globl	ffs                             # -- Begin function ffs
	.p2align	4, 0x90
	.type	ffs,@function
ffs:                                    # @ffs
	.cfi_startproc
# %bb.0:
	push	rbp
	.cfi_def_cfa_offset 16
	.cfi_offset rbp, -16
	mov	rbp, rsp
	.cfi_def_cfa_register rbp
	mov	dword ptr [rbp - 8], edi
	movabs	rax, offset .L__profc_ffs
	mov	rcx, qword ptr [rax]
	inc	rcx
	mov	qword ptr [rax], rcx
	mov	dword ptr [rbp - 12], 0
.LBB83_1:                               # =>This Inner Loop Header: Depth=1
	mov	eax, dword ptr [rbp - 12]
                                        # kill: def $rax killed $eax
	cmp	rax, 32
	jae	.LBB83_6
# %bb.2:                                #   in Loop: Header=BB83_1 Depth=1
	movabs	rax, offset .L__profc_ffs+8
	mov	rcx, qword ptr [rax]
	inc	rcx
	mov	qword ptr [rax], rcx
	mov	eax, dword ptr [rbp - 8]
	mov	ecx, dword ptr [rbp - 12]
	mov	edx, 1
                                        # kill: def $cl killed $ecx
	shl	edx, cl
	mov	ecx, edx
	and	eax, ecx
	cmp	eax, 0
	je	.LBB83_4
# %bb.3:
	movabs	rax, offset __llvm_gcov_ctr.83
	mov	rcx, qword ptr [rax]
	inc	rcx
	mov	qword ptr [rax], rcx
	movabs	rax, offset .L__profc_ffs+16
	mov	rcx, qword ptr [rax]
	inc	rcx
	mov	qword ptr [rax], rcx
	mov	eax, dword ptr [rbp - 12]
	add	eax, 1
	mov	dword ptr [rbp - 4], eax
	jmp	.LBB83_7
.LBB83_4:                               #   in Loop: Header=BB83_1 Depth=1
	jmp	.LBB83_5
.LBB83_5:                               #   in Loop: Header=BB83_1 Depth=1
	movabs	rax, offset __llvm_gcov_ctr.83+8
	mov	rcx, qword ptr [rax]
	inc	rcx
	mov	qword ptr [rax], rcx
	mov	eax, dword ptr [rbp - 12]
	add	eax, 1
	mov	dword ptr [rbp - 12], eax
	jmp	.LBB83_1
.LBB83_6:
	movabs	rax, offset __llvm_gcov_ctr.83+16
	mov	rcx, qword ptr [rax]
	inc	rcx
	mov	qword ptr [rax], rcx
	mov	dword ptr [rbp - 4], 0
.LBB83_7:
	mov	eax, dword ptr [rbp - 4]
	pop	rbp
	.cfi_def_cfa rsp, 8
	fldz
	fldz
	fldz
	fldz
	fldz
	fldz
	fldz
	fldz
	fstp	st(0)
	fstp	st(0)
	fstp	st(0)
	fstp	st(0)
	fstp	st(0)
	fstp	st(0)
	fstp	st(0)
	fstp	st(0)
	xor	ecx, ecx
	xor	edi, edi
	xor	edx, edx
	xor	esi, esi
	xor	r8d, r8d
	xor	r9d, r9d
	xor	r10d, r10d
	xor	r11d, r11d
	pxor	xmm0, xmm0
	pxor	xmm1, xmm1
	pxor	xmm2, xmm2
	pxor	xmm3, xmm3
	pxor	xmm4, xmm4
	pxor	xmm5, xmm5
	pxor	xmm6, xmm6
	pxor	xmm7, xmm7
	pxor	xmm8, xmm8
	pxor	xmm9, xmm9
	pxor	xmm10, xmm10
	pxor	xmm11, xmm11
	pxor	xmm12, xmm12
	pxor	xmm13, xmm13
	pxor	xmm14, xmm14
	pxor	xmm15, xmm15
	ret
	int3
.Lfunc_end83:
	.size	ffs, .Lfunc_end83-ffs
	.cfi_endproc
                                        # -- End function
	.globl	libiberty_ffs                   # -- Begin function libiberty_ffs
	.p2align	4, 0x90
	.type	libiberty_ffs,@function
libiberty_ffs:                          # @libiberty_ffs
	.cfi_startproc
# %bb.0:
	push	rbp
	.cfi_def_cfa_offset 16
	.cfi_offset rbp, -16
	mov	rbp, rsp
	.cfi_def_cfa_register rbp
	mov	dword ptr [rbp - 8], edi
	movabs	rax, offset .L__profc_libiberty_ffs
	mov	rcx, qword ptr [rax]
	inc	rcx
	mov	qword ptr [rax], rcx
	cmp	dword ptr [rbp - 8], 0
	jne	.LBB84_2
# %bb.1:
	movabs	rax, offset __llvm_gcov_ctr.84+8
	mov	rcx, qword ptr [rax]
	inc	rcx
	mov	qword ptr [rax], rcx
	movabs	rax, offset .L__profc_libiberty_ffs+8
	mov	rcx, qword ptr [rax]
	inc	rcx
	mov	qword ptr [rax], rcx
	mov	dword ptr [rbp - 4], 0
	jmp	.LBB84_7
.LBB84_2:
	movabs	rax, offset __llvm_gcov_ctr.84
	mov	rcx, qword ptr [rax]
	inc	rcx
	mov	qword ptr [rax], rcx
	mov	dword ptr [rbp - 12], 1
.LBB84_3:                               # =>This Inner Loop Header: Depth=1
	mov	eax, dword ptr [rbp - 8]
	and	eax, 1
	cmp	eax, 0
	setne	al
	xor	al, -1
	test	al, 1
	jne	.LBB84_4
	jmp	.LBB84_6
.LBB84_4:                               #   in Loop: Header=BB84_3 Depth=1
	movabs	rax, offset .L__profc_libiberty_ffs+16
	mov	rcx, qword ptr [rax]
	inc	rcx
	mov	qword ptr [rax], rcx
	mov	eax, dword ptr [rbp - 8]
	sar	eax
	mov	dword ptr [rbp - 8], eax
# %bb.5:                                #   in Loop: Header=BB84_3 Depth=1
	movabs	rax, offset __llvm_gcov_ctr.84+16
	mov	rcx, qword ptr [rax]
	inc	rcx
	mov	qword ptr [rax], rcx
	mov	eax, dword ptr [rbp - 12]
	add	eax, 1
	mov	dword ptr [rbp - 12], eax
	jmp	.LBB84_3
.LBB84_6:
	mov	eax, dword ptr [rbp - 12]
	mov	dword ptr [rbp - 4], eax
.LBB84_7:
	mov	eax, dword ptr [rbp - 4]
	pop	rbp
	.cfi_def_cfa rsp, 8
	fldz
	fldz
	fldz
	fldz
	fldz
	fldz
	fldz
	fldz
	fstp	st(0)
	fstp	st(0)
	fstp	st(0)
	fstp	st(0)
	fstp	st(0)
	fstp	st(0)
	fstp	st(0)
	fstp	st(0)
	xor	ecx, ecx
	xor	edi, edi
	xor	edx, edx
	xor	esi, esi
	xor	r8d, r8d
	xor	r9d, r9d
	xor	r10d, r10d
	xor	r11d, r11d
	pxor	xmm0, xmm0
	pxor	xmm1, xmm1
	pxor	xmm2, xmm2
	pxor	xmm3, xmm3
	pxor	xmm4, xmm4
	pxor	xmm5, xmm5
	pxor	xmm6, xmm6
	pxor	xmm7, xmm7
	pxor	xmm8, xmm8
	pxor	xmm9, xmm9
	pxor	xmm10, xmm10
	pxor	xmm11, xmm11
	pxor	xmm12, xmm12
	pxor	xmm13, xmm13
	pxor	xmm14, xmm14
	pxor	xmm15, xmm15
	ret
	int3
.Lfunc_end84:
	.size	libiberty_ffs, .Lfunc_end84-libiberty_ffs
	.cfi_endproc
                                        # -- End function
	.section	.rodata.cst4,"aM",@progbits,4
	.p2align	2, 0x0                          # -- Begin function gl_isinff
.LCPI85_0:
	.long	0xff7fffff                      # float -3.40282347E+38
.LCPI85_1:
	.long	0x7f7fffff                      # float 3.40282347E+38
	.section	.ltext,"axl",@progbits
	.globl	gl_isinff
	.p2align	4, 0x90
	.type	gl_isinff,@function
gl_isinff:                              # @gl_isinff
	.cfi_startproc
# %bb.0:
	push	rbp
	.cfi_def_cfa_offset 16
	.cfi_offset rbp, -16
	mov	rbp, rsp
	.cfi_def_cfa_register rbp
	movabs	rax, offset __llvm_gcov_ctr.85
	mov	rcx, qword ptr [rax]
	inc	rcx
	mov	qword ptr [rax], rcx
	movss	dword ptr [rbp - 4], xmm0
	movabs	rax, offset .L__profc_gl_isinff
	mov	rcx, qword ptr [rax]
	inc	rcx
	mov	qword ptr [rax], rcx
	mov	al, 1
	movabs	rcx, offset .LCPI85_0
	movss	xmm0, dword ptr [rcx]           # xmm0 = mem[0],zero,zero,zero
	ucomiss	xmm0, dword ptr [rbp - 4]
	mov	byte ptr [rbp - 5], al          # 1-byte Spill
	ja	.LBB85_3
# %bb.1:
	movabs	rax, offset __llvm_gcov_ctr.85+8
	mov	rcx, qword ptr [rax]
	inc	rcx
	mov	qword ptr [rax], rcx
	movabs	rax, offset .L__profc_gl_isinff+8
	mov	rcx, qword ptr [rax]
	inc	rcx
	mov	qword ptr [rax], rcx
	movss	xmm0, dword ptr [rbp - 4]       # xmm0 = mem[0],zero,zero,zero
	movabs	rax, offset .LCPI85_1
	movss	xmm1, dword ptr [rax]           # xmm1 = mem[0],zero,zero,zero
	ucomiss	xmm0, xmm1
	seta	al
	mov	byte ptr [rbp - 6], al          # 1-byte Spill
	test	al, 1
	mov	byte ptr [rbp - 5], al          # 1-byte Spill
	jne	.LBB85_3
# %bb.2:
	mov	al, byte ptr [rbp - 6]          # 1-byte Reload
	movabs	rcx, offset __llvm_gcov_ctr.85+16
	mov	rdx, qword ptr [rcx]
	inc	rdx
	mov	qword ptr [rcx], rdx
	movabs	rcx, offset .L__profc_gl_isinff+16
	mov	rdx, qword ptr [rcx]
	inc	rdx
	mov	qword ptr [rcx], rdx
	mov	byte ptr [rbp - 5], al          # 1-byte Spill
.LBB85_3:
	mov	al, byte ptr [rbp - 5]          # 1-byte Reload
	and	al, 1
	movzx	eax, al
	pop	rbp
	.cfi_def_cfa rsp, 8
	fldz
	fldz
	fldz
	fldz
	fldz
	fldz
	fldz
	fldz
	fstp	st(0)
	fstp	st(0)
	fstp	st(0)
	fstp	st(0)
	fstp	st(0)
	fstp	st(0)
	fstp	st(0)
	fstp	st(0)
	xor	ecx, ecx
	xor	edi, edi
	xor	edx, edx
	xor	esi, esi
	xor	r8d, r8d
	xor	r9d, r9d
	xor	r10d, r10d
	xor	r11d, r11d
	pxor	xmm0, xmm0
	pxor	xmm1, xmm1
	pxor	xmm2, xmm2
	pxor	xmm3, xmm3
	pxor	xmm4, xmm4
	pxor	xmm5, xmm5
	pxor	xmm6, xmm6
	pxor	xmm7, xmm7
	pxor	xmm8, xmm8
	pxor	xmm9, xmm9
	pxor	xmm10, xmm10
	pxor	xmm11, xmm11
	pxor	xmm12, xmm12
	pxor	xmm13, xmm13
	pxor	xmm14, xmm14
	pxor	xmm15, xmm15
	ret
	int3
.Lfunc_end85:
	.size	gl_isinff, .Lfunc_end85-gl_isinff
	.cfi_endproc
                                        # -- End function
	.section	.rodata.cst8,"aM",@progbits,8
	.p2align	3, 0x0                          # -- Begin function gl_isinfd
.LCPI86_0:
	.quad	0xffefffffffffffff              # double -1.7976931348623157E+308
.LCPI86_1:
	.quad	0x7fefffffffffffff              # double 1.7976931348623157E+308
	.section	.ltext,"axl",@progbits
	.globl	gl_isinfd
	.p2align	4, 0x90
	.type	gl_isinfd,@function
gl_isinfd:                              # @gl_isinfd
	.cfi_startproc
# %bb.0:
	push	rbp
	.cfi_def_cfa_offset 16
	.cfi_offset rbp, -16
	mov	rbp, rsp
	.cfi_def_cfa_register rbp
	movabs	rax, offset __llvm_gcov_ctr.86
	mov	rcx, qword ptr [rax]
	inc	rcx
	mov	qword ptr [rax], rcx
	movsd	qword ptr [rbp - 8], xmm0
	movabs	rax, offset .L__profc_gl_isinfd
	mov	rcx, qword ptr [rax]
	inc	rcx
	mov	qword ptr [rax], rcx
	mov	al, 1
	movabs	rcx, offset .LCPI86_0
	movsd	xmm0, qword ptr [rcx]           # xmm0 = mem[0],zero
	ucomisd	xmm0, qword ptr [rbp - 8]
	mov	byte ptr [rbp - 9], al          # 1-byte Spill
	ja	.LBB86_3
# %bb.1:
	movabs	rax, offset __llvm_gcov_ctr.86+8
	mov	rcx, qword ptr [rax]
	inc	rcx
	mov	qword ptr [rax], rcx
	movabs	rax, offset .L__profc_gl_isinfd+8
	mov	rcx, qword ptr [rax]
	inc	rcx
	mov	qword ptr [rax], rcx
	movsd	xmm0, qword ptr [rbp - 8]       # xmm0 = mem[0],zero
	movabs	rax, offset .LCPI86_1
	movsd	xmm1, qword ptr [rax]           # xmm1 = mem[0],zero
	ucomisd	xmm0, xmm1
	seta	al
	mov	byte ptr [rbp - 10], al         # 1-byte Spill
	test	al, 1
	mov	byte ptr [rbp - 9], al          # 1-byte Spill
	jne	.LBB86_3
# %bb.2:
	mov	al, byte ptr [rbp - 10]         # 1-byte Reload
	movabs	rcx, offset __llvm_gcov_ctr.86+16
	mov	rdx, qword ptr [rcx]
	inc	rdx
	mov	qword ptr [rcx], rdx
	movabs	rcx, offset .L__profc_gl_isinfd+16
	mov	rdx, qword ptr [rcx]
	inc	rdx
	mov	qword ptr [rcx], rdx
	mov	byte ptr [rbp - 9], al          # 1-byte Spill
.LBB86_3:
	mov	al, byte ptr [rbp - 9]          # 1-byte Reload
	and	al, 1
	movzx	eax, al
	pop	rbp
	.cfi_def_cfa rsp, 8
	fldz
	fldz
	fldz
	fldz
	fldz
	fldz
	fldz
	fldz
	fstp	st(0)
	fstp	st(0)
	fstp	st(0)
	fstp	st(0)
	fstp	st(0)
	fstp	st(0)
	fstp	st(0)
	fstp	st(0)
	xor	ecx, ecx
	xor	edi, edi
	xor	edx, edx
	xor	esi, esi
	xor	r8d, r8d
	xor	r9d, r9d
	xor	r10d, r10d
	xor	r11d, r11d
	pxor	xmm0, xmm0
	pxor	xmm1, xmm1
	pxor	xmm2, xmm2
	pxor	xmm3, xmm3
	pxor	xmm4, xmm4
	pxor	xmm5, xmm5
	pxor	xmm6, xmm6
	pxor	xmm7, xmm7
	pxor	xmm8, xmm8
	pxor	xmm9, xmm9
	pxor	xmm10, xmm10
	pxor	xmm11, xmm11
	pxor	xmm12, xmm12
	pxor	xmm13, xmm13
	pxor	xmm14, xmm14
	pxor	xmm15, xmm15
	ret
	int3
.Lfunc_end86:
	.size	gl_isinfd, .Lfunc_end86-gl_isinfd
	.cfi_endproc
                                        # -- End function
	.section	.rodata.cst16,"aM",@progbits,16
	.p2align	4, 0x0                          # -- Begin function gl_isinfl
.LCPI87_0:
	.quad	0xffffffffffffffff              # x86_fp80 -1.18973149535723176502E+4932
	.short	0xfffe
	.zero	6
.LCPI87_1:
	.quad	0xffffffffffffffff              # x86_fp80 1.18973149535723176502E+4932
	.short	0x7ffe
	.zero	6
	.section	.ltext,"axl",@progbits
	.globl	gl_isinfl
	.p2align	4, 0x90
	.type	gl_isinfl,@function
gl_isinfl:                              # @gl_isinfl
	.cfi_startproc
# %bb.0:
	push	rbp
	.cfi_def_cfa_offset 16
	.cfi_offset rbp, -16
	mov	rbp, rsp
	.cfi_def_cfa_register rbp
	fld	tbyte ptr [rbp + 16]
	movabs	rax, offset __llvm_gcov_ctr.87
	mov	rcx, qword ptr [rax]
	inc	rcx
	mov	qword ptr [rax], rcx
	fstp	tbyte ptr [rbp - 16]
	movabs	rax, offset .L__profc_gl_isinfl
	mov	rcx, qword ptr [rax]
	inc	rcx
	mov	qword ptr [rax], rcx
	fld	tbyte ptr [rbp - 16]
	mov	al, 1
	movabs	rcx, offset .LCPI87_0
	fld	tbyte ptr [rcx]
	fucompi	st, st(1)
	fstp	st(0)
	mov	byte ptr [rbp - 17], al         # 1-byte Spill
	ja	.LBB87_3
	jmp	.LBB87_1
.LBB87_1:
	movabs	rax, offset __llvm_gcov_ctr.87+8
	mov	rcx, qword ptr [rax]
	inc	rcx
	mov	qword ptr [rax], rcx
	movabs	rax, offset .L__profc_gl_isinfl+8
	mov	rcx, qword ptr [rax]
	inc	rcx
	mov	qword ptr [rax], rcx
	fld	tbyte ptr [rbp - 16]
	movabs	rax, offset .LCPI87_1
	fld	tbyte ptr [rax]
	fxch	st(1)
	fucompi	st, st(1)
	fstp	st(0)
	seta	al
	mov	byte ptr [rbp - 18], al         # 1-byte Spill
	test	al, 1
	mov	byte ptr [rbp - 17], al         # 1-byte Spill
	jne	.LBB87_3
# %bb.2:
	mov	al, byte ptr [rbp - 18]         # 1-byte Reload
	movabs	rcx, offset __llvm_gcov_ctr.87+16
	mov	rdx, qword ptr [rcx]
	inc	rdx
	mov	qword ptr [rcx], rdx
	movabs	rcx, offset .L__profc_gl_isinfl+16
	mov	rdx, qword ptr [rcx]
	inc	rdx
	mov	qword ptr [rcx], rdx
	mov	byte ptr [rbp - 17], al         # 1-byte Spill
.LBB87_3:
	mov	al, byte ptr [rbp - 17]         # 1-byte Reload
	and	al, 1
	movzx	eax, al
	pop	rbp
	.cfi_def_cfa rsp, 8
	fldz
	fldz
	fldz
	fldz
	fldz
	fldz
	fldz
	fldz
	fstp	st(0)
	fstp	st(0)
	fstp	st(0)
	fstp	st(0)
	fstp	st(0)
	fstp	st(0)
	fstp	st(0)
	fstp	st(0)
	xor	ecx, ecx
	xor	edi, edi
	xor	edx, edx
	xor	esi, esi
	xor	r8d, r8d
	xor	r9d, r9d
	xor	r10d, r10d
	xor	r11d, r11d
	pxor	xmm0, xmm0
	pxor	xmm1, xmm1
	pxor	xmm2, xmm2
	pxor	xmm3, xmm3
	pxor	xmm4, xmm4
	pxor	xmm5, xmm5
	pxor	xmm6, xmm6
	pxor	xmm7, xmm7
	pxor	xmm8, xmm8
	pxor	xmm9, xmm9
	pxor	xmm10, xmm10
	pxor	xmm11, xmm11
	pxor	xmm12, xmm12
	pxor	xmm13, xmm13
	pxor	xmm14, xmm14
	pxor	xmm15, xmm15
	ret
	int3
.Lfunc_end87:
	.size	gl_isinfl, .Lfunc_end87-gl_isinfl
	.cfi_endproc
                                        # -- End function
	.globl	_Qp_itoq                        # -- Begin function _Qp_itoq
	.p2align	4, 0x90
	.type	_Qp_itoq,@function
_Qp_itoq:                               # @_Qp_itoq
	.cfi_startproc
# %bb.0:
	push	rbp
	.cfi_def_cfa_offset 16
	.cfi_offset rbp, -16
	mov	rbp, rsp
	.cfi_def_cfa_register rbp
	movabs	rax, offset __llvm_gcov_ctr.88
	mov	rcx, qword ptr [rax]
	inc	rcx
	mov	qword ptr [rax], rcx
	mov	qword ptr [rbp - 8], rdi
	mov	dword ptr [rbp - 12], esi
	movabs	rax, offset .L__profc__Qp_itoq
	mov	rcx, qword ptr [rax]
	inc	rcx
	mov	qword ptr [rax], rcx
	cvtsi2sd	xmm0, dword ptr [rbp - 12]
	movsd	qword ptr [rbp - 24], xmm0
	fld	qword ptr [rbp - 24]
	mov	rax, qword ptr [rbp - 8]
	fstp	tbyte ptr [rax]
	pop	rbp
	.cfi_def_cfa rsp, 8
	fldz
	fldz
	fldz
	fldz
	fldz
	fldz
	fldz
	fldz
	fstp	st(0)
	fstp	st(0)
	fstp	st(0)
	fstp	st(0)
	fstp	st(0)
	fstp	st(0)
	fstp	st(0)
	fstp	st(0)
	xor	eax, eax
	xor	ecx, ecx
	xor	edi, edi
	xor	edx, edx
	xor	esi, esi
	xor	r8d, r8d
	xor	r9d, r9d
	xor	r10d, r10d
	xor	r11d, r11d
	pxor	xmm0, xmm0
	pxor	xmm1, xmm1
	pxor	xmm2, xmm2
	pxor	xmm3, xmm3
	pxor	xmm4, xmm4
	pxor	xmm5, xmm5
	pxor	xmm6, xmm6
	pxor	xmm7, xmm7
	pxor	xmm8, xmm8
	pxor	xmm9, xmm9
	pxor	xmm10, xmm10
	pxor	xmm11, xmm11
	pxor	xmm12, xmm12
	pxor	xmm13, xmm13
	pxor	xmm14, xmm14
	pxor	xmm15, xmm15
	ret
	int3
.Lfunc_end88:
	.size	_Qp_itoq, .Lfunc_end88-_Qp_itoq
	.cfi_endproc
                                        # -- End function
	.section	.rodata.cst4,"aM",@progbits,4
	.p2align	2, 0x0                          # -- Begin function ldexpf
.LCPI89_0:
	.long	0x3f000000                      # float 0.5
.LCPI89_1:
	.long	0x40000000                      # float 2
	.section	.ltext,"axl",@progbits
	.globl	ldexpf
	.p2align	4, 0x90
	.type	ldexpf,@function
ldexpf:                                 # @ldexpf
	.cfi_startproc
# %bb.0:
	push	rbp
	.cfi_def_cfa_offset 16
	.cfi_offset rbp, -16
	mov	rbp, rsp
	.cfi_def_cfa_register rbp
	movabs	rax, offset __llvm_gcov_ctr.89
	mov	rcx, qword ptr [rax]
	inc	rcx
	mov	qword ptr [rax], rcx
	movss	dword ptr [rbp - 4], xmm0
	mov	dword ptr [rbp - 8], edi
	movabs	rax, offset .L__profc_ldexpf
	mov	rcx, qword ptr [rax]
	inc	rcx
	mov	qword ptr [rax], rcx
	movss	xmm0, dword ptr [rbp - 4]       # xmm0 = mem[0],zero,zero,zero
	ucomiss	xmm0, xmm0
	setp	al
	test	al, 1
	jne	.LBB89_10
# %bb.1:
	movabs	rax, offset __llvm_gcov_ctr.89+8
	mov	rcx, qword ptr [rax]
	inc	rcx
	mov	qword ptr [rax], rcx
	movabs	rax, offset .L__profc_ldexpf+16
	mov	rcx, qword ptr [rax]
	inc	rcx
	mov	qword ptr [rax], rcx
	movss	xmm0, dword ptr [rbp - 4]       # xmm0 = mem[0],zero,zero,zero
	addss	xmm0, dword ptr [rbp - 4]
	ucomiss	xmm0, dword ptr [rbp - 4]
	jne	.LBB89_2
	jp	.LBB89_2
	jmp	.LBB89_10
.LBB89_2:
	movabs	rax, offset __llvm_gcov_ctr.89+16
	mov	rcx, qword ptr [rax]
	inc	rcx
	mov	qword ptr [rax], rcx
	movabs	rax, offset .L__profc_ldexpf+24
	mov	rcx, qword ptr [rax]
	inc	rcx
	mov	qword ptr [rax], rcx
# %bb.3:
	movabs	rax, offset .L__profc_ldexpf+8
	mov	rcx, qword ptr [rax]
	inc	rcx
	mov	qword ptr [rax], rcx
	mov	eax, dword ptr [rbp - 8]
	mov	ecx, eax
	shr	ecx, 31
	mov	esi, ecx
	movabs	rcx, offset .L__profc_ldexpf+32
	mov	rdx, qword ptr [rcx]
	add	rdx, rsi
	mov	qword ptr [rcx], rdx
	movabs	rcx, offset .LCPI89_0
	movss	xmm0, dword ptr [rcx]           # xmm0 = mem[0],zero,zero,zero
	movabs	rcx, offset .LCPI89_1
	movss	xmm1, dword ptr [rcx]           # xmm1 = mem[0],zero,zero,zero
	movss	dword ptr [rbp - 20], xmm1      # 4-byte Spill
	cmp	eax, 0
	movss	dword ptr [rbp - 16], xmm0      # 4-byte Spill
	jl	.LBB89_12
# %bb.11:
	movss	xmm0, dword ptr [rbp - 20]      # 4-byte Reload
                                        # xmm0 = mem[0],zero,zero,zero
	movss	dword ptr [rbp - 16], xmm0      # 4-byte Spill
.LBB89_12:
	movss	xmm0, dword ptr [rbp - 16]      # 4-byte Reload
                                        # xmm0 = mem[0],zero,zero,zero
	movss	dword ptr [rbp - 12], xmm0
.LBB89_4:                               # =>This Inner Loop Header: Depth=1
	movabs	rax, offset .L__profc_ldexpf+40
	mov	rcx, qword ptr [rax]
	inc	rcx
	mov	qword ptr [rax], rcx
	mov	eax, dword ptr [rbp - 8]
	mov	ecx, 2
	cdq
	idiv	ecx
	cmp	edx, 0
	je	.LBB89_6
# %bb.5:                                #   in Loop: Header=BB89_4 Depth=1
	movabs	rax, offset __llvm_gcov_ctr.89+24
	mov	rcx, qword ptr [rax]
	inc	rcx
	mov	qword ptr [rax], rcx
	movabs	rax, offset .L__profc_ldexpf+48
	mov	rcx, qword ptr [rax]
	inc	rcx
	mov	qword ptr [rax], rcx
	movss	xmm0, dword ptr [rbp - 12]      # xmm0 = mem[0],zero,zero,zero
	mulss	xmm0, dword ptr [rbp - 4]
	movss	dword ptr [rbp - 4], xmm0
.LBB89_6:                               #   in Loop: Header=BB89_4 Depth=1
	mov	eax, dword ptr [rbp - 8]
	mov	ecx, 2
	cdq
	idiv	ecx
	mov	dword ptr [rbp - 8], eax
	cmp	dword ptr [rbp - 8], 0
	jne	.LBB89_8
# %bb.7:
	movabs	rax, offset .L__profc_ldexpf+56
	mov	rcx, qword ptr [rax]
	inc	rcx
	mov	qword ptr [rax], rcx
	jmp	.LBB89_9
.LBB89_8:                               #   in Loop: Header=BB89_4 Depth=1
	movabs	rax, offset __llvm_gcov_ctr.89+32
	mov	rcx, qword ptr [rax]
	inc	rcx
	mov	qword ptr [rax], rcx
	movss	xmm0, dword ptr [rbp - 12]      # xmm0 = mem[0],zero,zero,zero
	mulss	xmm0, dword ptr [rbp - 12]
	movss	dword ptr [rbp - 12], xmm0
	jmp	.LBB89_4
.LBB89_9:
	jmp	.LBB89_10
.LBB89_10:
	movss	xmm0, dword ptr [rbp - 4]       # xmm0 = mem[0],zero,zero,zero
	pop	rbp
	.cfi_def_cfa rsp, 8
	fldz
	fldz
	fldz
	fldz
	fldz
	fldz
	fldz
	fldz
	fstp	st(0)
	fstp	st(0)
	fstp	st(0)
	fstp	st(0)
	fstp	st(0)
	fstp	st(0)
	fstp	st(0)
	fstp	st(0)
	xor	eax, eax
	xor	ecx, ecx
	xor	edi, edi
	xor	edx, edx
	xor	esi, esi
	xor	r8d, r8d
	xor	r9d, r9d
	xor	r10d, r10d
	xor	r11d, r11d
	pxor	xmm1, xmm1
	pxor	xmm2, xmm2
	pxor	xmm3, xmm3
	pxor	xmm4, xmm4
	pxor	xmm5, xmm5
	pxor	xmm6, xmm6
	pxor	xmm7, xmm7
	pxor	xmm8, xmm8
	pxor	xmm9, xmm9
	pxor	xmm10, xmm10
	pxor	xmm11, xmm11
	pxor	xmm12, xmm12
	pxor	xmm13, xmm13
	pxor	xmm14, xmm14
	pxor	xmm15, xmm15
	ret
	int3
.Lfunc_end89:
	.size	ldexpf, .Lfunc_end89-ldexpf
	.cfi_endproc
                                        # -- End function
	.section	.rodata.cst8,"aM",@progbits,8
	.p2align	3, 0x0                          # -- Begin function ldexp
.LCPI90_0:
	.quad	0x3fe0000000000000              # double 0.5
.LCPI90_1:
	.quad	0x4000000000000000              # double 2
	.section	.ltext,"axl",@progbits
	.globl	ldexp
	.p2align	4, 0x90
	.type	ldexp,@function
ldexp:                                  # @ldexp
	.cfi_startproc
# %bb.0:
	push	rbp
	.cfi_def_cfa_offset 16
	.cfi_offset rbp, -16
	mov	rbp, rsp
	.cfi_def_cfa_register rbp
	movabs	rax, offset __llvm_gcov_ctr.90
	mov	rcx, qword ptr [rax]
	inc	rcx
	mov	qword ptr [rax], rcx
	movsd	qword ptr [rbp - 8], xmm0
	mov	dword ptr [rbp - 12], edi
	movabs	rax, offset .L__profc_ldexp
	mov	rcx, qword ptr [rax]
	inc	rcx
	mov	qword ptr [rax], rcx
	movsd	xmm0, qword ptr [rbp - 8]       # xmm0 = mem[0],zero
	ucomisd	xmm0, xmm0
	setp	al
	test	al, 1
	jne	.LBB90_10
# %bb.1:
	movabs	rax, offset __llvm_gcov_ctr.90+8
	mov	rcx, qword ptr [rax]
	inc	rcx
	mov	qword ptr [rax], rcx
	movabs	rax, offset .L__profc_ldexp+16
	mov	rcx, qword ptr [rax]
	inc	rcx
	mov	qword ptr [rax], rcx
	movsd	xmm0, qword ptr [rbp - 8]       # xmm0 = mem[0],zero
	addsd	xmm0, qword ptr [rbp - 8]
	ucomisd	xmm0, qword ptr [rbp - 8]
	jne	.LBB90_2
	jp	.LBB90_2
	jmp	.LBB90_10
.LBB90_2:
	movabs	rax, offset __llvm_gcov_ctr.90+16
	mov	rcx, qword ptr [rax]
	inc	rcx
	mov	qword ptr [rax], rcx
	movabs	rax, offset .L__profc_ldexp+24
	mov	rcx, qword ptr [rax]
	inc	rcx
	mov	qword ptr [rax], rcx
# %bb.3:
	movabs	rax, offset .L__profc_ldexp+8
	mov	rcx, qword ptr [rax]
	inc	rcx
	mov	qword ptr [rax], rcx
	mov	eax, dword ptr [rbp - 12]
	mov	ecx, eax
	shr	ecx, 31
	mov	esi, ecx
	movabs	rcx, offset .L__profc_ldexp+32
	mov	rdx, qword ptr [rcx]
	add	rdx, rsi
	mov	qword ptr [rcx], rdx
	movabs	rcx, offset .LCPI90_0
	movsd	xmm0, qword ptr [rcx]           # xmm0 = mem[0],zero
	movabs	rcx, offset .LCPI90_1
	movsd	xmm1, qword ptr [rcx]           # xmm1 = mem[0],zero
	movsd	qword ptr [rbp - 40], xmm1      # 8-byte Spill
	cmp	eax, 0
	movsd	qword ptr [rbp - 32], xmm0      # 8-byte Spill
	jl	.LBB90_12
# %bb.11:
	movsd	xmm0, qword ptr [rbp - 40]      # 8-byte Reload
                                        # xmm0 = mem[0],zero
	movsd	qword ptr [rbp - 32], xmm0      # 8-byte Spill
.LBB90_12:
	movsd	xmm0, qword ptr [rbp - 32]      # 8-byte Reload
                                        # xmm0 = mem[0],zero
	movsd	qword ptr [rbp - 24], xmm0
.LBB90_4:                               # =>This Inner Loop Header: Depth=1
	movabs	rax, offset .L__profc_ldexp+40
	mov	rcx, qword ptr [rax]
	inc	rcx
	mov	qword ptr [rax], rcx
	mov	eax, dword ptr [rbp - 12]
	mov	ecx, 2
	cdq
	idiv	ecx
	cmp	edx, 0
	je	.LBB90_6
# %bb.5:                                #   in Loop: Header=BB90_4 Depth=1
	movabs	rax, offset __llvm_gcov_ctr.90+24
	mov	rcx, qword ptr [rax]
	inc	rcx
	mov	qword ptr [rax], rcx
	movabs	rax, offset .L__profc_ldexp+48
	mov	rcx, qword ptr [rax]
	inc	rcx
	mov	qword ptr [rax], rcx
	movsd	xmm0, qword ptr [rbp - 24]      # xmm0 = mem[0],zero
	mulsd	xmm0, qword ptr [rbp - 8]
	movsd	qword ptr [rbp - 8], xmm0
.LBB90_6:                               #   in Loop: Header=BB90_4 Depth=1
	mov	eax, dword ptr [rbp - 12]
	mov	ecx, 2
	cdq
	idiv	ecx
	mov	dword ptr [rbp - 12], eax
	cmp	dword ptr [rbp - 12], 0
	jne	.LBB90_8
# %bb.7:
	movabs	rax, offset .L__profc_ldexp+56
	mov	rcx, qword ptr [rax]
	inc	rcx
	mov	qword ptr [rax], rcx
	jmp	.LBB90_9
.LBB90_8:                               #   in Loop: Header=BB90_4 Depth=1
	movabs	rax, offset __llvm_gcov_ctr.90+32
	mov	rcx, qword ptr [rax]
	inc	rcx
	mov	qword ptr [rax], rcx
	movsd	xmm0, qword ptr [rbp - 24]      # xmm0 = mem[0],zero
	mulsd	xmm0, qword ptr [rbp - 24]
	movsd	qword ptr [rbp - 24], xmm0
	jmp	.LBB90_4
.LBB90_9:
	jmp	.LBB90_10
.LBB90_10:
	movsd	xmm0, qword ptr [rbp - 8]       # xmm0 = mem[0],zero
	pop	rbp
	.cfi_def_cfa rsp, 8
	fldz
	fldz
	fldz
	fldz
	fldz
	fldz
	fldz
	fldz
	fstp	st(0)
	fstp	st(0)
	fstp	st(0)
	fstp	st(0)
	fstp	st(0)
	fstp	st(0)
	fstp	st(0)
	fstp	st(0)
	xor	eax, eax
	xor	ecx, ecx
	xor	edi, edi
	xor	edx, edx
	xor	esi, esi
	xor	r8d, r8d
	xor	r9d, r9d
	xor	r10d, r10d
	xor	r11d, r11d
	pxor	xmm1, xmm1
	pxor	xmm2, xmm2
	pxor	xmm3, xmm3
	pxor	xmm4, xmm4
	pxor	xmm5, xmm5
	pxor	xmm6, xmm6
	pxor	xmm7, xmm7
	pxor	xmm8, xmm8
	pxor	xmm9, xmm9
	pxor	xmm10, xmm10
	pxor	xmm11, xmm11
	pxor	xmm12, xmm12
	pxor	xmm13, xmm13
	pxor	xmm14, xmm14
	pxor	xmm15, xmm15
	ret
	int3
.Lfunc_end90:
	.size	ldexp, .Lfunc_end90-ldexp
	.cfi_endproc
                                        # -- End function
	.section	.rodata.cst32,"aM",@progbits,32
	.p2align	4, 0x0                          # -- Begin function ldexpl
.LCPI91_0:
	.quad	0x8000000000000000              # x86_fp80 2
	.short	0x4000
	.zero	6
	.quad	0x8000000000000000              # x86_fp80 0.5
	.short	0x3ffe
	.zero	6
	.section	.ltext,"axl",@progbits
	.globl	ldexpl
	.p2align	4, 0x90
	.type	ldexpl,@function
ldexpl:                                 # @ldexpl
	.cfi_startproc
# %bb.0:
	push	rbp
	.cfi_def_cfa_offset 16
	.cfi_offset rbp, -16
	mov	rbp, rsp
	.cfi_def_cfa_register rbp
	fld	tbyte ptr [rbp + 16]
	movabs	rax, offset __llvm_gcov_ctr.91
	mov	rcx, qword ptr [rax]
	inc	rcx
	mov	qword ptr [rax], rcx
	fstp	tbyte ptr [rbp - 16]
	mov	dword ptr [rbp - 20], edi
	movabs	rax, offset .L__profc_ldexpl
	mov	rcx, qword ptr [rax]
	inc	rcx
	mov	qword ptr [rax], rcx
	fld	tbyte ptr [rbp - 16]
	fucompi	st, st(0)
	setp	al
	test	al, 1
	jne	.LBB91_10
# %bb.1:
	movabs	rax, offset __llvm_gcov_ctr.91+8
	mov	rcx, qword ptr [rax]
	inc	rcx
	mov	qword ptr [rax], rcx
	movabs	rax, offset .L__profc_ldexpl+16
	mov	rcx, qword ptr [rax]
	inc	rcx
	mov	qword ptr [rax], rcx
	fld	tbyte ptr [rbp - 16]
	fld	st(0)
	fadd	st, st(1)
	fucompi	st, st(1)
	fstp	st(0)
	jne	.LBB91_2
	jp	.LBB91_2
	jmp	.LBB91_10
.LBB91_2:
	movabs	rax, offset __llvm_gcov_ctr.91+16
	mov	rcx, qword ptr [rax]
	inc	rcx
	mov	qword ptr [rax], rcx
	movabs	rax, offset .L__profc_ldexpl+24
	mov	rcx, qword ptr [rax]
	inc	rcx
	mov	qword ptr [rax], rcx
# %bb.3:
	movabs	rax, offset .L__profc_ldexpl+8
	mov	rcx, qword ptr [rax]
	inc	rcx
	mov	qword ptr [rax], rcx
	mov	eax, dword ptr [rbp - 20]
	mov	ecx, eax
	shr	ecx, 31
	mov	esi, ecx
	movabs	rcx, offset .L__profc_ldexpl+32
	mov	rdx, qword ptr [rcx]
	add	rdx, rsi
	mov	qword ptr [rcx], rdx
	shr	eax, 27
	and	eax, -16
	mov	ecx, eax
	movabs	rax, offset .LCPI91_0
	fld	tbyte ptr [rax + rcx]
	fstp	tbyte ptr [rbp - 48]
.LBB91_4:                               # =>This Inner Loop Header: Depth=1
	movabs	rax, offset .L__profc_ldexpl+40
	mov	rcx, qword ptr [rax]
	inc	rcx
	mov	qword ptr [rax], rcx
	mov	eax, dword ptr [rbp - 20]
	mov	ecx, 2
	cdq
	idiv	ecx
	cmp	edx, 0
	je	.LBB91_6
# %bb.5:                                #   in Loop: Header=BB91_4 Depth=1
	movabs	rax, offset __llvm_gcov_ctr.91+24
	mov	rcx, qword ptr [rax]
	inc	rcx
	mov	qword ptr [rax], rcx
	movabs	rax, offset .L__profc_ldexpl+48
	mov	rcx, qword ptr [rax]
	inc	rcx
	mov	qword ptr [rax], rcx
	fld	tbyte ptr [rbp - 48]
	fld	tbyte ptr [rbp - 16]
	fmulp	st(1), st
	fstp	tbyte ptr [rbp - 16]
.LBB91_6:                               #   in Loop: Header=BB91_4 Depth=1
	mov	eax, dword ptr [rbp - 20]
	mov	ecx, 2
	cdq
	idiv	ecx
	mov	dword ptr [rbp - 20], eax
	cmp	dword ptr [rbp - 20], 0
	jne	.LBB91_8
# %bb.7:
	movabs	rax, offset .L__profc_ldexpl+56
	mov	rcx, qword ptr [rax]
	inc	rcx
	mov	qword ptr [rax], rcx
	jmp	.LBB91_9
.LBB91_8:                               #   in Loop: Header=BB91_4 Depth=1
	movabs	rax, offset __llvm_gcov_ctr.91+32
	mov	rcx, qword ptr [rax]
	inc	rcx
	mov	qword ptr [rax], rcx
	fld	tbyte ptr [rbp - 48]
	fmul	st(0), st
	fstp	tbyte ptr [rbp - 48]
	jmp	.LBB91_4
.LBB91_9:
	jmp	.LBB91_10
.LBB91_10:
	fld	tbyte ptr [rbp - 16]
	pop	rbp
	.cfi_def_cfa rsp, 8
	fldz
	fldz
	fldz
	fldz
	fldz
	fldz
	fldz
	fldz
	fstp	st(0)
	fstp	st(0)
	fstp	st(0)
	fstp	st(0)
	fstp	st(0)
	fstp	st(0)
	fstp	st(0)
	fstp	st(0)
	xor	eax, eax
	xor	ecx, ecx
	xor	edi, edi
	xor	edx, edx
	xor	esi, esi
	xor	r8d, r8d
	xor	r9d, r9d
	xor	r10d, r10d
	xor	r11d, r11d
	pxor	xmm0, xmm0
	pxor	xmm1, xmm1
	pxor	xmm2, xmm2
	pxor	xmm3, xmm3
	pxor	xmm4, xmm4
	pxor	xmm5, xmm5
	pxor	xmm6, xmm6
	pxor	xmm7, xmm7
	pxor	xmm8, xmm8
	pxor	xmm9, xmm9
	pxor	xmm10, xmm10
	pxor	xmm11, xmm11
	pxor	xmm12, xmm12
	pxor	xmm13, xmm13
	pxor	xmm14, xmm14
	pxor	xmm15, xmm15
	ret
	int3
.Lfunc_end91:
	.size	ldexpl, .Lfunc_end91-ldexpl
	.cfi_endproc
                                        # -- End function
	.globl	memxor                          # -- Begin function memxor
	.p2align	4, 0x90
	.type	memxor,@function
memxor:                                 # @memxor
	.cfi_startproc
# %bb.0:
	push	rbp
	.cfi_def_cfa_offset 16
	.cfi_offset rbp, -16
	mov	rbp, rsp
	.cfi_def_cfa_register rbp
	movabs	rax, offset __llvm_gcov_ctr.92
	mov	rcx, qword ptr [rax]
	inc	rcx
	mov	qword ptr [rax], rcx
	mov	qword ptr [rbp - 8], rdi
	mov	qword ptr [rbp - 16], rsi
	mov	qword ptr [rbp - 24], rdx
	movabs	rax, offset .L__profc_memxor
	mov	rcx, qword ptr [rax]
	inc	rcx
	mov	qword ptr [rax], rcx
	mov	rax, qword ptr [rbp - 16]
	mov	qword ptr [rbp - 32], rax
	mov	rax, qword ptr [rbp - 8]
	mov	qword ptr [rbp - 40], rax
.LBB92_1:                               # =>This Inner Loop Header: Depth=1
	cmp	qword ptr [rbp - 24], 0
	jbe	.LBB92_4
# %bb.2:                                #   in Loop: Header=BB92_1 Depth=1
	movabs	rax, offset .L__profc_memxor+8
	mov	rcx, qword ptr [rax]
	inc	rcx
	mov	qword ptr [rax], rcx
	mov	rax, qword ptr [rbp - 32]
	mov	rcx, rax
	add	rcx, 1
	mov	qword ptr [rbp - 32], rcx
	movsx	edx, byte ptr [rax]
	mov	rax, qword ptr [rbp - 40]
	mov	rcx, rax
	add	rcx, 1
	mov	qword ptr [rbp - 40], rcx
	movsx	ecx, byte ptr [rax]
	xor	ecx, edx
                                        # kill: def $cl killed $cl killed $ecx
	mov	byte ptr [rax], cl
# %bb.3:                                #   in Loop: Header=BB92_1 Depth=1
	movabs	rax, offset __llvm_gcov_ctr.92+8
	mov	rcx, qword ptr [rax]
	inc	rcx
	mov	qword ptr [rax], rcx
	mov	rax, qword ptr [rbp - 24]
	add	rax, -1
	mov	qword ptr [rbp - 24], rax
	jmp	.LBB92_1
.LBB92_4:
	mov	rax, qword ptr [rbp - 8]
	pop	rbp
	.cfi_def_cfa rsp, 8
	fldz
	fldz
	fldz
	fldz
	fldz
	fldz
	fldz
	fldz
	fstp	st(0)
	fstp	st(0)
	fstp	st(0)
	fstp	st(0)
	fstp	st(0)
	fstp	st(0)
	fstp	st(0)
	fstp	st(0)
	xor	ecx, ecx
	xor	edi, edi
	xor	edx, edx
	xor	esi, esi
	xor	r8d, r8d
	xor	r9d, r9d
	xor	r10d, r10d
	xor	r11d, r11d
	pxor	xmm0, xmm0
	pxor	xmm1, xmm1
	pxor	xmm2, xmm2
	pxor	xmm3, xmm3
	pxor	xmm4, xmm4
	pxor	xmm5, xmm5
	pxor	xmm6, xmm6
	pxor	xmm7, xmm7
	pxor	xmm8, xmm8
	pxor	xmm9, xmm9
	pxor	xmm10, xmm10
	pxor	xmm11, xmm11
	pxor	xmm12, xmm12
	pxor	xmm13, xmm13
	pxor	xmm14, xmm14
	pxor	xmm15, xmm15
	ret
	int3
.Lfunc_end92:
	.size	memxor, .Lfunc_end92-memxor
	.cfi_endproc
                                        # -- End function
	.globl	strncat                         # -- Begin function strncat
	.p2align	4, 0x90
	.type	strncat,@function
strncat:                                # @strncat
	.cfi_startproc
# %bb.0:
	push	rbp
	.cfi_def_cfa_offset 16
	.cfi_offset rbp, -16
	mov	rbp, rsp
	.cfi_def_cfa_register rbp
	sub	rsp, 48
	mov	qword ptr [rbp - 8], rdi
	mov	qword ptr [rbp - 16], rsi
	mov	qword ptr [rbp - 24], rdx
	movabs	rax, offset .L__profc_strncat
	mov	rcx, qword ptr [rax]
	inc	rcx
	mov	qword ptr [rax], rcx
	mov	rax, qword ptr [rbp - 8]
	mov	qword ptr [rbp - 40], rax       # 8-byte Spill
	mov	rdi, qword ptr [rbp - 8]
	movabs	rax, offset strlen
	call	rax
	mov	rcx, rax
	mov	rax, qword ptr [rbp - 40]       # 8-byte Reload
	add	rax, rcx
	mov	qword ptr [rbp - 32], rax
.LBB93_1:                               # =>This Inner Loop Header: Depth=1
	xor	eax, eax
                                        # kill: def $al killed $al killed $eax
	cmp	qword ptr [rbp - 24], 0
	mov	byte ptr [rbp - 41], al         # 1-byte Spill
	jbe	.LBB93_4
# %bb.2:                                #   in Loop: Header=BB93_1 Depth=1
	movabs	rax, offset __llvm_gcov_ctr.93
	mov	rcx, qword ptr [rax]
	inc	rcx
	mov	qword ptr [rax], rcx
	movabs	rax, offset .L__profc_strncat+16
	mov	rcx, qword ptr [rax]
	inc	rcx
	mov	qword ptr [rax], rcx
	mov	rax, qword ptr [rbp - 16]
	mov	al, byte ptr [rax]
	mov	rcx, qword ptr [rbp - 32]
	mov	byte ptr [rcx], al
	movsx	eax, al
	cmp	eax, 0
	setne	al
	mov	byte ptr [rbp - 42], al         # 1-byte Spill
	test	al, 1
	mov	byte ptr [rbp - 41], al         # 1-byte Spill
	jne	.LBB93_3
	jmp	.LBB93_4
.LBB93_3:                               #   in Loop: Header=BB93_1 Depth=1
	mov	al, byte ptr [rbp - 42]         # 1-byte Reload
	movabs	rcx, offset __llvm_gcov_ctr.93+8
	mov	rdx, qword ptr [rcx]
	inc	rdx
	mov	qword ptr [rcx], rdx
	movabs	rcx, offset .L__profc_strncat+24
	mov	rdx, qword ptr [rcx]
	inc	rdx
	mov	qword ptr [rcx], rdx
	mov	byte ptr [rbp - 41], al         # 1-byte Spill
.LBB93_4:                               #   in Loop: Header=BB93_1 Depth=1
	mov	al, byte ptr [rbp - 41]         # 1-byte Reload
	test	al, 1
	jne	.LBB93_5
	jmp	.LBB93_7
.LBB93_5:                               #   in Loop: Header=BB93_1 Depth=1
	movabs	rax, offset .L__profc_strncat+8
	mov	rcx, qword ptr [rax]
	inc	rcx
	mov	qword ptr [rax], rcx
# %bb.6:                                #   in Loop: Header=BB93_1 Depth=1
	movabs	rax, offset __llvm_gcov_ctr.93+24
	mov	rcx, qword ptr [rax]
	inc	rcx
	mov	qword ptr [rax], rcx
	mov	rax, qword ptr [rbp - 16]
	add	rax, 1
	mov	qword ptr [rbp - 16], rax
	mov	rax, qword ptr [rbp - 32]
	add	rax, 1
	mov	qword ptr [rbp - 32], rax
	mov	rax, qword ptr [rbp - 24]
	add	rax, -1
	mov	qword ptr [rbp - 24], rax
	jmp	.LBB93_1
.LBB93_7:
	movabs	rax, offset __llvm_gcov_ctr.93+16
	mov	rcx, qword ptr [rax]
	inc	rcx
	mov	qword ptr [rax], rcx
	cmp	qword ptr [rbp - 24], 0
	jne	.LBB93_9
# %bb.8:
	movabs	rax, offset __llvm_gcov_ctr.93+32
	mov	rcx, qword ptr [rax]
	inc	rcx
	mov	qword ptr [rax], rcx
	movabs	rax, offset .L__profc_strncat+32
	mov	rcx, qword ptr [rax]
	inc	rcx
	mov	qword ptr [rax], rcx
	mov	rax, qword ptr [rbp - 32]
	mov	byte ptr [rax], 0
.LBB93_9:
	mov	rax, qword ptr [rbp - 8]
	add	rsp, 48
	pop	rbp
	.cfi_def_cfa rsp, 8
	fldz
	fldz
	fldz
	fldz
	fldz
	fldz
	fldz
	fldz
	fstp	st(0)
	fstp	st(0)
	fstp	st(0)
	fstp	st(0)
	fstp	st(0)
	fstp	st(0)
	fstp	st(0)
	fstp	st(0)
	xor	ecx, ecx
	xor	edi, edi
	xor	edx, edx
	xor	esi, esi
	xor	r8d, r8d
	xor	r9d, r9d
	xor	r10d, r10d
	xor	r11d, r11d
	pxor	xmm0, xmm0
	pxor	xmm1, xmm1
	pxor	xmm2, xmm2
	pxor	xmm3, xmm3
	pxor	xmm4, xmm4
	pxor	xmm5, xmm5
	pxor	xmm6, xmm6
	pxor	xmm7, xmm7
	pxor	xmm8, xmm8
	pxor	xmm9, xmm9
	pxor	xmm10, xmm10
	pxor	xmm11, xmm11
	pxor	xmm12, xmm12
	pxor	xmm13, xmm13
	pxor	xmm14, xmm14
	pxor	xmm15, xmm15
	ret
	int3
.Lfunc_end93:
	.size	strncat, .Lfunc_end93-strncat
	.cfi_endproc
                                        # -- End function
	.globl	strnlen                         # -- Begin function strnlen
	.p2align	4, 0x90
	.type	strnlen,@function
strnlen:                                # @strnlen
	.cfi_startproc
# %bb.0:
	push	rbp
	.cfi_def_cfa_offset 16
	.cfi_offset rbp, -16
	mov	rbp, rsp
	.cfi_def_cfa_register rbp
	movabs	rax, offset __llvm_gcov_ctr.94
	mov	rcx, qword ptr [rax]
	inc	rcx
	mov	qword ptr [rax], rcx
	mov	qword ptr [rbp - 8], rdi
	mov	qword ptr [rbp - 16], rsi
	movabs	rax, offset .L__profc_strnlen
	mov	rcx, qword ptr [rax]
	inc	rcx
	mov	qword ptr [rax], rcx
	mov	qword ptr [rbp - 24], 0
.LBB94_1:                               # =>This Inner Loop Header: Depth=1
	mov	rcx, qword ptr [rbp - 24]
	xor	eax, eax
                                        # kill: def $al killed $al killed $eax
	cmp	rcx, qword ptr [rbp - 16]
	mov	byte ptr [rbp - 25], al         # 1-byte Spill
	jae	.LBB94_4
# %bb.2:                                #   in Loop: Header=BB94_1 Depth=1
	movabs	rax, offset __llvm_gcov_ctr.94+8
	mov	rcx, qword ptr [rax]
	inc	rcx
	mov	qword ptr [rax], rcx
	movabs	rax, offset .L__profc_strnlen+16
	mov	rcx, qword ptr [rax]
	inc	rcx
	mov	qword ptr [rax], rcx
	mov	rax, qword ptr [rbp - 8]
	mov	rcx, qword ptr [rbp - 24]
	movsx	eax, byte ptr [rax + rcx]
	cmp	eax, 0
	setne	al
	mov	byte ptr [rbp - 26], al         # 1-byte Spill
	test	al, 1
	mov	byte ptr [rbp - 25], al         # 1-byte Spill
	jne	.LBB94_3
	jmp	.LBB94_4
.LBB94_3:                               #   in Loop: Header=BB94_1 Depth=1
	mov	al, byte ptr [rbp - 26]         # 1-byte Reload
	movabs	rcx, offset __llvm_gcov_ctr.94+16
	mov	rdx, qword ptr [rcx]
	inc	rdx
	mov	qword ptr [rcx], rdx
	movabs	rcx, offset .L__profc_strnlen+24
	mov	rdx, qword ptr [rcx]
	inc	rdx
	mov	qword ptr [rcx], rdx
	mov	byte ptr [rbp - 25], al         # 1-byte Spill
.LBB94_4:                               #   in Loop: Header=BB94_1 Depth=1
	mov	al, byte ptr [rbp - 25]         # 1-byte Reload
	test	al, 1
	jne	.LBB94_5
	jmp	.LBB94_7
.LBB94_5:                               #   in Loop: Header=BB94_1 Depth=1
	movabs	rax, offset .L__profc_strnlen+8
	mov	rcx, qword ptr [rax]
	inc	rcx
	mov	qword ptr [rax], rcx
# %bb.6:                                #   in Loop: Header=BB94_1 Depth=1
	movabs	rax, offset __llvm_gcov_ctr.94+24
	mov	rcx, qword ptr [rax]
	inc	rcx
	mov	qword ptr [rax], rcx
	mov	rax, qword ptr [rbp - 24]
	add	rax, 1
	mov	qword ptr [rbp - 24], rax
	jmp	.LBB94_1
.LBB94_7:
	mov	rax, qword ptr [rbp - 24]
	pop	rbp
	.cfi_def_cfa rsp, 8
	fldz
	fldz
	fldz
	fldz
	fldz
	fldz
	fldz
	fldz
	fstp	st(0)
	fstp	st(0)
	fstp	st(0)
	fstp	st(0)
	fstp	st(0)
	fstp	st(0)
	fstp	st(0)
	fstp	st(0)
	xor	ecx, ecx
	xor	edi, edi
	xor	edx, edx
	xor	esi, esi
	xor	r8d, r8d
	xor	r9d, r9d
	xor	r10d, r10d
	xor	r11d, r11d
	pxor	xmm0, xmm0
	pxor	xmm1, xmm1
	pxor	xmm2, xmm2
	pxor	xmm3, xmm3
	pxor	xmm4, xmm4
	pxor	xmm5, xmm5
	pxor	xmm6, xmm6
	pxor	xmm7, xmm7
	pxor	xmm8, xmm8
	pxor	xmm9, xmm9
	pxor	xmm10, xmm10
	pxor	xmm11, xmm11
	pxor	xmm12, xmm12
	pxor	xmm13, xmm13
	pxor	xmm14, xmm14
	pxor	xmm15, xmm15
	ret
	int3
.Lfunc_end94:
	.size	strnlen, .Lfunc_end94-strnlen
	.cfi_endproc
                                        # -- End function
	.globl	strpbrk                         # -- Begin function strpbrk
	.p2align	4, 0x90
	.type	strpbrk,@function
strpbrk:                                # @strpbrk
	.cfi_startproc
# %bb.0:
	push	rbp
	.cfi_def_cfa_offset 16
	.cfi_offset rbp, -16
	mov	rbp, rsp
	.cfi_def_cfa_register rbp
	mov	qword ptr [rbp - 16], rdi
	mov	qword ptr [rbp - 24], rsi
	movabs	rax, offset .L__profc_strpbrk
	mov	rcx, qword ptr [rax]
	inc	rcx
	mov	qword ptr [rax], rcx
.LBB95_1:                               # =>This Loop Header: Depth=1
                                        #     Child Loop BB95_3 Depth 2
	mov	rax, qword ptr [rbp - 16]
	movsx	eax, byte ptr [rax]
	cmp	eax, 0
	je	.LBB95_8
# %bb.2:                                #   in Loop: Header=BB95_1 Depth=1
	movabs	rax, offset .L__profc_strpbrk+8
	mov	rcx, qword ptr [rax]
	inc	rcx
	mov	qword ptr [rax], rcx
	mov	rax, qword ptr [rbp - 24]
	mov	qword ptr [rbp - 32], rax
.LBB95_3:                               #   Parent Loop BB95_1 Depth=1
                                        # =>  This Inner Loop Header: Depth=2
