	.file	"mini-libc.c"
	.intel_syntax noprefix
	.text
	.globl	_memmove
	.def	_memmove;	.scl	2;	.type	32;	.endef
_memmove:
LFB2:
	.cfi_startproc
	push	ebp
	.cfi_def_cfa_offset 8
	.cfi_offset 5, -8
	push	edi
	.cfi_def_cfa_offset 12
	.cfi_offset 7, -12
	push	esi
	.cfi_def_cfa_offset 16
	.cfi_offset 6, -16
	push	ebx
	.cfi_def_cfa_offset 20
	.cfi_offset 3, -20
	mov	ebp, DWORD PTR [esp+20]
	mov	edx, DWORD PTR [esp+24]
	mov	esi, DWORD PTR [esp+28]
	cmp	edx, ebp
	jnb	L2
	lea	ecx, [ebp+0+esi]
	mov	eax, esi
	neg	esi
	jmp	L3
	.p2align 5
L4:
	lea	edi, [ecx+esi]
	movzx	ebx, BYTE PTR [edx-1+eax]
	mov	BYTE PTR [edi-1+eax], bl
	sub	eax, 1
L3:
	test	eax, eax
	jne	L4
L5:
	mov	eax, ebp
	pop	ebx
	.cfi_remember_state
	.cfi_restore 3
	.cfi_def_cfa_offset 16
	pop	esi
	.cfi_restore 6
	.cfi_def_cfa_offset 12
	pop	edi
	.cfi_restore 7
	.cfi_def_cfa_offset 8
	pop	ebp
	.cfi_restore 5
	.cfi_def_cfa_offset 4
	ret
L2:
	.cfi_restore_state
	cmp	ebp, edx
	je	L5
	add	esi, ebp
	mov	eax, edx
	mov	ecx, ebp
	jmp	L6
	.p2align 5
L7:
	add	eax, 1
	add	ecx, 1
	movzx	edx, BYTE PTR [eax-1]
	mov	BYTE PTR [ecx-1], dl
L6:
	cmp	ecx, esi
	jne	L7
	jmp	L5
	.cfi_endproc
LFE2:
	.globl	_memccpy
	.def	_memccpy;	.scl	2;	.type	32;	.endef
_memccpy:
LFB3:
	.cfi_startproc
	push	esi
	.cfi_def_cfa_offset 8
	.cfi_offset 6, -8
	push	ebx
	.cfi_def_cfa_offset 12
	.cfi_offset 3, -12
	mov	ecx, DWORD PTR [esp+24]
	movzx	esi, BYTE PTR [esp+20]
	mov	ebx, DWORD PTR [esp+16]
	mov	eax, DWORD PTR [esp+12]
	jmp	L10
	.p2align 5
L12:
	sub	ecx, 1
	add	ebx, 1
	add	eax, 1
L10:
	test	ecx, ecx
	je	L11
	movzx	edx, BYTE PTR [ebx]
	mov	BYTE PTR [eax], dl
	movzx	edx, dl
	cmp	esi, edx
	jne	L12
L11:
	add	eax, 1
	test	ecx, ecx
	mov	edx, 0
	cmove	eax, edx
	pop	ebx
	.cfi_restore 3
	.cfi_def_cfa_offset 8
	pop	esi
	.cfi_restore 6
	.cfi_def_cfa_offset 4
	ret
	.cfi_endproc
LFE3:
	.globl	_memchr
	.def	_memchr;	.scl	2;	.type	32;	.endef
_memchr:
LFB4:
	.cfi_startproc
	push	ebx
	.cfi_def_cfa_offset 8
	.cfi_offset 3, -8
	mov	edx, DWORD PTR [esp+16]
	movzx	ebx, BYTE PTR [esp+12]
	mov	eax, DWORD PTR [esp+8]
	jmp	L17
	.p2align 5
L19:
	add	eax, 1
	sub	edx, 1
L17:
	test	edx, edx
	je	L18
	movzx	ecx, BYTE PTR [eax]
	cmp	ebx, ecx
	jne	L19
L18:
	test	edx, edx
	mov	edx, 0
	cmove	eax, edx
	pop	ebx
	.cfi_restore 3
	.cfi_def_cfa_offset 4
	ret
	.cfi_endproc
LFE4:
	.globl	_memcmp
	.def	_memcmp;	.scl	2;	.type	32;	.endef
_memcmp:
LFB5:
	.cfi_startproc
	push	ebx
	.cfi_def_cfa_offset 8
	.cfi_offset 3, -8
	mov	edx, DWORD PTR [esp+16]
	mov	ecx, DWORD PTR [esp+12]
	mov	eax, DWORD PTR [esp+8]
	jmp	L24
	.p2align 5
L26:
	sub	edx, 1
	add	eax, 1
	add	ecx, 1
L24:
	test	edx, edx
	je	L25
	movzx	ebx, BYTE PTR [ecx]
	cmp	BYTE PTR [eax], bl
	je	L26
L25:
	mov	ebx, 0
	test	edx, edx
	je	L27
	movzx	ebx, BYTE PTR [eax]
	movzx	eax, BYTE PTR [ecx]
	sub	ebx, eax
L27:
	mov	eax, ebx
	pop	ebx
	.cfi_restore 3
	.cfi_def_cfa_offset 4
	ret
	.cfi_endproc
LFE5:
	.globl	_memcpy
	.def	_memcpy;	.scl	2;	.type	32;	.endef
_memcpy:
LFB6:
	.cfi_startproc
	push	esi
	.cfi_def_cfa_offset 8
	.cfi_offset 6, -8
	push	ebx
	.cfi_def_cfa_offset 12
	.cfi_offset 3, -12
	mov	esi, DWORD PTR [esp+12]
	mov	ebx, esi
	add	ebx, DWORD PTR [esp+20]
	mov	edx, DWORD PTR [esp+16]
	mov	eax, esi
	jmp	L31
	.p2align 5
L32:
	add	edx, 1
	add	eax, 1
	movzx	ecx, BYTE PTR [edx-1]
	mov	BYTE PTR [eax-1], cl
L31:
	cmp	eax, ebx
	jne	L32
	mov	eax, esi
	pop	ebx
	.cfi_restore 3
	.cfi_def_cfa_offset 8
	pop	esi
	.cfi_restore 6
	.cfi_def_cfa_offset 4
	ret
	.cfi_endproc
LFE6:
	.globl	_memrchr
	.def	_memrchr;	.scl	2;	.type	32;	.endef
_memrchr:
LFB7:
	.cfi_startproc
	push	esi
	.cfi_def_cfa_offset 8
	.cfi_offset 6, -8
	push	ebx
	.cfi_def_cfa_offset 12
	.cfi_offset 3, -12
	mov	ebx, DWORD PTR [esp+12]
	movzx	esi, BYTE PTR [esp+16]
	mov	eax, DWORD PTR [esp+20]
	lea	edx, [eax-1]
L35:
	cmp	edx, -1
	je	L40
	movzx	ecx, BYTE PTR [ebx+edx]
	lea	eax, [edx-1]
	cmp	esi, ecx
	je	L41
	mov	edx, eax
	jmp	L35
L41:
	lea	eax, [ebx+edx]
	jmp	L36
L40:
	mov	eax, 0
L36:
	pop	ebx
	.cfi_restore 3
	.cfi_def_cfa_offset 8
	pop	esi
	.cfi_restore 6
	.cfi_def_cfa_offset 4
	ret
	.cfi_endproc
LFE7:
	.globl	_memset
	.def	_memset;	.scl	2;	.type	32;	.endef
_memset:
LFB8:
	.cfi_startproc
	push	ebx
	.cfi_def_cfa_offset 8
	.cfi_offset 3, -8
	mov	ebx, DWORD PTR [esp+8]
	mov	ecx, DWORD PTR [esp+12]
	mov	edx, ebx
	add	edx, DWORD PTR [esp+16]
	mov	eax, ebx
	jmp	L43
	.p2align 4
L44:
	mov	BYTE PTR [eax], cl
	add	eax, 1
L43:
	cmp	eax, edx
	jne	L44
	mov	eax, ebx
	pop	ebx
	.cfi_restore 3
	.cfi_def_cfa_offset 4
	ret
	.cfi_endproc
LFE8:
	.globl	_stpcpy
	.def	_stpcpy;	.scl	2;	.type	32;	.endef
_stpcpy:
LFB9:
	.cfi_startproc
	mov	eax, DWORD PTR [esp+4]
	mov	ecx, DWORD PTR [esp+8]
	jmp	L47
	.p2align 4
L48:
	add	ecx, 1
	add	eax, 1
L47:
	movzx	edx, BYTE PTR [ecx]
	mov	BYTE PTR [eax], dl
	test	dl, dl
	jne	L48
	ret
	.cfi_endproc
LFE9:
	.globl	_strchrnul
	.def	_strchrnul;	.scl	2;	.type	32;	.endef
_strchrnul:
LFB10:
	.cfi_startproc
	mov	eax, DWORD PTR [esp+4]
	movzx	ecx, BYTE PTR [esp+8]
	jmp	L50
	.p2align 4
L52:
	add	eax, 1
L50:
	cmp	BYTE PTR [eax], 0
	je	L51
	movzx	edx, BYTE PTR [eax]
	cmp	ecx, edx
	jne	L52
L51:
	ret
	.cfi_endproc
LFE10:
	.globl	_strchr
	.def	_strchr;	.scl	2;	.type	32;	.endef
_strchr:
LFB11:
	.cfi_startproc
	mov	eax, DWORD PTR [esp+4]
	mov	ecx, DWORD PTR [esp+8]
	.p2align 4
L55:
	movsx	edx, BYTE PTR [eax]
	cmp	ecx, edx
	je	L54
	add	eax, 1
	cmp	BYTE PTR [eax-1], 0
	jne	L55
	mov	eax, 0
L54:
	ret
	.cfi_endproc
LFE11:
	.globl	_strcmp
	.def	_strcmp;	.scl	2;	.type	32;	.endef
_strcmp:
LFB12:
	.cfi_startproc
	mov	eax, DWORD PTR [esp+4]
	mov	edx, DWORD PTR [esp+8]
	jmp	L59
	.p2align 5
L61:
	add	eax, 1
	add	edx, 1
L59:
	movzx	ecx, BYTE PTR [edx]
	cmp	BYTE PTR [eax], cl
	jne	L60
	cmp	BYTE PTR [eax], 0
	jne	L61
L60:
	movzx	eax, BYTE PTR [eax]
	movzx	edx, BYTE PTR [edx]
	sub	eax, edx
	ret
	.cfi_endproc
LFE12:
	.globl	_strlen
	.def	_strlen;	.scl	2;	.type	32;	.endef
_strlen:
LFB13:
	.cfi_startproc
	mov	edx, DWORD PTR [esp+4]
	mov	eax, edx
	jmp	L63
	.p2align 3
L64:
	add	eax, 1
L63:
	cmp	BYTE PTR [eax], 0
	jne	L64
	sub	eax, edx
	ret
	.cfi_endproc
LFE13:
	.globl	_strncmp
	.def	_strncmp;	.scl	2;	.type	32;	.endef
_strncmp:
LFB14:
	.cfi_startproc
	push	esi
	.cfi_def_cfa_offset 8
	.cfi_offset 6, -8
	push	ebx
	.cfi_def_cfa_offset 12
	.cfi_offset 3, -12
	mov	ebx, DWORD PTR [esp+12]
	mov	ecx, DWORD PTR [esp+20]
	mov	eax, 0
	test	ecx, ecx
	je	L66
	mov	edx, DWORD PTR [esp+16]
	mov	eax, ebx
	lea	esi, [ebx-1+ecx]
L67:
	cmp	BYTE PTR [eax], 0
	je	L68
	cmp	eax, esi
	setne	bl
	cmp	BYTE PTR [edx], 0
	setne	cl
	test	bl, cl
	je	L68
	movzx	ebx, BYTE PTR [edx]
	cmp	BYTE PTR [eax], bl
	jne	L68
	add	eax, 1
	add	edx, 1
	jmp	L67
L68:
	movzx	eax, BYTE PTR [eax]
	movzx	edx, BYTE PTR [edx]
	sub	eax, edx
L66:
	pop	ebx
	.cfi_restore 3
	.cfi_def_cfa_offset 8
	pop	esi
	.cfi_restore 6
	.cfi_def_cfa_offset 4
	ret
	.cfi_endproc
LFE14:
	.globl	_swab
	.def	_swab;	.scl	2;	.type	32;	.endef
_swab:
LFB15:
	.cfi_startproc
	push	ebx
	.cfi_def_cfa_offset 8
	.cfi_offset 3, -8
	mov	ebx, DWORD PTR [esp+8]
	mov	edx, DWORD PTR [esp+12]
	mov	eax, ebx
	add	ebx, DWORD PTR [esp+16]
	jmp	L73
	.p2align 5
L74:
	movzx	ecx, BYTE PTR [eax+1]
	mov	BYTE PTR [edx], cl
	movzx	ecx, BYTE PTR [eax]
	mov	BYTE PTR [edx+1], cl
	add	edx, 2
	add	eax, 2
L73:
	mov	ecx, ebx
	sub	ecx, eax
	cmp	ecx, 1
	jg	L74
	pop	ebx
	.cfi_restore 3
	.cfi_def_cfa_offset 4
	ret
	.cfi_endproc
LFE15:
	.globl	_isalpha
	.def	_isalpha;	.scl	2;	.type	32;	.endef
_isalpha:
LFB16:
	.cfi_startproc
	mov	eax, DWORD PTR [esp+4]
	or	eax, 32
	sub	eax, 97
	cmp	eax, 25
	setbe	al
	movzx	eax, al
	ret
	.cfi_endproc
LFE16:
	.globl	_isascii
	.def	_isascii;	.scl	2;	.type	32;	.endef
_isascii:
LFB17:
	.cfi_startproc
	cmp	DWORD PTR [esp+4], 127
	setbe	al
	movzx	eax, al
	ret
	.cfi_endproc
LFE17:
	.globl	_isblank
	.def	_isblank;	.scl	2;	.type	32;	.endef
_isblank:
LFB18:
	.cfi_startproc
	mov	eax, DWORD PTR [esp+4]
	cmp	eax, 32
	sete	dl
	cmp	eax, 9
	sete	al
	or	eax, edx
	movzx	eax, al
	ret
	.cfi_endproc
LFE18:
	.globl	_iscntrl
	.def	_iscntrl;	.scl	2;	.type	32;	.endef
_iscntrl:
LFB19:
	.cfi_startproc
	mov	edx, DWORD PTR [esp+4]
	cmp	edx, 31
	setbe	al
	cmp	edx, 127
	sete	dl
	or	eax, edx
	movzx	eax, al
	ret
	.cfi_endproc
LFE19:
	.globl	_isdigit
	.def	_isdigit;	.scl	2;	.type	32;	.endef
_isdigit:
LFB20:
	.cfi_startproc
	mov	eax, DWORD PTR [esp+4]
	sub	eax, 48
	cmp	eax, 9
	setbe	al
	movzx	eax, al
	ret
	.cfi_endproc
LFE20:
	.globl	_isgraph
	.def	_isgraph;	.scl	2;	.type	32;	.endef
_isgraph:
LFB21:
	.cfi_startproc
	mov	eax, DWORD PTR [esp+4]
	sub	eax, 33
	cmp	eax, 93
	setbe	al
	movzx	eax, al
	ret
	.cfi_endproc
LFE21:
	.globl	_islower
	.def	_islower;	.scl	2;	.type	32;	.endef
_islower:
LFB22:
	.cfi_startproc
	mov	eax, DWORD PTR [esp+4]
	sub	eax, 97
	cmp	eax, 25
	setbe	al
	movzx	eax, al
	ret
	.cfi_endproc
LFE22:
	.globl	_isprint
	.def	_isprint;	.scl	2;	.type	32;	.endef
_isprint:
LFB23:
	.cfi_startproc
	mov	eax, DWORD PTR [esp+4]
	sub	eax, 32
	cmp	eax, 94
	setbe	al
	movzx	eax, al
	ret
	.cfi_endproc
LFE23:
	.globl	_isspace
	.def	_isspace;	.scl	2;	.type	32;	.endef
_isspace:
LFB24:
	.cfi_startproc
	mov	eax, DWORD PTR [esp+4]
	cmp	eax, 32
	sete	dl
	sub	eax, 9
	cmp	eax, 4
	setbe	al
	or	eax, edx
	movzx	eax, al
	ret
	.cfi_endproc
LFE24:
	.globl	_isupper
	.def	_isupper;	.scl	2;	.type	32;	.endef
_isupper:
LFB25:
	.cfi_startproc
	mov	eax, DWORD PTR [esp+4]
	sub	eax, 65
	cmp	eax, 25
	setbe	al
	movzx	eax, al
	ret
	.cfi_endproc
LFE25:
	.globl	_iswcntrl
	.def	_iswcntrl;	.scl	2;	.type	32;	.endef
_iswcntrl:
LFB26:
	.cfi_startproc
	push	ebx
	.cfi_def_cfa_offset 8
	.cfi_offset 3, -8
	mov	eax, DWORD PTR [esp+8]
	cmp	ax, 31
	setbe	cl
	movzx	edx, ax
	sub	edx, 127
	cmp	edx, 32
	setbe	bl
	mov	edx, 1
	or	cl, bl
	jne	L87
	movzx	ecx, ax
	sub	ecx, 8232
	cmp	ecx, 1
	jbe	L87
	movzx	eax, ax
	sub	eax, 65529
	cmp	eax, 3
	setb	dl
	movzx	edx, dl
L87:
	mov	eax, edx
	pop	ebx
	.cfi_restore 3
	.cfi_def_cfa_offset 4
	ret
	.cfi_endproc
LFE26:
	.globl	_iswdigit
	.def	_iswdigit;	.scl	2;	.type	32;	.endef
_iswdigit:
LFB27:
	.cfi_startproc
	movzx	eax, WORD PTR [esp+4]
	sub	eax, 48
	cmp	eax, 9
	setbe	al
	movzx	eax, al
	ret
	.cfi_endproc
LFE27:
	.globl	_iswprint
	.def	_iswprint;	.scl	2;	.type	32;	.endef
_iswprint:
LFB28:
	.cfi_startproc
	push	ebx
	.cfi_def_cfa_offset 8
	.cfi_offset 3, -8
	mov	eax, DWORD PTR [esp+8]
	cmp	ax, 254
	jbe	L101
	cmp	ax, 8231
	setbe	cl
	movzx	edx, ax
	sub	edx, 8234
	cmp	edx, 47061
	setbe	bl
	mov	edx, 1
	or	cl, bl
	jne	L95
	movzx	ecx, ax
	sub	ecx, 57344
	cmp	ecx, 8184
	jbe	L95
	movzx	ecx, ax
	sub	ecx, 65532
	mov	edx, 0
	cmp	ecx, 1048579
	ja	L95
	not	eax
	test	eax, 65534
	setne	dl
	movzx	edx, dl
	jmp	L95
L101:
	lea	eax, [eax+1]
	and	eax, 127
	cmp	eax, 32
	setg	dl
	movzx	edx, dl
L95:
	mov	eax, edx
	pop	ebx
	.cfi_restore 3
	.cfi_def_cfa_offset 4
	ret
	.cfi_endproc
LFE28:
	.globl	_iswxdigit
	.def	_iswxdigit;	.scl	2;	.type	32;	.endef
_iswxdigit:
LFB29:
	.cfi_startproc
	mov	eax, DWORD PTR [esp+4]
	movzx	edx, ax
	sub	edx, 48
	mov	ecx, 1
	cmp	edx, 9
	jbe	L103
	or	eax, 32
	movzx	eax, ax
	sub	eax, 97
	cmp	eax, 6
	setb	cl
	movzx	ecx, cl
L103:
	mov	eax, ecx
	ret
	.cfi_endproc
LFE29:
	.globl	_toascii
	.def	_toascii;	.scl	2;	.type	32;	.endef
_toascii:
LFB30:
	.cfi_startproc
	mov	eax, DWORD PTR [esp+4]
	and	eax, 127
	ret
	.cfi_endproc
LFE30:
	.globl	_fdim
	.def	_fdim;	.scl	2;	.type	32;	.endef
_fdim:
LFB31:
	.cfi_startproc
	fld	QWORD PTR [esp+12]
	fld	QWORD PTR [esp+4]
	fucomi	st, st(0)
	jp	L115
	fxch	st(1)
	fucomi	st, st(0)
	jp	L111
	fxch	st(1)
	fcomi	st, st(1)
	jbe	L114
	fsubrp	st(1), st
	ret
L111:
	fstp	st(1)
	ret
L114:
	fstp	st(0)
	fstp	st(0)
	fldz
	jmp	L108
L115:
	fstp	st(1)
L108:
	ret
	.cfi_endproc
LFE31:
	.globl	_fdimf
	.def	_fdimf;	.scl	2;	.type	32;	.endef
_fdimf:
LFB32:
	.cfi_startproc
	fld	DWORD PTR [esp+8]
	fld	DWORD PTR [esp+4]
	fucomi	st, st(0)
	jp	L124
	fxch	st(1)
	fucomi	st, st(0)
	jp	L120
	fxch	st(1)
	fcomi	st, st(1)
	jbe	L123
	fsubrp	st(1), st
	ret
L120:
	fstp	st(1)
	ret
L123:
	fstp	st(0)
	fstp	st(0)
	fldz
	jmp	L117
L124:
	fstp	st(1)
L117:
	ret
	.cfi_endproc
LFE32:
	.globl	_fmax
	.def	_fmax;	.scl	2;	.type	32;	.endef
_fmax:
LFB33:
	.cfi_startproc
	fld	QWORD PTR [esp+12]
	fld	QWORD PTR [esp+4]
	fucomi	st, st(0)
	jp	L134
	fxch	st(1)
	fucomi	st, st(0)
	jp	L130
	fxch	st(1)
	fxam
	fnstsw	ax
	fxch	st(1)
	mov	edx, eax
	and	edx, 512
	fxam
	fnstsw	ax
	and	eax, 512
	cmp	edx, eax
	je	L127
	fxch	st(1)
	fxam
	fnstsw	ax
	test	ah, 2
	fcmovne	st, st(1)
	fstp	st(1)
	ret
L127:
	fcomi	st, st(1)
	fcmovbe	st, st(1)
	fstp	st(1)
	ret
L130:
	fstp	st(0)
	jmp	L126
L134:
	fstp	st(0)
L126:
	ret
	.cfi_endproc
LFE33:
	.globl	_fmaxf
	.def	_fmaxf;	.scl	2;	.type	32;	.endef
_fmaxf:
LFB34:
	.cfi_startproc
	fld	DWORD PTR [esp+8]
	fld	DWORD PTR [esp+4]
	fucomi	st, st(0)
	jp	L144
	fxch	st(1)
	fucomi	st, st(0)
	jp	L140
	fxch	st(1)
	fxam
	fnstsw	ax
	fxch	st(1)
	mov	edx, eax
	and	edx, 512
	fxam
	fnstsw	ax
	and	eax, 512
	cmp	edx, eax
	je	L137
	fxch	st(1)
	fxam
	fnstsw	ax
	test	ah, 2
	fcmovne	st, st(1)
	fstp	st(1)
	ret
L137:
	fcomi	st, st(1)
	fcmovbe	st, st(1)
	fstp	st(1)
	ret
L140:
	fstp	st(0)
	jmp	L136
L144:
	fstp	st(0)
L136:
	ret
	.cfi_endproc
LFE34:
	.globl	_fmaxl
	.def	_fmaxl;	.scl	2;	.type	32;	.endef
_fmaxl:
LFB35:
	.cfi_startproc
	fld	TBYTE PTR [esp+16]
	fld	TBYTE PTR [esp+4]
	fucomi	st, st(0)
	jp	L149
	fxch	st(1)
	fucomi	st, st(0)
	jp	L150
	fxch	st(1)
	fxam
	fnstsw	ax
	fxch	st(1)
	mov	edx, eax
	and	edx, 512
	fxam
	fnstsw	ax
	and	eax, 512
	cmp	edx, eax
	je	L147
	fxch	st(1)
	fxam
	fnstsw	ax
	test	ah, 2
	je	L155
	fstp	st(0)
	jmp	L146
L155:
	fstp	st(1)
	jmp	L146
L156:
	fstp	st(1)
L146:
	ret
L147:
	fld	st(0)
	fcomip	st, st(2)
	ja	L156
	fstp	st(0)
	jmp	L146
L149:
	fstp	st(0)
	jmp	L146
L150:
	fstp	st(0)
	jmp	L146
	.cfi_endproc
LFE35:
	.globl	_fmin
	.def	_fmin;	.scl	2;	.type	32;	.endef
_fmin:
LFB36:
	.cfi_startproc
	fld	QWORD PTR [esp+12]
	fld	QWORD PTR [esp+4]
	fucomi	st, st(0)
	jp	L161
	fxch	st(1)
	fucomi	st, st(0)
	jp	L166
	fxch	st(1)
	fxam
	fnstsw	ax
	fxch	st(1)
	mov	edx, eax
	and	edx, 512
	fxam
	fnstsw	ax
	and	eax, 512
	cmp	edx, eax
	je	L159
	fxch	st(1)
	fxam
	fnstsw	ax
	test	ah, 2
	fcmove	st, st(1)
	fstp	st(1)
	ret
L159:
	fcomi	st, st(1)
	fcmovnbe	st, st(1)
	fstp	st(1)
	ret
L161:
	fstp	st(0)
	jmp	L158
L166:
	fstp	st(0)
L158:
	ret
	.cfi_endproc
LFE36:
	.globl	_fminf
	.def	_fminf;	.scl	2;	.type	32;	.endef
_fminf:
LFB37:
	.cfi_startproc
	fld	DWORD PTR [esp+8]
	fld	DWORD PTR [esp+4]
	fucomi	st, st(0)
	jp	L171
	fxch	st(1)
	fucomi	st, st(0)
	jp	L176
	fxch	st(1)
	fxam
	fnstsw	ax
	fxch	st(1)
	mov	edx, eax
	and	edx, 512
	fxam
	fnstsw	ax
	and	eax, 512
	cmp	edx, eax
	je	L169
	fxch	st(1)
	fxam
	fnstsw	ax
	test	ah, 2
	fcmove	st, st(1)
	fstp	st(1)
	ret
L169:
	fcomi	st, st(1)
	fcmovnbe	st, st(1)
	fstp	st(1)
	ret
L171:
	fstp	st(0)
	jmp	L168
L176:
	fstp	st(0)
L168:
	ret
	.cfi_endproc
LFE37:
	.globl	_fminl
	.def	_fminl;	.scl	2;	.type	32;	.endef
_fminl:
LFB38:
	.cfi_startproc
	fld	TBYTE PTR [esp+16]
	fld	TBYTE PTR [esp+4]
	fucomi	st, st(0)
	jp	L181
	fxch	st(1)
	fucomi	st, st(0)
	jp	L182
	fxch	st(1)
	fxam
	fnstsw	ax
	fxch	st(1)
	mov	edx, eax
	and	edx, 512
	fxam
	fnstsw	ax
	and	eax, 512
	cmp	edx, eax
	je	L179
	fxch	st(1)
	fxam
	fnstsw	ax
	test	ah, 2
	je	L187
	fstp	st(1)
	jmp	L178
L187:
	fstp	st(0)
	jmp	L178
L188:
	fstp	st(1)
L178:
	ret
L179:
	fld	st(1)
	fxch	st(1)
	fcomi	st, st(2)
	fstp	st(2)
	ja	L188
	fstp	st(0)
	jmp	L178
L181:
	fstp	st(0)
	jmp	L178
L182:
	fstp	st(0)
	jmp	L178
	.cfi_endproc
LFE38:
	.section .rdata,"dr"
	.align 32
_digits:
	.ascii "./0123456789ABCDEFGHIJKLMNOPQRSTUVWXYZabcdefghijklmnopqrstuvwxyz\0"
	.text
	.globl	_l64a
	.def	_l64a;	.scl	2;	.type	32;	.endef
_l64a:
LFB39:
	.cfi_startproc
	mov	eax, DWORD PTR [esp+4]
	mov	edx, OFFSET FLAT:_s.0
	jmp	L190
	.p2align 5
L191:
	mov	ecx, eax
	and	ecx, 63
	movzx	ecx, BYTE PTR _digits[ecx]
	mov	BYTE PTR [edx], cl
	add	edx, 1
	shr	eax, 6
L190:
	test	eax, eax
	jne	L191
	mov	BYTE PTR [edx], 0
	mov	eax, OFFSET FLAT:_s.0
	ret
	.cfi_endproc
LFE39:
.lcomm _seed,8,8
	.globl	_srand
	.def	_srand;	.scl	2;	.type	32;	.endef
_srand:
LFB40:
	.cfi_startproc
	mov	eax, DWORD PTR [esp+4]
	sub	eax, 1
	mov	DWORD PTR _seed, eax
	mov	DWORD PTR _seed+4, 0
	ret
	.cfi_endproc
LFE40:
	.globl	_rand
	.def	_rand;	.scl	2;	.type	32;	.endef
_rand:
LFB41:
	.cfi_startproc
	mov	eax, DWORD PTR _seed
	imul	ecx, DWORD PTR _seed+4, 1284865837
	imul	edx, eax, 1481765933
	add	ecx, edx
	mov	edx, 1284865837
	mul	edx
	add	edx, ecx
	add	eax, 1
	adc	edx, 0
	mov	DWORD PTR _seed, eax
	mov	DWORD PTR _seed+4, edx
	mov	eax, DWORD PTR _seed+4
	shr	eax
	ret
	.cfi_endproc
LFE41:
	.globl	_insque
	.def	_insque;	.scl	2;	.type	32;	.endef
_insque:
LFB42:
	.cfi_startproc
	mov	eax, DWORD PTR [esp+4]
	mov	edx, DWORD PTR [esp+8]
	test	edx, edx
	je	L197
	mov	ecx, DWORD PTR [edx]
	mov	DWORD PTR [eax], ecx
	mov	DWORD PTR [eax+4], edx
	mov	DWORD PTR [edx], eax
	cmp	DWORD PTR [eax], 0
	je	L194
	mov	edx, DWORD PTR [eax]
	mov	DWORD PTR [edx+4], eax
L194:
	ret
L197:
	mov	DWORD PTR [eax+4], 0
	mov	DWORD PTR [eax], 0
	ret
	.cfi_endproc
LFE42:
	.globl	_remque
	.def	_remque;	.scl	2;	.type	32;	.endef
_remque:
LFB43:
	.cfi_startproc
	mov	eax, DWORD PTR [esp+4]
	cmp	DWORD PTR [eax], 0
	je	L199
	mov	edx, DWORD PTR [eax]
	mov	ecx, DWORD PTR [eax+4]
	mov	DWORD PTR [edx+4], ecx
L199:
	cmp	DWORD PTR [eax+4], 0
	je	L198
	mov	edx, DWORD PTR [eax+4]
	mov	eax, DWORD PTR [eax]
	mov	DWORD PTR [edx], eax
L198:
	ret
	.cfi_endproc
LFE43:
	.globl	_lsearch
	.def	_lsearch;	.scl	2;	.type	32;	.endef
_lsearch:
LFB44:
	.cfi_startproc
	push	ebp
	.cfi_def_cfa_offset 8
	.cfi_offset 5, -8
	push	edi
	.cfi_def_cfa_offset 12
	.cfi_offset 7, -12
	push	esi
	.cfi_def_cfa_offset 16
	.cfi_offset 6, -16
	push	ebx
	.cfi_def_cfa_offset 20
	.cfi_offset 3, -20
	sub	esp, 28
	.cfi_def_cfa_offset 48
	mov	edi, DWORD PTR [esp+60]
	mov	eax, DWORD PTR [esp+56]
	mov	ebp, DWORD PTR [eax]
	mov	esi, DWORD PTR [esp+52]
	mov	ebx, 0
	jmp	L202
L203:
	add	ebx, 1
L202:
	cmp	ebx, ebp
	je	L207
	mov	DWORD PTR [esp+4], esi
	mov	eax, DWORD PTR [esp+48]
	mov	DWORD PTR [esp], eax
	call	[DWORD PTR [esp+64]]
	add	esi, edi
	test	eax, eax
	jne	L203
	imul	ebx, edi
	mov	eax, ebx
	add	eax, DWORD PTR [esp+52]
	jmp	L204
L207:
	lea	eax, [ebp+1]
	mov	ecx, DWORD PTR [esp+56]
	mov	DWORD PTR [ecx], eax
	mov	edx, ebp
	imul	edx, edi
	mov	eax, edx
	add	eax, DWORD PTR [esp+52]
	mov	DWORD PTR [esp+8], edi
	mov	ecx, DWORD PTR [esp+48]
	mov	DWORD PTR [esp+4], ecx
	mov	DWORD PTR [esp], eax
	call	_memcpy
L204:
	add	esp, 28
	.cfi_def_cfa_offset 20
	pop	ebx
	.cfi_restore 3
	.cfi_def_cfa_offset 16
	pop	esi
	.cfi_restore 6
	.cfi_def_cfa_offset 12
	pop	edi
	.cfi_restore 7
	.cfi_def_cfa_offset 8
	pop	ebp
	.cfi_restore 5
	.cfi_def_cfa_offset 4
	ret
	.cfi_endproc
LFE44:
	.globl	_lfind
	.def	_lfind;	.scl	2;	.type	32;	.endef
_lfind:
LFB45:
	.cfi_startproc
	push	ebp
	.cfi_def_cfa_offset 8
	.cfi_offset 5, -8
	push	edi
	.cfi_def_cfa_offset 12
	.cfi_offset 7, -12
	push	esi
	.cfi_def_cfa_offset 16
	.cfi_offset 6, -16
	push	ebx
	.cfi_def_cfa_offset 20
	.cfi_offset 3, -20
	sub	esp, 28
	.cfi_def_cfa_offset 48
	mov	ebp, DWORD PTR [esp+60]
	mov	eax, DWORD PTR [esp+56]
	mov	edi, DWORD PTR [eax]
	mov	esi, DWORD PTR [esp+52]
	mov	ebx, 0
	jmp	L209
L210:
	add	ebx, 1
L209:
	cmp	ebx, edi
	je	L214
	mov	DWORD PTR [esp+4], esi
	mov	eax, DWORD PTR [esp+48]
	mov	DWORD PTR [esp], eax
	call	[DWORD PTR [esp+64]]
	add	esi, ebp
	test	eax, eax
	jne	L210
	imul	ebx, ebp
	mov	eax, ebx
	add	eax, DWORD PTR [esp+52]
	jmp	L211
L214:
	mov	eax, 0
L211:
	add	esp, 28
	.cfi_def_cfa_offset 20
	pop	ebx
	.cfi_restore 3
	.cfi_def_cfa_offset 16
	pop	esi
	.cfi_restore 6
	.cfi_def_cfa_offset 12
	pop	edi
	.cfi_restore 7
	.cfi_def_cfa_offset 8
	pop	ebp
	.cfi_restore 5
	.cfi_def_cfa_offset 4
	ret
	.cfi_endproc
LFE45:
	.globl	_abs
	.def	_abs;	.scl	2;	.type	32;	.endef
_abs:
LFB46:
	.cfi_startproc
	mov	edx, DWORD PTR [esp+4]
	mov	eax, edx
	neg	eax
	cmovs	eax, edx
	ret
	.cfi_endproc
LFE46:
	.globl	_atoi
	.def	_atoi;	.scl	2;	.type	32;	.endef
_atoi:
LFB47:
	.cfi_startproc
	push	ebx
	.cfi_def_cfa_offset 8
	.cfi_offset 3, -8
	sub	esp, 4
	.cfi_def_cfa_offset 12
	mov	ebx, DWORD PTR [esp+12]
	jmp	L217
L218:
	add	ebx, 1
L217:
	movsx	eax, BYTE PTR [ebx]
	mov	DWORD PTR [esp], eax
	call	_isspace
	test	eax, eax
	jne	L218
	movsx	eax, BYTE PTR [ebx]
	cmp	eax, 43
	je	L224
	mov	ecx, 0
	cmp	eax, 45
	jne	L220
	mov	ecx, 1
L219:
	add	ebx, 1
L220:
	mov	edx, 0
	jmp	L221
L224:
	mov	ecx, 0
	jmp	L219
	.p2align 5
L222:
	lea	edx, [edx+edx*4]
	add	edx, edx
	add	ebx, 1
	movsx	eax, BYTE PTR [ebx-1]
	sub	eax, 48
	sub	edx, eax
L221:
	movsx	eax, BYTE PTR [ebx]
	sub	eax, 48
	cmp	eax, 9
	jbe	L222
	mov	eax, edx
	neg	eax
	test	ecx, ecx
	cmovne	eax, edx
	add	esp, 4
	.cfi_def_cfa_offset 8
	pop	ebx
	.cfi_restore 3
	.cfi_def_cfa_offset 4
	ret
	.cfi_endproc
LFE47:
	.globl	_atol
	.def	_atol;	.scl	2;	.type	32;	.endef
_atol:
LFB48:
	.cfi_startproc
	push	ebx
	.cfi_def_cfa_offset 8
	.cfi_offset 3, -8
	sub	esp, 4
	.cfi_def_cfa_offset 12
	mov	ebx, DWORD PTR [esp+12]
	jmp	L229
L230:
	add	ebx, 1
L229:
	movsx	eax, BYTE PTR [ebx]
	mov	DWORD PTR [esp], eax
	call	_isspace
	test	eax, eax
	jne	L230
	movsx	eax, BYTE PTR [ebx]
	cmp	eax, 43
	je	L236
	mov	ecx, 0
	cmp	eax, 45
	jne	L232
	mov	ecx, 1
L231:
	add	ebx, 1
L232:
	mov	edx, 0
	jmp	L233
L236:
	mov	ecx, 0
	jmp	L231
	.p2align 5
L234:
	lea	edx, [edx+edx*4]
	add	edx, edx
	add	ebx, 1
	movsx	eax, BYTE PTR [ebx-1]
	sub	eax, 48
	sub	edx, eax
L233:
	movsx	eax, BYTE PTR [ebx]
	sub	eax, 48
	cmp	eax, 9
	jbe	L234
	mov	eax, edx
	neg	eax
	test	ecx, ecx
	cmovne	eax, edx
	add	esp, 4
	.cfi_def_cfa_offset 8
	pop	ebx
	.cfi_restore 3
	.cfi_def_cfa_offset 4
	ret
	.cfi_endproc
LFE48:
	.globl	_atoll
	.def	_atoll;	.scl	2;	.type	32;	.endef
_atoll:
LFB49:
	.cfi_startproc
	push	edi
	.cfi_def_cfa_offset 8
	.cfi_offset 7, -8
	push	esi
	.cfi_def_cfa_offset 12
	.cfi_offset 6, -12
	push	ebx
	.cfi_def_cfa_offset 16
	.cfi_offset 3, -16
	sub	esp, 4
	.cfi_def_cfa_offset 20
	mov	ebx, DWORD PTR [esp+20]
	jmp	L241
L242:
	add	ebx, 1
L241:
	movsx	eax, BYTE PTR [ebx]
	mov	DWORD PTR [esp], eax
	call	_isspace
	test	eax, eax
	jne	L242
	movsx	eax, BYTE PTR [ebx]
	cmp	eax, 43
	je	L248
	mov	ecx, 0
	cmp	eax, 45
	jne	L244
	mov	ecx, 1
L243:
	add	ebx, 1
L244:
	mov	esi, 0
	mov	edi, 0
	jmp	L245
L248:
	mov	ecx, 0
	jmp	L243
	.p2align 6
L246:
	mov	eax, esi
	mov	edx, edi
	shld	edx, eax, 2
	sal	eax, 2
	add	esi, eax
	adc	edi, edx
	add	esi, esi
	adc	edi, edi
	add	ebx, 1
	movsx	eax, BYTE PTR [ebx-1]
	sub	eax, 48
	cdq
	sub	esi, eax
	sbb	edi, edx
L245:
	movsx	eax, BYTE PTR [ebx]
	sub	eax, 48
	cmp	eax, 9
	jbe	L246
	mov	eax, esi
	mov	edx, edi
	test	ecx, ecx
	jne	L247
	neg	eax
	adc	edx, 0
	neg	edx
L247:
	add	esp, 4
	.cfi_def_cfa_offset 16
	pop	ebx
	.cfi_restore 3
	.cfi_def_cfa_offset 12
	pop	esi
	.cfi_restore 6
	.cfi_def_cfa_offset 8
	pop	edi
	.cfi_restore 7
	.cfi_def_cfa_offset 4
	ret
	.cfi_endproc
LFE49:
	.globl	_bsearch
	.def	_bsearch;	.scl	2;	.type	32;	.endef
_bsearch:
LFB50:
	.cfi_startproc
	push	ebp
	.cfi_def_cfa_offset 8
	.cfi_offset 5, -8
	push	edi
	.cfi_def_cfa_offset 12
	.cfi_offset 7, -12
	push	esi
	.cfi_def_cfa_offset 16
	.cfi_offset 6, -16
	push	ebx
	.cfi_def_cfa_offset 20
	.cfi_offset 3, -20
	sub	esp, 28
	.cfi_def_cfa_offset 48
	mov	ebp, DWORD PTR [esp+52]
	mov	esi, DWORD PTR [esp+56]
	mov	edi, DWORD PTR [esp+60]
	jmp	L253
L261:
	shr	esi
L253:
	test	esi, esi
	je	L260
	mov	ebx, esi
	shr	ebx
	imul	ebx, edi
	add	ebx, ebp
	mov	DWORD PTR [esp+4], ebx
	mov	eax, DWORD PTR [esp+48]
	mov	DWORD PTR [esp], eax
	call	[DWORD PTR [esp+64]]
	test	eax, eax
	js	L261
	jle	L258
	lea	ebp, [ebx+edi]
	mov	eax, esi
	shr	eax
	sub	esi, 1
	sub	esi, eax
	jmp	L253
L260:
	mov	eax, 0
L256:
	add	esp, 28
	.cfi_remember_state
	.cfi_def_cfa_offset 20
	pop	ebx
	.cfi_restore 3
	.cfi_def_cfa_offset 16
	pop	esi
	.cfi_restore 6
	.cfi_def_cfa_offset 12
	pop	edi
	.cfi_restore 7
	.cfi_def_cfa_offset 8
	pop	ebp
	.cfi_restore 5
	.cfi_def_cfa_offset 4
	ret
L258:
	.cfi_restore_state
	mov	eax, ebx
	jmp	L256
	.cfi_endproc
LFE50:
	.globl	_bsearch_r
	.def	_bsearch_r;	.scl	2;	.type	32;	.endef
_bsearch_r:
LFB51:
	.cfi_startproc
	push	ebp
	.cfi_def_cfa_offset 8
	.cfi_offset 5, -8
	push	edi
	.cfi_def_cfa_offset 12
	.cfi_offset 7, -12
	push	esi
	.cfi_def_cfa_offset 16
	.cfi_offset 6, -16
	push	ebx
	.cfi_def_cfa_offset 20
	.cfi_offset 3, -20
	sub	esp, 28
	.cfi_def_cfa_offset 48
	mov	ebp, DWORD PTR [esp+60]
	mov	esi, DWORD PTR [esp+56]
	mov	edi, DWORD PTR [esp+52]
	jmp	L263
L265:
	sar	esi
L263:
	test	esi, esi
	je	L269
	mov	ebx, esi
	sar	ebx
	imul	ebx, ebp
	add	ebx, edi
	mov	eax, DWORD PTR [esp+68]
	mov	DWORD PTR [esp+8], eax
	mov	DWORD PTR [esp+4], ebx
	mov	eax, DWORD PTR [esp+48]
	mov	DWORD PTR [esp], eax
	call	[DWORD PTR [esp+64]]
	test	eax, eax
	je	L267
	jle	L265
	lea	edi, [ebx+ebp]
	sub	esi, 1
	jmp	L265
L269:
	mov	eax, 0
L264:
	add	esp, 28
	.cfi_remember_state
	.cfi_def_cfa_offset 20
	pop	ebx
	.cfi_restore 3
	.cfi_def_cfa_offset 16
	pop	esi
	.cfi_restore 6
	.cfi_def_cfa_offset 12
	pop	edi
	.cfi_restore 7
	.cfi_def_cfa_offset 8
	pop	ebp
	.cfi_restore 5
	.cfi_def_cfa_offset 4
	ret
L267:
	.cfi_restore_state
	mov	eax, ebx
	jmp	L264
	.cfi_endproc
LFE51:
	.globl	_div
	.def	_div;	.scl	2;	.type	32;	.endef
_div:
LFB52:
	.cfi_startproc
	mov	eax, DWORD PTR [esp+4]
	cdq
	idiv	DWORD PTR [esp+8]
	ret
	.cfi_endproc
LFE52:
	.globl	_imaxabs
	.def	_imaxabs;	.scl	2;	.type	32;	.endef
_imaxabs:
LFB53:
	.cfi_startproc
	push	ebx
	.cfi_def_cfa_offset 8
	.cfi_offset 3, -8
	mov	ecx, DWORD PTR [esp+8]
	mov	ebx, DWORD PTR [esp+12]
	mov	eax, ecx
	neg	eax
	mov	edx, ebx
	adc	edx, 0
	neg	edx
	cmovs	eax, ecx
	cmovs	edx, ebx
	pop	ebx
	.cfi_restore 3
	.cfi_def_cfa_offset 4
	ret
	.cfi_endproc
LFE53:
	.globl	_imaxdiv
	.def	_imaxdiv;	.scl	2;	.type	32;	.endef
_imaxdiv:
LFB54:
	.cfi_startproc
	push	edi
	.cfi_def_cfa_offset 8
	.cfi_offset 7, -8
	push	esi
	.cfi_def_cfa_offset 12
	.cfi_offset 6, -12
	push	ebx
	.cfi_def_cfa_offset 16
	.cfi_offset 3, -16
	sub	esp, 32
	.cfi_def_cfa_offset 48
	mov	ebx, DWORD PTR [esp+48]
	mov	eax, DWORD PTR [esp+52]
	mov	edx, DWORD PTR [esp+56]
	mov	esi, DWORD PTR [esp+60]
	mov	edi, DWORD PTR [esp+64]
	mov	DWORD PTR [esp+8], esi
	mov	DWORD PTR [esp+12], edi
	mov	DWORD PTR [esp+16], eax
	mov	DWORD PTR [esp+20], edx
	mov	DWORD PTR [esp], eax
	mov	DWORD PTR [esp+4], edx
	call	___divdi3
	mov	DWORD PTR [esp+24], eax
	mov	DWORD PTR [esp+28], edx
	mov	DWORD PTR [esp+8], esi
	mov	DWORD PTR [esp+12], edi
	mov	esi, DWORD PTR [esp+16]
	mov	edi, DWORD PTR [esp+20]
	mov	DWORD PTR [esp], esi
	mov	DWORD PTR [esp+4], edi
	call	___moddi3
	mov	esi, DWORD PTR [esp+24]
	mov	edi, DWORD PTR [esp+28]
	mov	DWORD PTR [ebx], esi
	mov	DWORD PTR [ebx+4], edi
	mov	DWORD PTR [ebx+8], eax
	mov	DWORD PTR [ebx+12], edx
	mov	eax, ebx
	add	esp, 32
	.cfi_def_cfa_offset 16
	pop	ebx
	.cfi_restore 3
	.cfi_def_cfa_offset 12
	pop	esi
	.cfi_restore 6
	.cfi_def_cfa_offset 8
	pop	edi
	.cfi_restore 7
	.cfi_def_cfa_offset 4
	ret
	.cfi_endproc
LFE54:
	.globl	_labs
	.def	_labs;	.scl	2;	.type	32;	.endef
_labs:
LFB55:
	.cfi_startproc
	mov	edx, DWORD PTR [esp+4]
	mov	eax, edx
	neg	eax
	cmovs	eax, edx
	ret
	.cfi_endproc
LFE55:
	.globl	_ldiv
	.def	_ldiv;	.scl	2;	.type	32;	.endef
_ldiv:
LFB56:
	.cfi_startproc
	mov	eax, DWORD PTR [esp+4]
	cdq
	idiv	DWORD PTR [esp+8]
	ret
	.cfi_endproc
LFE56:
	.globl	_llabs
	.def	_llabs;	.scl	2;	.type	32;	.endef
_llabs:
LFB57:
	.cfi_startproc
	push	ebx
	.cfi_def_cfa_offset 8
	.cfi_offset 3, -8
	mov	ecx, DWORD PTR [esp+8]
	mov	ebx, DWORD PTR [esp+12]
	mov	eax, ecx
	neg	eax
	mov	edx, ebx
	adc	edx, 0
	neg	edx
	cmovs	eax, ecx
	cmovs	edx, ebx
	pop	ebx
	.cfi_restore 3
	.cfi_def_cfa_offset 4
	ret
	.cfi_endproc
LFE57:
	.globl	_lldiv
	.def	_lldiv;	.scl	2;	.type	32;	.endef
_lldiv:
LFB58:
	.cfi_startproc
	push	edi
	.cfi_def_cfa_offset 8
	.cfi_offset 7, -8
	push	esi
	.cfi_def_cfa_offset 12
	.cfi_offset 6, -12
	push	ebx
	.cfi_def_cfa_offset 16
	.cfi_offset 3, -16
	sub	esp, 32
	.cfi_def_cfa_offset 48
	mov	ebx, DWORD PTR [esp+48]
	mov	eax, DWORD PTR [esp+52]
	mov	edx, DWORD PTR [esp+56]
	mov	esi, DWORD PTR [esp+60]
	mov	edi, DWORD PTR [esp+64]
	mov	DWORD PTR [esp+8], esi
	mov	DWORD PTR [esp+12], edi
	mov	DWORD PTR [esp+16], eax
	mov	DWORD PTR [esp+20], edx
	mov	DWORD PTR [esp], eax
	mov	DWORD PTR [esp+4], edx
	call	___divdi3
	mov	DWORD PTR [esp+24], eax
	mov	DWORD PTR [esp+28], edx
	mov	DWORD PTR [esp+8], esi
	mov	DWORD PTR [esp+12], edi
	mov	esi, DWORD PTR [esp+16]
	mov	edi, DWORD PTR [esp+20]
	mov	DWORD PTR [esp], esi
	mov	DWORD PTR [esp+4], edi
	call	___moddi3
	mov	esi, DWORD PTR [esp+24]
	mov	edi, DWORD PTR [esp+28]
	mov	DWORD PTR [ebx], esi
	mov	DWORD PTR [ebx+4], edi
	mov	DWORD PTR [ebx+8], eax
	mov	DWORD PTR [ebx+12], edx
	mov	eax, ebx
	add	esp, 32
	.cfi_def_cfa_offset 16
	pop	ebx
	.cfi_restore 3
	.cfi_def_cfa_offset 12
	pop	esi
	.cfi_restore 6
	.cfi_def_cfa_offset 8
	pop	edi
	.cfi_restore 7
	.cfi_def_cfa_offset 4
	ret
	.cfi_endproc
LFE58:
	.globl	_wcschr
	.def	_wcschr;	.scl	2;	.type	32;	.endef
_wcschr:
LFB59:
	.cfi_startproc
	mov	eax, DWORD PTR [esp+4]
	movzx	edx, WORD PTR [esp+8]
	jmp	L282
	.p2align 4
L284:
	add	eax, 2
L282:
	cmp	WORD PTR [eax], 0
	je	L283
	cmp	dx, WORD PTR [eax]
	jne	L284
L283:
	cmp	WORD PTR [eax], 0
	mov	edx, 0
	cmove	eax, edx
	ret
	.cfi_endproc
LFE59:
	.globl	_wcscmp
	.def	_wcscmp;	.scl	2;	.type	32;	.endef
_wcscmp:
LFB60:
	.cfi_startproc
	push	ebx
	.cfi_def_cfa_offset 8
	.cfi_offset 3, -8
	mov	eax, DWORD PTR [esp+8]
	mov	edx, DWORD PTR [esp+12]
	jmp	L288
L290:
	add	eax, 2
	add	edx, 2
L288:
	movzx	ecx, WORD PTR [edx]
	cmp	WORD PTR [eax], cx
	jne	L289
	cmp	WORD PTR [eax], 0
	je	L289
	test	cx, cx
	jne	L290
L289:
	mov	ecx, -1
	movzx	ebx, WORD PTR [edx]
	cmp	WORD PTR [eax], bx
	jb	L291
	movzx	eax, WORD PTR [eax]
	cmp	bx, ax
	setb	cl
	movzx	ecx, cl
L291:
	mov	eax, ecx
	pop	ebx
	.cfi_restore 3
	.cfi_def_cfa_offset 4
	ret
	.cfi_endproc
LFE60:
	.globl	_wcscpy
	.def	_wcscpy;	.scl	2;	.type	32;	.endef
_wcscpy:
LFB61:
	.cfi_startproc
	push	ebx
	.cfi_def_cfa_offset 8
	.cfi_offset 3, -8
	mov	ebx, DWORD PTR [esp+8]
	mov	edx, DWORD PTR [esp+12]
	mov	eax, ebx
	.p2align 5
L295:
	add	edx, 2
	add	eax, 2
	movzx	ecx, WORD PTR [edx-2]
	mov	WORD PTR [eax-2], cx
	test	cx, cx
	jne	L295
	mov	eax, ebx
	pop	ebx
	.cfi_restore 3
	.cfi_def_cfa_offset 4
	ret
	.cfi_endproc
LFE61:
	.globl	_wcslen
	.def	_wcslen;	.scl	2;	.type	32;	.endef
_wcslen:
LFB62:
	.cfi_startproc
	mov	edx, DWORD PTR [esp+4]
	mov	eax, edx
	jmp	L299
	.p2align 4
L300:
	add	eax, 2
L299:
	cmp	WORD PTR [eax], 0
	jne	L300
	sub	eax, edx
	sar	eax
	ret
	.cfi_endproc
LFE62:
	.globl	_wcsncmp
	.def	_wcsncmp;	.scl	2;	.type	32;	.endef
_wcsncmp:
LFB63:
	.cfi_startproc
	push	ebx
	.cfi_def_cfa_offset 8
	.cfi_offset 3, -8
	mov	eax, DWORD PTR [esp+8]
	mov	edx, DWORD PTR [esp+12]
	mov	ecx, DWORD PTR [esp+16]
L302:
	test	ecx, ecx
	je	L303
	movzx	ebx, WORD PTR [edx]
	cmp	WORD PTR [eax], bx
	jne	L303
	cmp	WORD PTR [eax], 0
	je	L303
	test	bx, bx
	je	L303
	sub	ecx, 1
	add	eax, 2
	add	edx, 2
	jmp	L302
L303:
	mov	ebx, 0
	test	ecx, ecx
	je	L305
	mov	ebx, -1
	movzx	ecx, WORD PTR [edx]
	cmp	WORD PTR [eax], cx
	jb	L305
	movzx	eax, WORD PTR [eax]
	cmp	cx, ax
	setb	bl
	movzx	ebx, bl
L305:
	mov	eax, ebx
	pop	ebx
	.cfi_restore 3
	.cfi_def_cfa_offset 4
	ret
	.cfi_endproc
LFE63:
	.globl	_wmemchr
	.def	_wmemchr;	.scl	2;	.type	32;	.endef
_wmemchr:
LFB64:
	.cfi_startproc
	mov	eax, DWORD PTR [esp+4]
	mov	edx, DWORD PTR [esp+12]
	movzx	ecx, WORD PTR [esp+8]
	jmp	L310
	.p2align 4
L312:
	sub	edx, 1
	add	eax, 2
L310:
	test	edx, edx
	je	L311
	cmp	cx, WORD PTR [eax]
	jne	L312
L311:
	test	edx, edx
	mov	edx, 0
	cmove	eax, edx
	ret
	.cfi_endproc
LFE64:
	.globl	_wmemcmp
	.def	_wmemcmp;	.scl	2;	.type	32;	.endef
_wmemcmp:
LFB65:
	.cfi_startproc
	push	ebx
	.cfi_def_cfa_offset 8
	.cfi_offset 3, -8
	mov	edx, DWORD PTR [esp+8]
	mov	ecx, DWORD PTR [esp+12]
	mov	eax, DWORD PTR [esp+16]
	jmp	L316
	.p2align 5
L318:
	sub	eax, 1
	add	edx, 2
	add	ecx, 2
L316:
	test	eax, eax
	je	L317
	movzx	ebx, WORD PTR [ecx]
	cmp	WORD PTR [edx], bx
	je	L318
L317:
	mov	ebx, 0
	test	eax, eax
	je	L319
	mov	ebx, -1
	movzx	eax, WORD PTR [ecx]
	cmp	WORD PTR [edx], ax
	jb	L319
	movzx	eax, WORD PTR [edx]
	cmp	WORD PTR [ecx], ax
	setb	bl
	movzx	ebx, bl
L319:
	mov	eax, ebx
	pop	ebx
	.cfi_restore 3
	.cfi_def_cfa_offset 4
	ret
	.cfi_endproc
LFE65:
	.globl	_wmemcpy
	.def	_wmemcpy;	.scl	2;	.type	32;	.endef
_wmemcpy:
LFB66:
	.cfi_startproc
	push	esi
	.cfi_def_cfa_offset 8
	.cfi_offset 6, -8
	push	ebx
	.cfi_def_cfa_offset 12
	.cfi_offset 3, -12
	mov	ebx, DWORD PTR [esp+12]
	mov	ecx, DWORD PTR [esp+16]
	mov	eax, DWORD PTR [esp+20]
	mov	edx, ebx
	jmp	L324
	.p2align 5
L325:
	add	ecx, 2
	add	edx, 2
	movzx	esi, WORD PTR [ecx-2]
	mov	WORD PTR [edx-2], si
L324:
	sub	eax, 1
	cmp	eax, -1
	jne	L325
	mov	eax, ebx
	pop	ebx
	.cfi_restore 3
	.cfi_def_cfa_offset 8
	pop	esi
	.cfi_restore 6
	.cfi_def_cfa_offset 4
	ret
	.cfi_endproc
LFE66:
	.globl	_wmemmove
	.def	_wmemmove;	.scl	2;	.type	32;	.endef
_wmemmove:
LFB67:
	.cfi_startproc
	push	esi
	.cfi_def_cfa_offset 8
	.cfi_offset 6, -8
	push	ebx
	.cfi_def_cfa_offset 12
	.cfi_offset 3, -12
	mov	ecx, DWORD PTR [esp+12]
	mov	ebx, DWORD PTR [esp+16]
	mov	eax, DWORD PTR [esp+20]
	cmp	ecx, ebx
	je	L328
	mov	esi, ecx
	sub	esi, ebx
	lea	edx, [eax+eax]
	cmp	esi, edx
	jb	L329
	mov	edx, 0
	jmp	L330
	.p2align 4
L331:
	movzx	edx, WORD PTR [ebx+eax*2]
	mov	WORD PTR [ecx+eax*2], dx
L329:
	sub	eax, 1
	cmp	eax, -1
	jne	L331
L328:
	mov	eax, ecx
	pop	ebx
	.cfi_remember_state
	.cfi_restore 3
	.cfi_def_cfa_offset 8
	pop	esi
	.cfi_restore 6
	.cfi_def_cfa_offset 4
	ret
	.p2align 4
L332:
	.cfi_restore_state
	movzx	esi, WORD PTR [ebx+edx*2]
	mov	WORD PTR [ecx+edx*2], si
	add	edx, 1
L330:
	cmp	edx, eax
	jne	L332
	jmp	L328
	.cfi_endproc
LFE67:
	.globl	_wmemset
	.def	_wmemset;	.scl	2;	.type	32;	.endef
_wmemset:
LFB68:
	.cfi_startproc
	push	ebx
	.cfi_def_cfa_offset 8
	.cfi_offset 3, -8
	mov	ebx, DWORD PTR [esp+8]
	mov	eax, DWORD PTR [esp+16]
	movzx	ecx, WORD PTR [esp+12]
	mov	edx, ebx
	jmp	L336
	.p2align 4
L337:
	add	edx, 2
	mov	WORD PTR [edx-2], cx
L336:
	sub	eax, 1
	cmp	eax, -1
	jne	L337
	mov	eax, ebx
	pop	ebx
	.cfi_restore 3
	.cfi_def_cfa_offset 4
	ret
	.cfi_endproc
LFE68:
	.globl	_bcopy
	.def	_bcopy;	.scl	2;	.type	32;	.endef
_bcopy:
LFB69:
	.cfi_startproc
	push	edi
	.cfi_def_cfa_offset 8
	.cfi_offset 7, -8
	push	esi
	.cfi_def_cfa_offset 12
	.cfi_offset 6, -12
	push	ebx
	.cfi_def_cfa_offset 16
	.cfi_offset 3, -16
	mov	ecx, DWORD PTR [esp+16]
	mov	edx, DWORD PTR [esp+20]
	mov	ebx, DWORD PTR [esp+24]
	cmp	ecx, edx
	jnb	L340
	add	edx, ebx
	mov	eax, ebx
	mov	edi, ebx
	neg	edi
	jmp	L341
	.p2align 5
L342:
	lea	esi, [edx+edi]
	movzx	ebx, BYTE PTR [ecx-1+eax]
	mov	BYTE PTR [esi-1+eax], bl
	sub	eax, 1
L341:
	test	eax, eax
	jne	L342
L339:
	pop	ebx
	.cfi_remember_state
	.cfi_restore 3
	.cfi_def_cfa_offset 12
	pop	esi
	.cfi_restore 6
	.cfi_def_cfa_offset 8
	pop	edi
	.cfi_restore 7
	.cfi_def_cfa_offset 4
	ret
L340:
	.cfi_restore_state
	je	L339
	add	ebx, edx
	mov	eax, ecx
	jmp	L344
	.p2align 5
L345:
	add	eax, 1
	add	edx, 1
	movzx	ecx, BYTE PTR [eax-1]
	mov	BYTE PTR [edx-1], cl
L344:
	cmp	edx, ebx
	jne	L345
	jmp	L339
	.cfi_endproc
LFE69:
	.globl	_rotl64
	.def	_rotl64;	.scl	2;	.type	32;	.endef
_rotl64:
LFB70:
	.cfi_startproc
	push	edi
	.cfi_def_cfa_offset 8
	.cfi_offset 7, -8
	push	esi
	.cfi_def_cfa_offset 12
	.cfi_offset 6, -12
	mov	eax, DWORD PTR [esp+12]
	mov	edx, DWORD PTR [esp+16]
	mov	ecx, DWORD PTR [esp+20]
	mov	esi, eax
	mov	edi, edx
	shld	edi, esi, cl
	sal	esi, cl
	test	cl, 32
	je	L349
	mov	edi, esi
	xor	esi, esi
L349:
	neg	ecx
	shrd	eax, edx, cl
	shr	edx, cl
	test	cl, 32
	je	L350
	mov	eax, edx
	xor	edx, edx
L350:
	or	eax, esi
	or	edx, edi
	pop	esi
	.cfi_restore 6
	.cfi_def_cfa_offset 8
	pop	edi
	.cfi_restore 7
	.cfi_def_cfa_offset 4
	ret
	.cfi_endproc
LFE70:
	.globl	_rotr64
	.def	_rotr64;	.scl	2;	.type	32;	.endef
_rotr64:
LFB71:
	.cfi_startproc
	push	edi
	.cfi_def_cfa_offset 8
	.cfi_offset 7, -8
	push	esi
	.cfi_def_cfa_offset 12
	.cfi_offset 6, -12
	mov	eax, DWORD PTR [esp+12]
	mov	edx, DWORD PTR [esp+16]
	mov	ecx, DWORD PTR [esp+20]
	mov	esi, eax
	mov	edi, edx
	shrd	esi, edi, cl
	shr	edi, cl
	test	cl, 32
	je	L353
	mov	esi, edi
	xor	edi, edi
L353:
	neg	ecx
	shld	edx, eax, cl
	sal	eax, cl
	test	cl, 32
	je	L354
	mov	edx, eax
	xor	eax, eax
L354:
	or	eax, esi
	or	edx, edi
	pop	esi
	.cfi_restore 6
	.cfi_def_cfa_offset 8
	pop	edi
	.cfi_restore 7
	.cfi_def_cfa_offset 4
	ret
	.cfi_endproc
LFE71:
	.globl	_rotl32
	.def	_rotl32;	.scl	2;	.type	32;	.endef
_rotl32:
LFB72:
	.cfi_startproc
	mov	ecx, DWORD PTR [esp+8]
	mov	eax, DWORD PTR [esp+4]
	rol	eax, cl
	ret
	.cfi_endproc
LFE72:
	.globl	_rotr32
	.def	_rotr32;	.scl	2;	.type	32;	.endef
_rotr32:
LFB73:
	.cfi_startproc
	mov	ecx, DWORD PTR [esp+8]
	mov	eax, DWORD PTR [esp+4]
	ror	eax, cl
	ret
	.cfi_endproc
LFE73:
	.globl	_rotl_sz
	.def	_rotl_sz;	.scl	2;	.type	32;	.endef
_rotl_sz:
LFB74:
	.cfi_startproc
	mov	ecx, DWORD PTR [esp+8]
	mov	eax, DWORD PTR [esp+4]
	rol	eax, cl
	ret
	.cfi_endproc
LFE74:
	.globl	_rotr_sz
	.def	_rotr_sz;	.scl	2;	.type	32;	.endef
_rotr_sz:
LFB75:
	.cfi_startproc
	mov	ecx, DWORD PTR [esp+8]
	mov	eax, DWORD PTR [esp+4]
	ror	eax, cl
	ret
	.cfi_endproc
LFE75:
	.globl	_rotl16
	.def	_rotl16;	.scl	2;	.type	32;	.endef
_rotl16:
LFB76:
	.cfi_startproc
	push	ebx
	.cfi_def_cfa_offset 8
	.cfi_offset 3, -8
	mov	ecx, DWORD PTR [esp+12]
	movzx	eax, WORD PTR [esp+8]
	mov	ebx, eax
	sal	ebx, cl
	mov	edx, 16
	sub	edx, ecx
	mov	ecx, edx
	shr	eax, cl
	or	eax, ebx
	pop	ebx
	.cfi_restore 3
	.cfi_def_cfa_offset 4
	ret
	.cfi_endproc
LFE76:
	.globl	_rotr16
	.def	_rotr16;	.scl	2;	.type	32;	.endef
_rotr16:
LFB77:
	.cfi_startproc
	push	ebx
	.cfi_def_cfa_offset 8
	.cfi_offset 3, -8
	mov	ecx, DWORD PTR [esp+12]
	movzx	eax, WORD PTR [esp+8]
	mov	ebx, eax
	shr	ebx, cl
	mov	edx, 16
	sub	edx, ecx
	mov	ecx, edx
	sal	eax, cl
	or	eax, ebx
	pop	ebx
	.cfi_restore 3
	.cfi_def_cfa_offset 4
	ret
	.cfi_endproc
LFE77:
	.globl	_rotl8
	.def	_rotl8;	.scl	2;	.type	32;	.endef
_rotl8:
LFB78:
	.cfi_startproc
	push	ebx
	.cfi_def_cfa_offset 8
	.cfi_offset 3, -8
	mov	ecx, DWORD PTR [esp+12]
	movzx	eax, BYTE PTR [esp+8]
	mov	ebx, eax
	sal	ebx, cl
	mov	edx, 8
	sub	edx, ecx
	mov	ecx, edx
	shr	eax, cl
	or	eax, ebx
	pop	ebx
	.cfi_restore 3
	.cfi_def_cfa_offset 4
	ret
	.cfi_endproc
LFE78:
	.globl	_rotr8
	.def	_rotr8;	.scl	2;	.type	32;	.endef
_rotr8:
LFB79:
	.cfi_startproc
	push	ebx
	.cfi_def_cfa_offset 8
	.cfi_offset 3, -8
	mov	ecx, DWORD PTR [esp+12]
	movzx	eax, BYTE PTR [esp+8]
	mov	ebx, eax
	shr	ebx, cl
	mov	edx, 8
	sub	edx, ecx
	mov	ecx, edx
	sal	eax, cl
	or	eax, ebx
	pop	ebx
	.cfi_restore 3
	.cfi_def_cfa_offset 4
	ret
	.cfi_endproc
LFE79:
	.globl	_bswap_16
	.def	_bswap_16;	.scl	2;	.type	32;	.endef
_bswap_16:
LFB80:
	.cfi_startproc
	movzx	eax, WORD PTR [esp+4]
	mov	edx, eax
	shr	edx, 8
	sal	eax, 8
	or	eax, edx
	ret
	.cfi_endproc
LFE80:
	.globl	_bswap_32
	.def	_bswap_32;	.scl	2;	.type	32;	.endef
_bswap_32:
LFB81:
	.cfi_startproc
	mov	edx, DWORD PTR [esp+4]
	mov	ecx, edx
	shr	ecx, 24
	mov	eax, edx
	and	eax, 16711680
	shr	eax, 8
	or	eax, ecx
	mov	ecx, edx
	and	ecx, 65280
	sal	ecx, 8
	or	eax, ecx
	sal	edx, 24
	or	eax, edx
	ret
	.cfi_endproc
LFE81:
	.globl	_bswap_64
	.def	_bswap_64;	.scl	2;	.type	32;	.endef
_bswap_64:
LFB82:
	.cfi_startproc
	push	edi
	.cfi_def_cfa_offset 8
	.cfi_offset 7, -8
	push	esi
	.cfi_def_cfa_offset 12
	.cfi_offset 6, -12
	push	ebx
	.cfi_def_cfa_offset 16
	.cfi_offset 3, -16
	mov	ecx, DWORD PTR [esp+16]
	mov	ebx, DWORD PTR [esp+20]
	mov	esi, ecx
	mov	edi, ebx
	mov	esi, edi
	xor	edi, edi
	shr	esi, 24
	mov	edx, ebx
	mov	eax, 0
	and	edx, 16711680
	mov	eax, edx
	xor	edx, edx
	shr	eax, 8
	or	esi, eax
	or	edi, edx
	mov	edx, ebx
	mov	eax, 0
	and	edx, 65280
	shrd	eax, edx, 24
	shr	edx, 24
	or	esi, eax
	or	edi, edx
	mov	edx, ebx
	mov	eax, 0
	and	edx, 255
	shrd	eax, edx, 8
	shr	edx, 8
	or	esi, eax
	or	edi, edx
	mov	eax, ecx
	and	eax, -16777216
	mov	edx, 0
	shld	edx, eax, 8
	sal	eax, 8
	or	esi, eax
	or	edi, edx
	mov	eax, ecx
	and	eax, 16711680
	mov	edx, 0
	shld	edx, eax, 24
	sal	eax, 24
	or	esi, eax
	or	edi, edx
	mov	eax, ecx
	and	eax, 65280
	mov	edx, 0
	mov	edx, eax
	xor	eax, eax
	sal	edx, 8
	or	eax, esi
	or	edx, edi
	mov	ebx, ecx
	xor	ecx, ecx
	sal	ebx, 24
	or	eax, ecx
	or	edx, ebx
	pop	ebx
	.cfi_restore 3
	.cfi_def_cfa_offset 12
	pop	esi
	.cfi_restore 6
	.cfi_def_cfa_offset 8
	pop	edi
	.cfi_restore 7
	.cfi_def_cfa_offset 4
	ret
	.cfi_endproc
LFE82:
	.globl	_ffs
	.def	_ffs;	.scl	2;	.type	32;	.endef
_ffs:
LFB83:
	.cfi_startproc
	mov	edx, DWORD PTR [esp+4]
	mov	eax, 0
L372:
	cmp	eax, 32
	je	L376
	bt	edx, eax
	jc	L377
	add	eax, 1
	jmp	L372
L377:
	add	eax, 1
	ret
L376:
	mov	eax, 0
	ret
	.cfi_endproc
LFE83:
	.globl	_libiberty_ffs
	.def	_libiberty_ffs;	.scl	2;	.type	32;	.endef
_libiberty_ffs:
LFB84:
	.cfi_startproc
	mov	edx, DWORD PTR [esp+4]
	mov	eax, 0
	test	edx, edx
	je	L379
	mov	eax, 1
	jmp	L380
	.p2align 4
L381:
	sar	edx
	add	eax, 1
L380:
	test	dl, 1
	je	L381
L379:
	ret
	.cfi_endproc
LFE84:
	.globl	_gl_isinff
	.def	_gl_isinff;	.scl	2;	.type	32;	.endef
_gl_isinff:
LFB85:
	.cfi_startproc
	fld	DWORD PTR [esp+4]
	mov	eax, 1
	fld	DWORD PTR LC2
	fcomip	st, st(1)
	ja	L389
	fld	DWORD PTR LC3
	fxch	st(1)
	fcomip	st, st(1)
	fstp	st(0)
	seta	al
	movzx	eax, al
	jmp	L384
L389:
	fstp	st(0)
L384:
	ret
	.cfi_endproc
LFE85:
	.globl	_gl_isinfd
	.def	_gl_isinfd;	.scl	2;	.type	32;	.endef
_gl_isinfd:
LFB86:
	.cfi_startproc
	fld	QWORD PTR [esp+4]
	mov	eax, 1
	fld	QWORD PTR LC4
	fcomip	st, st(1)
	ja	L396
	fld	QWORD PTR LC5
	fxch	st(1)
	fcomip	st, st(1)
	fstp	st(0)
	seta	al
	movzx	eax, al
	jmp	L391
L396:
	fstp	st(0)
L391:
	ret
	.cfi_endproc
LFE86:
	.globl	_gl_isinfl
	.def	_gl_isinfl;	.scl	2;	.type	32;	.endef
_gl_isinfl:
LFB87:
	.cfi_startproc
	fld	TBYTE PTR [esp+4]
	mov	eax, 1
	fld	TBYTE PTR LC6
	fcomip	st, st(1)
	ja	L403
	fld	TBYTE PTR LC7
	fxch	st(1)
	fcomip	st, st(1)
	fstp	st(0)
	seta	al
	movzx	eax, al
	jmp	L398
L403:
	fstp	st(0)
L398:
	ret
	.cfi_endproc
LFE87:
	.globl	__Qp_itoq
	.def	__Qp_itoq;	.scl	2;	.type	32;	.endef
__Qp_itoq:
LFB88:
	.cfi_startproc
	fild	DWORD PTR [esp+8]
	mov	eax, DWORD PTR [esp+4]
	fstp	TBYTE PTR [eax]
	ret
	.cfi_endproc
LFE88:
	.globl	_ldexpf
	.def	_ldexpf;	.scl	2;	.type	32;	.endef
_ldexpf:
LFB89:
	.cfi_startproc
	fld	DWORD PTR [esp+4]
	mov	edx, DWORD PTR [esp+8]
	fucomi	st, st(0)
	jp	L406
	fld	st(0)
	fadd	st, st(1)
	fxch	st(1)
	fucomi	st, st(1)
	fstp	st(1)
	jp	L412
	jne	L412
	jmp	L406
L413:
	fstp	st(0)
L406:
	ret
L412:
	fld	DWORD PTR LC9
	test	edx, edx
	jns	L410
	fstp	st(0)
	fld	DWORD PTR LC8
	jmp	L410
	.p2align 5
L409:
	mov	eax, edx
	shr	eax, 31
	add	eax, edx
	sar	eax
	mov	edx, eax
	je	L413
	fmul	st, st(0)
L410:
	test	dl, 1
	je	L409
	fmul	st(1), st
	jmp	L409
	.cfi_endproc
LFE89:
	.globl	_ldexp
	.def	_ldexp;	.scl	2;	.type	32;	.endef
_ldexp:
LFB90:
	.cfi_startproc
	fld	QWORD PTR [esp+4]
	mov	edx, DWORD PTR [esp+12]
	fucomi	st, st(0)
	jp	L415
	fld	st(0)
	fadd	st, st(1)
	fxch	st(1)
	fucomi	st, st(1)
	fstp	st(1)
	jp	L421
	jne	L421
	jmp	L415
L423:
	fstp	st(0)
L415:
	ret
L421:
	test	edx, edx
	js	L422
	fld	DWORD PTR LC9
	jmp	L419
L422:
	fld	DWORD PTR LC8
	jmp	L419
	.p2align 5
L418:
	mov	eax, edx
	shr	eax, 31
	add	eax, edx
	sar	eax
	mov	edx, eax
	je	L423
	fmul	st, st(0)
L419:
	test	dl, 1
	je	L418
	fmul	st(1), st
	jmp	L418
	.cfi_endproc
LFE90:
	.globl	_ldexpl
	.def	_ldexpl;	.scl	2;	.type	32;	.endef
_ldexpl:
LFB91:
	.cfi_startproc
	fld	TBYTE PTR [esp+4]
	mov	edx, DWORD PTR [esp+16]
	fucomi	st, st(0)
	jp	L425
	fld	st(0)
	fadd	st, st(1)
	fxch	st(1)
	fucomi	st, st(1)
	fstp	st(1)
	jp	L431
	jne	L431
	jmp	L425
L433:
	fstp	st(0)
L425:
	ret
L431:
	test	edx, edx
	js	L432
	fld	DWORD PTR LC9
	jmp	L429
L432:
	fld	DWORD PTR LC8
	jmp	L429
	.p2align 5
L428:
	mov	eax, edx
	shr	eax, 31
	add	eax, edx
	sar	eax
	mov	edx, eax
	je	L433
	fmul	st, st(0)
L429:
	test	dl, 1
	je	L428
	fmul	st(1), st
	jmp	L428
	.cfi_endproc
LFE91:
	.globl	_memxor
	.def	_memxor;	.scl	2;	.type	32;	.endef
_memxor:
LFB92:
	.cfi_startproc
	push	esi
	.cfi_def_cfa_offset 8
	.cfi_offset 6, -8
	push	ebx
	.cfi_def_cfa_offset 12
	.cfi_offset 3, -12
	mov	esi, DWORD PTR [esp+12]
	mov	ebx, esi
	add	ebx, DWORD PTR [esp+20]
	mov	eax, esi
	mov	ecx, DWORD PTR [esp+16]
	jmp	L435
	.p2align 5
L436:
	add	ecx, 1
	add	eax, 1
	movzx	edx, BYTE PTR [eax-1]
	xor	dl, BYTE PTR [ecx-1]
	mov	BYTE PTR [eax-1], dl
L435:
	cmp	eax, ebx
	jne	L436
	mov	eax, esi
	pop	ebx
	.cfi_restore 3
	.cfi_def_cfa_offset 8
	pop	esi
	.cfi_restore 6
	.cfi_def_cfa_offset 4
	ret
	.cfi_endproc
LFE92:
	.globl	_strncat
	.def	_strncat;	.scl	2;	.type	32;	.endef
_strncat:
LFB93:
	.cfi_startproc
	push	edi
	.cfi_def_cfa_offset 8
	.cfi_offset 7, -8
	push	esi
	.cfi_def_cfa_offset 12
	.cfi_offset 6, -12
	push	ebx
	.cfi_def_cfa_offset 16
	.cfi_offset 3, -16
	sub	esp, 4
	.cfi_def_cfa_offset 20
	mov	edi, DWORD PTR [esp+20]
	mov	esi, DWORD PTR [esp+24]
	mov	ebx, DWORD PTR [esp+28]
	mov	DWORD PTR [esp], edi
	call	_strlen
	add	eax, edi
	jmp	L439
	.p2align 5
L441:
	add	esi, 1
	add	eax, 1
	sub	ebx, 1
L439:
	test	ebx, ebx
	je	L440
	movzx	edx, BYTE PTR [esi]
	mov	BYTE PTR [eax], dl
	test	dl, dl
	jne	L441
L440:
	test	ebx, ebx
	jne	L442
	mov	BYTE PTR [eax], 0
L442:
	mov	eax, edi
	add	esp, 4
	.cfi_def_cfa_offset 16
	pop	ebx
	.cfi_restore 3
	.cfi_def_cfa_offset 12
	pop	esi
	.cfi_restore 6
	.cfi_def_cfa_offset 8
	pop	edi
	.cfi_restore 7
	.cfi_def_cfa_offset 4
	ret
	.cfi_endproc
LFE93:
	.globl	_strnlen
	.def	_strnlen;	.scl	2;	.type	32;	.endef
_strnlen:
LFB94:
	.cfi_startproc
	mov	ecx, DWORD PTR [esp+4]
	mov	edx, DWORD PTR [esp+8]
	mov	eax, 0
L445:
	cmp	eax, edx
	je	L446
	cmp	BYTE PTR [ecx+eax], 0
	jne	L447
L446:
	ret
L447:
	add	eax, 1
	jmp	L445
	.cfi_endproc
LFE94:
	.globl	_strpbrk
	.def	_strpbrk;	.scl	2;	.type	32;	.endef
_strpbrk:
LFB95:
	.cfi_startproc
	push	ebx
	.cfi_def_cfa_offset 8
	.cfi_offset 3, -8
	mov	eax, DWORD PTR [esp+8]
	mov	ecx, DWORD PTR [esp+12]
L449:
	cmp	BYTE PTR [eax], 0
	je	L456
	mov	edx, ecx
	.p2align 4
L452:
	cmp	BYTE PTR [edx], 0
	je	L457
	add	edx, 1
	movzx	ebx, BYTE PTR [eax]
	cmp	BYTE PTR [edx-1], bl
	jne	L452
L450:
	pop	ebx
	.cfi_remember_state
	.cfi_restore 3
	.cfi_def_cfa_offset 4
	ret
L457:
	.cfi_restore_state
	add	eax, 1
	jmp	L449
L456:
	mov	eax, 0
	jmp	L450
	.cfi_endproc
LFE95:
	.globl	_strrchr
	.def	_strrchr;	.scl	2;	.type	32;	.endef
_strrchr:
LFB96:
	.cfi_startproc
	push	ebx
	.cfi_def_cfa_offset 8
	.cfi_offset 3, -8
	mov	eax, DWORD PTR [esp+8]
	mov	ebx, DWORD PTR [esp+12]
	mov	edx, 0
	.p2align 5
L460:
	movsx	ecx, BYTE PTR [eax]
	cmp	ebx, ecx
	cmove	edx, eax
	add	eax, 1
	cmp	BYTE PTR [eax-1], 0
	jne	L460
	mov	eax, edx
	pop	ebx
	.cfi_restore 3
	.cfi_def_cfa_offset 4
	ret
	.cfi_endproc
LFE96:
	.globl	_strstr
	.def	_strstr;	.scl	2;	.type	32;	.endef
_strstr:
LFB97:
	.cfi_startproc
	push	ebp
	.cfi_def_cfa_offset 8
	.cfi_offset 5, -8
	push	edi
	.cfi_def_cfa_offset 12
	.cfi_offset 7, -12
	push	esi
	.cfi_def_cfa_offset 16
	.cfi_offset 6, -16
	push	ebx
	.cfi_def_cfa_offset 20
	.cfi_offset 3, -20
	sub	esp, 12
	.cfi_def_cfa_offset 32
	mov	ebx, DWORD PTR [esp+32]
	mov	edi, DWORD PTR [esp+36]
	mov	DWORD PTR [esp], edi
	call	_strlen
	mov	esi, eax
	mov	eax, ebx
	test	esi, esi
	je	L465
	movsx	ebp, BYTE PTR [edi]
L466:
	mov	DWORD PTR [esp+4], ebp
	mov	DWORD PTR [esp], ebx
	call	_strchr
	mov	ebx, eax
	test	eax, eax
	je	L471
	mov	DWORD PTR [esp+8], esi
	mov	DWORD PTR [esp+4], edi
	mov	DWORD PTR [esp], ebx
	call	_strncmp
	test	eax, eax
	je	L469
	add	ebx, 1
	jmp	L466
L471:
	mov	eax, 0
L465:
	add	esp, 12
	.cfi_remember_state
	.cfi_def_cfa_offset 20
	pop	ebx
	.cfi_restore 3
	.cfi_def_cfa_offset 16
	pop	esi
	.cfi_restore 6
	.cfi_def_cfa_offset 12
	pop	edi
	.cfi_restore 7
	.cfi_def_cfa_offset 8
	pop	ebp
	.cfi_restore 5
	.cfi_def_cfa_offset 4
	ret
L469:
	.cfi_restore_state
	mov	eax, ebx
	jmp	L465
	.cfi_endproc
LFE97:
	.globl	_copysign
	.def	_copysign;	.scl	2;	.type	32;	.endef
_copysign:
LFB98:
	.cfi_startproc
	fld	QWORD PTR [esp+4]
	fld	QWORD PTR [esp+12]
	fldz
	fcomi	st, st(2)
	ja	L485
	fstp	st(0)
L473:
	fldz
	fxch	st(2)
	fcomi	st, st(2)
	jbe	L486
	fxch	st(2)
	fcomip	st, st(1)
	fstp	st(0)
	ja	L475
	jmp	L476
L486:
	fstp	st(1)
	fstp	st(1)
L476:
	ret
L485:
	fxch	st(1)
	fcomi	st, st(1)
	fstp	st(1)
	jbe	L473
	fstp	st(0)
L475:
	fchs
	ret
	.cfi_endproc
LFE98:
	.globl	_memmem
	.def	_memmem;	.scl	2;	.type	32;	.endef
_memmem:
LFB99:
	.cfi_startproc
	push	ebp
	.cfi_def_cfa_offset 8
	.cfi_offset 5, -8
	push	edi
	.cfi_def_cfa_offset 12
	.cfi_offset 7, -12
	push	esi
	.cfi_def_cfa_offset 16
	.cfi_offset 6, -16
	push	ebx
	.cfi_def_cfa_offset 20
	.cfi_offset 3, -20
	sub	esp, 16
	.cfi_def_cfa_offset 36
	mov	ecx, DWORD PTR [esp+36]
	mov	ebx, DWORD PTR [esp+40]
	mov	edi, DWORD PTR [esp+44]
	mov	edx, DWORD PTR [esp+48]
	mov	esi, ebx
	sub	esi, edx
	add	esi, ecx
	mov	eax, ecx
	test	edx, edx
	je	L488
	cmp	ebx, edx
	jb	L493
	mov	ebx, ecx
	lea	eax, [edx-1]
	mov	DWORD PTR [esp+12], eax
	lea	ebp, [edi+1]
	jmp	L489
	.p2align 4
L490:
	add	ebx, 1
L489:
	cmp	esi, ebx
	jb	L496
	movzx	eax, BYTE PTR [edi]
	cmp	BYTE PTR [ebx], al
	jne	L490
	lea	eax, [ebx+1]
	mov	ecx, DWORD PTR [esp+12]
	mov	DWORD PTR [esp+8], ecx
	mov	DWORD PTR [esp+4], ebp
	mov	DWORD PTR [esp], eax
	call	_memcmp
	test	eax, eax
	jne	L490
	mov	eax, ebx
	jmp	L488
L496:
	mov	eax, 0
L488:
	add	esp, 16
	.cfi_remember_state
	.cfi_def_cfa_offset 20
	pop	ebx
	.cfi_restore 3
	.cfi_def_cfa_offset 16
	pop	esi
	.cfi_restore 6
	.cfi_def_cfa_offset 12
	pop	edi
	.cfi_restore 7
	.cfi_def_cfa_offset 8
	pop	ebp
	.cfi_restore 5
	.cfi_def_cfa_offset 4
	ret
L493:
	.cfi_restore_state
	mov	eax, 0
	jmp	L488
	.cfi_endproc
LFE99:
	.globl	_mempcpy
	.def	_mempcpy;	.scl	2;	.type	32;	.endef
_mempcpy:
LFB100:
	.cfi_startproc
	push	ebx
	.cfi_def_cfa_offset 8
	.cfi_offset 3, -8
	sub	esp, 24
	.cfi_def_cfa_offset 32
	mov	ebx, DWORD PTR [esp+40]
	mov	DWORD PTR [esp+8], ebx
	mov	eax, DWORD PTR [esp+36]
	mov	DWORD PTR [esp+4], eax
	mov	eax, DWORD PTR [esp+32]
	mov	DWORD PTR [esp], eax
	call	_memcpy
	add	eax, ebx
	add	esp, 24
	.cfi_def_cfa_offset 8
	pop	ebx
	.cfi_restore 3
	.cfi_def_cfa_offset 4
	ret
	.cfi_endproc
LFE100:
	.globl	_frexp
	.def	_frexp;	.scl	2;	.type	32;	.endef
_frexp:
LFB101:
	.cfi_startproc
	fld	QWORD PTR [esp+4]
	fldz
	mov	edx, 0
	fcomip	st, st(1)
	ja	L516
L500:
	mov	eax, 0
	fld1
	fxch	st(1)
	fcomi	st, st(1)
	fstp	st(1)
	jnb	L502
	fldz
	fucomip	st, st(1)
	setp	al
	mov	ecx, 1
	cmovne	eax, ecx
	fld	DWORD PTR LC8
	fcomip	st, st(1)
	seta	cl
	test	cl, al
	jne	L511
	mov	eax, 0
	jmp	L505
L516:
	fchs
	mov	edx, 1
	jmp	L500
	.p2align 5
L504:
	add	eax, 1
	fmul	DWORD PTR LC8
L502:
	fld1
	fxch	st(1)
	fcomi	st, st(1)
	fstp	st(1)
	jnb	L504
L505:
	mov	ecx, DWORD PTR [esp+12]
	mov	DWORD PTR [ecx], eax
	test	edx, edx
	je	L508
	fchs
L508:
	ret
	.p2align 4
L507:
	sub	eax, 1
	fadd	st, st(0)
L506:
	fld	DWORD PTR LC8
	fcomip	st, st(1)
	ja	L507
	jmp	L505
L511:
	mov	eax, 0
	jmp	L506
	.cfi_endproc
LFE101:
	.globl	___muldi3
	.def	___muldi3;	.scl	2;	.type	32;	.endef
___muldi3:
LFB102:
	.cfi_startproc
	push	edi
	.cfi_def_cfa_offset 8
	.cfi_offset 7, -8
	push	esi
	.cfi_def_cfa_offset 12
	.cfi_offset 6, -12
	push	ebx
	.cfi_def_cfa_offset 16
	.cfi_offset 3, -16
	sub	esp, 16
	.cfi_def_cfa_offset 32
	mov	esi, DWORD PTR [esp+40]
	mov	edi, DWORD PTR [esp+44]
	mov	eax, DWORD PTR [esp+32]
	mov	edx, DWORD PTR [esp+36]
	mov	DWORD PTR [esp+8], 0
	mov	DWORD PTR [esp+12], 0
	jmp	L518
	.p2align 6
L519:
	add	esi, esi
	adc	edi, edi
	shrd	eax, edx, 1
	shr	edx
L518:
	mov	ecx, eax
	or	ecx, edx
	je	L522
	mov	ecx, eax
	and	ecx, 1
	mov	ebx, 0
	mov	DWORD PTR [esp], ecx
	mov	DWORD PTR [esp+4], ebx
	mov	ecx, DWORD PTR [esp]
	mov	ebx, DWORD PTR [esp+4]
	or	ecx, ebx
	je	L519
	add	DWORD PTR [esp+8], esi
	adc	DWORD PTR [esp+12], edi
	jmp	L519
L522:
	mov	eax, DWORD PTR [esp+8]
	mov	edx, DWORD PTR [esp+12]
	add	esp, 16
	.cfi_def_cfa_offset 16
	pop	ebx
	.cfi_restore 3
	.cfi_def_cfa_offset 12
	pop	esi
	.cfi_restore 6
	.cfi_def_cfa_offset 8
	pop	edi
	.cfi_restore 7
	.cfi_def_cfa_offset 4
	ret
	.cfi_endproc
LFE102:
	.globl	_udivmodsi4
	.def	_udivmodsi4;	.scl	2;	.type	32;	.endef
_udivmodsi4:
LFB103:
	.cfi_startproc
	push	edi
	.cfi_def_cfa_offset 8
	.cfi_offset 7, -8
	push	esi
	.cfi_def_cfa_offset 12
	.cfi_offset 6, -12
	push	ebx
	.cfi_def_cfa_offset 16
	.cfi_offset 3, -16
	mov	edi, DWORD PTR [esp+16]
	mov	edx, DWORD PTR [esp+20]
	mov	ecx, 1
	jmp	L524
	.p2align 5
L527:
	add	edx, edx
	add	ecx, ecx
L524:
	cmp	edx, edi
	setb	bl
	mov	esi, ebx
	test	ecx, ecx
	setne	bl
	mov	eax, esi
	test	al, bl
	je	L534
	test	edx, edx
	jns	L527
	mov	ebx, 0
	jmp	L526
L534:
	mov	ebx, 0
	jmp	L526
	.p2align 4
L529:
	shr	ecx
	shr	edx
L526:
	test	ecx, ecx
	je	L535
	cmp	edi, edx
	jb	L529
	sub	edi, edx
	or	ebx, ecx
	jmp	L529
L535:
	cmp	DWORD PTR [esp+24], 0
	mov	eax, ebx
	cmovne	eax, edi
	pop	ebx
	.cfi_restore 3
	.cfi_def_cfa_offset 12
	pop	esi
	.cfi_restore 6
	.cfi_def_cfa_offset 8
	pop	edi
	.cfi_restore 7
	.cfi_def_cfa_offset 4
	ret
	.cfi_endproc
LFE103:
	.globl	___clrsbqi2
	.def	___clrsbqi2;	.scl	2;	.type	32;	.endef
___clrsbqi2:
LFB104:
	.cfi_startproc
	mov	edx, DWORD PTR [esp+4]
	mov	eax, edx
	not	eax
	cmp	al, dl
	cmovl	eax, edx
	mov	edx, 7
	test	al, al
	je	L538
	movsx	eax, al
	sal	eax, 8
	bsr	eax, eax
	xor	eax, 31
	lea	edx, [eax-1]
L538:
	mov	eax, edx
	ret
	.cfi_endproc
LFE104:
	.globl	___clrsbdi2
	.def	___clrsbdi2;	.scl	2;	.type	32;	.endef
___clrsbdi2:
LFB105:
	.cfi_startproc
	push	ebx
	.cfi_def_cfa_offset 8
	.cfi_offset 3, -8
	mov	ecx, DWORD PTR [esp+8]
	mov	ebx, DWORD PTR [esp+12]
	test	ebx, ebx
	js	L547
L541:
	mov	eax, 63
	mov	edx, ecx
	or	edx, ebx
	je	L542
	test	ebx, ebx
	je	L543
	bsr	eax, ebx
	xor	eax, 31
L544:
	sub	eax, 1
L542:
	pop	ebx
	.cfi_remember_state
	.cfi_restore 3
	.cfi_def_cfa_offset 4
	ret
L547:
	.cfi_restore_state
	not	ecx
	not	ebx
	jmp	L541
L543:
	bsr	eax, ecx
	xor	eax, 31
	add	eax, 32
	jmp	L544
	.cfi_endproc
LFE105:
	.globl	___mulsi3
	.def	___mulsi3;	.scl	2;	.type	32;	.endef
___mulsi3:
LFB106:
	.cfi_startproc
	push	ebx
	.cfi_def_cfa_offset 8
	.cfi_offset 3, -8
	mov	eax, DWORD PTR [esp+8]
	mov	ecx, DWORD PTR [esp+12]
	mov	edx, 0
	jmp	L549
	.p2align 4
L551:
	lea	ebx, [edx+ecx]
	test	al, 1
	cmovne	edx, ebx
	shr	eax
	add	ecx, ecx
L549:
	test	eax, eax
	jne	L551
	mov	eax, edx
	pop	ebx
	.cfi_restore 3
	.cfi_def_cfa_offset 4
	ret
	.cfi_endproc
LFE106:
	.globl	___cmovd
	.def	___cmovd;	.scl	2;	.type	32;	.endef
___cmovd:
LFB107:
	.cfi_startproc
	push	ebp
	.cfi_def_cfa_offset 8
	.cfi_offset 5, -8
	push	edi
	.cfi_def_cfa_offset 12
	.cfi_offset 7, -12
	push	esi
	.cfi_def_cfa_offset 16
	.cfi_offset 6, -16
	push	ebx
	.cfi_def_cfa_offset 20
	.cfi_offset 3, -20
	mov	edi, DWORD PTR [esp+20]
	mov	esi, DWORD PTR [esp+24]
	mov	ecx, DWORD PTR [esp+28]
	mov	ebp, ecx
	shr	ebp, 3
	mov	eax, ecx
	and	eax, -8
	cmp	edi, esi
	jb	L554
	lea	edx, [esi+ecx]
	cmp	edx, edi
	jnb	L555
L554:
	mov	edx, esi
	mov	ebx, edi
	lea	ebp, [esi+ebp*8]
	mov	DWORD PTR [esp+20], edi
	mov	DWORD PTR [esp+24], esi
	jmp	L556
	.p2align 5
L557:
	mov	esi, DWORD PTR [edx]
	mov	edi, DWORD PTR [edx+4]
	mov	DWORD PTR [ebx], esi
	mov	DWORD PTR [ebx+4], edi
	add	edx, 8
	add	ebx, 8
L556:
	cmp	edx, ebp
	jne	L557
	mov	edi, DWORD PTR [esp+20]
	mov	esi, DWORD PTR [esp+24]
	jmp	L558
	.p2align 4
L559:
	movzx	edx, BYTE PTR [esi+eax]
	mov	BYTE PTR [edi+eax], dl
	add	eax, 1
L558:
	cmp	eax, ecx
	jb	L559
L553:
	pop	ebx
	.cfi_remember_state
	.cfi_restore 3
	.cfi_def_cfa_offset 16
	pop	esi
	.cfi_restore 6
	.cfi_def_cfa_offset 12
	pop	edi
	.cfi_restore 7
	.cfi_def_cfa_offset 8
	pop	ebp
	.cfi_restore 5
	.cfi_def_cfa_offset 4
	ret
	.p2align 4
L561:
	.cfi_restore_state
	movzx	eax, BYTE PTR [esi+ecx]
	mov	BYTE PTR [edi+ecx], al
L555:
	sub	ecx, 1
	cmp	ecx, -1
	jne	L561
	jmp	L553
	.cfi_endproc
LFE107:
	.globl	___cmovh
	.def	___cmovh;	.scl	2;	.type	32;	.endef
___cmovh:
LFB108:
	.cfi_startproc
	push	ebp
	.cfi_def_cfa_offset 8
	.cfi_offset 5, -8
	push	edi
	.cfi_def_cfa_offset 12
	.cfi_offset 7, -12
	push	esi
	.cfi_def_cfa_offset 16
	.cfi_offset 6, -16
	push	ebx
	.cfi_def_cfa_offset 20
	.cfi_offset 3, -20
	mov	esi, DWORD PTR [esp+20]
	mov	ebx, DWORD PTR [esp+24]
	mov	ecx, DWORD PTR [esp+28]
	mov	edi, ecx
	shr	edi
	cmp	esi, ebx
	jb	L566
	lea	eax, [ebx+ecx]
	cmp	eax, esi
	jnb	L567
L566:
	mov	eax, ebx
	mov	edx, esi
	lea	edi, [ebx+edi*2]
	jmp	L568
	.p2align 4
L569:
	movzx	ebp, WORD PTR [eax]
	mov	WORD PTR [edx], bp
	add	eax, 2
	add	edx, 2
L568:
	cmp	eax, edi
	jne	L569
	test	cl, 1
	je	L565
	movzx	eax, BYTE PTR [ebx-1+ecx]
	mov	BYTE PTR [esi-1+ecx], al
L565:
	pop	ebx
	.cfi_remember_state
	.cfi_restore 3
	.cfi_def_cfa_offset 16
	pop	esi
	.cfi_restore 6
	.cfi_def_cfa_offset 12
	pop	edi
	.cfi_restore 7
	.cfi_def_cfa_offset 8
	pop	ebp
	.cfi_restore 5
	.cfi_def_cfa_offset 4
	ret
	.p2align 4
L571:
	.cfi_restore_state
	movzx	eax, BYTE PTR [ebx+ecx]
	mov	BYTE PTR [esi+ecx], al
L567:
	sub	ecx, 1
	cmp	ecx, -1
	jne	L571
	jmp	L565
	.cfi_endproc
LFE108:
	.globl	___cmovw
	.def	___cmovw;	.scl	2;	.type	32;	.endef
___cmovw:
LFB109:
	.cfi_startproc
	push	ebp
	.cfi_def_cfa_offset 8
	.cfi_offset 5, -8
	push	edi
	.cfi_def_cfa_offset 12
	.cfi_offset 7, -12
	push	esi
	.cfi_def_cfa_offset 16
	.cfi_offset 6, -16
	push	ebx
	.cfi_def_cfa_offset 20
	.cfi_offset 3, -20
	sub	esp, 4
	.cfi_def_cfa_offset 24
	mov	edi, DWORD PTR [esp+24]
	mov	esi, DWORD PTR [esp+28]
	mov	ecx, DWORD PTR [esp+32]
	mov	ebp, ecx
	shr	ebp, 2
	mov	eax, ecx
	and	eax, -4
	cmp	edi, esi
	jb	L575
	lea	edx, [esi+ecx]
	cmp	edx, edi
	jnb	L576
L575:
	mov	edx, esi
	mov	ebx, edi
	lea	ebp, [esi+ebp*4]
	mov	DWORD PTR [esp], eax
	jmp	L577
	.p2align 4
L578:
	mov	eax, DWORD PTR [edx]
	mov	DWORD PTR [ebx], eax
	add	edx, 4
	add	ebx, 4
L577:
	cmp	edx, ebp
	jne	L578
	mov	eax, DWORD PTR [esp]
	jmp	L579
	.p2align 4
L580:
	movzx	edx, BYTE PTR [esi+eax]
	mov	BYTE PTR [edi+eax], dl
	add	eax, 1
L579:
	cmp	eax, ecx
	jb	L580
L574:
	add	esp, 4
	.cfi_remember_state
	.cfi_def_cfa_offset 20
	pop	ebx
	.cfi_restore 3
	.cfi_def_cfa_offset 16
	pop	esi
	.cfi_restore 6
	.cfi_def_cfa_offset 12
	pop	edi
	.cfi_restore 7
	.cfi_def_cfa_offset 8
	pop	ebp
	.cfi_restore 5
	.cfi_def_cfa_offset 4
	ret
	.p2align 4
L582:
	.cfi_restore_state
	movzx	eax, BYTE PTR [esi+ecx]
	mov	BYTE PTR [edi+ecx], al
L576:
	sub	ecx, 1
	cmp	ecx, -1
	jne	L582
	jmp	L574
	.cfi_endproc
LFE109:
	.globl	___modi
	.def	___modi;	.scl	2;	.type	32;	.endef
___modi:
LFB110:
	.cfi_startproc
	mov	eax, DWORD PTR [esp+4]
	cdq
	idiv	DWORD PTR [esp+8]
	mov	eax, edx
	ret
	.cfi_endproc
LFE110:
	.globl	___uitod
	.def	___uitod;	.scl	2;	.type	32;	.endef
___uitod:
LFB111:
	.cfi_startproc
	sub	esp, 12
	.cfi_def_cfa_offset 16
	mov	eax, DWORD PTR [esp+16]
	mov	edx, 0
	mov	DWORD PTR [esp], eax
	mov	DWORD PTR [esp+4], edx
	fild	QWORD PTR [esp]
	add	esp, 12
	.cfi_def_cfa_offset 4
	ret
	.cfi_endproc
LFE111:
	.globl	___uitof
	.def	___uitof;	.scl	2;	.type	32;	.endef
___uitof:
LFB112:
	.cfi_startproc
	sub	esp, 12
	.cfi_def_cfa_offset 16
	mov	eax, DWORD PTR [esp+16]
	mov	edx, 0
	mov	DWORD PTR [esp], eax
	mov	DWORD PTR [esp+4], edx
	fild	QWORD PTR [esp]
	add	esp, 12
	.cfi_def_cfa_offset 4
	ret
	.cfi_endproc
LFE112:
	.globl	___ulltod
	.def	___ulltod;	.scl	2;	.type	32;	.endef
___ulltod:
LFB113:
	.cfi_startproc
	sub	esp, 12
	.cfi_def_cfa_offset 16
	fild	QWORD PTR [esp+16]
	cmp	DWORD PTR [esp+20], 0
	js	L594
L592:
	fstp	QWORD PTR [esp]
	fld	QWORD PTR [esp]
	add	esp, 12
	.cfi_remember_state
	.cfi_def_cfa_offset 4
	ret
L594:
	.cfi_restore_state
	fadd	DWORD PTR LC11
	jmp	L592
	.cfi_endproc
LFE113:
	.globl	___ulltof
	.def	___ulltof;	.scl	2;	.type	32;	.endef
___ulltof:
LFB114:
	.cfi_startproc
	sub	esp, 12
	.cfi_def_cfa_offset 16
	fild	QWORD PTR [esp+16]
	cmp	DWORD PTR [esp+20], 0
	js	L598
L596:
	fstp	DWORD PTR [esp+4]
	fld	DWORD PTR [esp+4]
	add	esp, 12
	.cfi_remember_state
	.cfi_def_cfa_offset 4
	ret
L598:
	.cfi_restore_state
	fadd	DWORD PTR LC11
	jmp	L596
	.cfi_endproc
LFE114:
	.globl	___umodi
	.def	___umodi;	.scl	2;	.type	32;	.endef
___umodi:
LFB115:
	.cfi_startproc
	mov	eax, DWORD PTR [esp+4]
	mov	edx, 0
	div	DWORD PTR [esp+8]
	mov	eax, edx
	ret
	.cfi_endproc
LFE115:
	.globl	___clzhi2
	.def	___clzhi2;	.scl	2;	.type	32;	.endef
___clzhi2:
LFB116:
	.cfi_startproc
	push	ebx
	.cfi_def_cfa_offset 8
	.cfi_offset 3, -8
	mov	eax, 0
	movzx	ebx, WORD PTR [esp+8]
	mov	ecx, 15
L601:
	cmp	eax, 16
	je	L602
	mov	edx, ecx
	sub	edx, eax
	bt	ebx, edx
	jc	L602
	add	eax, 1
	jmp	L601
L602:
	pop	ebx
	.cfi_restore 3
	.cfi_def_cfa_offset 4
	ret
	.cfi_endproc
LFE116:
	.globl	___ctzhi2
	.def	___ctzhi2;	.scl	2;	.type	32;	.endef
___ctzhi2:
LFB117:
	.cfi_startproc
	mov	eax, 0
	movzx	edx, WORD PTR [esp+4]
L606:
	cmp	eax, 16
	je	L607
	bt	edx, eax
	jc	L607
	add	eax, 1
	jmp	L606
L607:
	ret
	.cfi_endproc
LFE117:
	.globl	___fixunssfsi
	.def	___fixunssfsi;	.scl	2;	.type	32;	.endef
___fixunssfsi:
LFB118:
	.cfi_startproc
	sub	esp, 8
	.cfi_def_cfa_offset 12
	fld	DWORD PTR LC12
	fld	DWORD PTR [esp+12]
	fcomi	st, st(1)
	jnb	L617
	fstp	st(1)
	fnstcw	WORD PTR [esp+6]
	movzx	eax, WORD PTR [esp+6]
	or	ah, 12
	mov	WORD PTR [esp+4], ax
	fldcw	WORD PTR [esp+4]
	fistp	DWORD PTR [esp]
	fldcw	WORD PTR [esp+6]
	mov	eax, DWORD PTR [esp]
L615:
	add	esp, 8
	.cfi_remember_state
	.cfi_def_cfa_offset 4
	ret
L617:
	.cfi_restore_state
	fsubrp	st(1), st
	fnstcw	WORD PTR [esp+6]
	movzx	eax, WORD PTR [esp+6]
	or	ah, 12
	mov	WORD PTR [esp+4], ax
	fldcw	WORD PTR [esp+4]
	fistp	DWORD PTR [esp]
	fldcw	WORD PTR [esp+6]
	mov	eax, DWORD PTR [esp]
	add	eax, 32768
	jmp	L615
	.cfi_endproc
LFE118:
	.globl	___parityhi2
	.def	___parityhi2;	.scl	2;	.type	32;	.endef
___parityhi2:
LFB119:
	.cfi_startproc
	push	ebx
	.cfi_def_cfa_offset 8
	.cfi_offset 3, -8
	mov	eax, 0
	mov	ecx, 0
	movzx	ebx, WORD PTR [esp+8]
	jmp	L619
	.p2align 5
L621:
	mov	edx, ebx
	sar	edx, cl
	and	edx, 1
	cmp	edx, 1
	sbb	eax, -1
	add	ecx, 1
L619:
	cmp	ecx, 16
	jne	L621
	and	eax, 1
	pop	ebx
	.cfi_restore 3
	.cfi_def_cfa_offset 4
	ret
	.cfi_endproc
LFE119:
	.globl	___popcounthi2
	.def	___popcounthi2;	.scl	2;	.type	32;	.endef
___popcounthi2:
LFB120:
	.cfi_startproc
	push	ebx
	.cfi_def_cfa_offset 8
	.cfi_offset 3, -8
	mov	edx, 0
	mov	ecx, 0
	movzx	ebx, WORD PTR [esp+8]
	jmp	L624
	.p2align 5
L626:
	mov	eax, ebx
	sar	eax, cl
	and	eax, 1
	cmp	eax, 1
	sbb	edx, -1
	add	ecx, 1
L624:
	cmp	ecx, 16
	jne	L626
	mov	eax, edx
	pop	ebx
	.cfi_restore 3
	.cfi_def_cfa_offset 4
	ret
	.cfi_endproc
LFE120:
	.globl	___mulsi3_iq2000
	.def	___mulsi3_iq2000;	.scl	2;	.type	32;	.endef
___mulsi3_iq2000:
LFB121:
	.cfi_startproc
	push	ebx
	.cfi_def_cfa_offset 8
	.cfi_offset 3, -8
	mov	eax, DWORD PTR [esp+8]
	mov	ecx, DWORD PTR [esp+12]
	mov	edx, 0
	jmp	L629
	.p2align 4
L631:
	lea	ebx, [edx+ecx]
	test	al, 1
	cmovne	edx, ebx
	shr	eax
	add	ecx, ecx
L629:
	test	eax, eax
	jne	L631
	mov	eax, edx
	pop	ebx
	.cfi_restore 3
	.cfi_def_cfa_offset 4
	ret
	.cfi_endproc
LFE121:
	.globl	___mulsi3_lm32
	.def	___mulsi3_lm32;	.scl	2;	.type	32;	.endef
___mulsi3_lm32:
LFB122:
	.cfi_startproc
	push	ebx
	.cfi_def_cfa_offset 8
	.cfi_offset 3, -8
	mov	ecx, DWORD PTR [esp+8]
	mov	edx, DWORD PTR [esp+12]
	mov	eax, 0
	test	ecx, ecx
	jne	L635
	jmp	L634
	.p2align 5
L637:
	lea	ebx, [eax+ecx]
	test	dl, 1
	cmovne	eax, ebx
	add	ecx, ecx
	shr	edx
L635:
	test	edx, edx
	jne	L637
L634:
	pop	ebx
	.cfi_restore 3
	.cfi_def_cfa_offset 4
	ret
	.cfi_endproc
LFE122:
	.globl	___udivmodsi4
	.def	___udivmodsi4;	.scl	2;	.type	32;	.endef
___udivmodsi4:
LFB123:
	.cfi_startproc
	push	edi
	.cfi_def_cfa_offset 8
	.cfi_offset 7, -8
	push	esi
	.cfi_def_cfa_offset 12
	.cfi_offset 6, -12
	push	ebx
	.cfi_def_cfa_offset 16
	.cfi_offset 3, -16
	mov	edi, DWORD PTR [esp+16]
	mov	edx, DWORD PTR [esp+20]
	mov	ecx, 1
	jmp	L641
	.p2align 5
L644:
	add	edx, edx
	add	ecx, ecx
L641:
	cmp	edx, edi
	setb	bl
	mov	esi, ebx
	test	ecx, ecx
	setne	bl
	mov	eax, esi
	test	al, bl
	je	L651
	test	edx, edx
	jns	L644
	mov	ebx, 0
	jmp	L643
L651:
	mov	ebx, 0
	jmp	L643
	.p2align 4
L646:
	shr	ecx
	shr	edx
L643:
	test	ecx, ecx
	je	L652
	cmp	edi, edx
	jb	L646
	sub	edi, edx
	or	ebx, ecx
	jmp	L646
L652:
	cmp	DWORD PTR [esp+24], 0
	mov	eax, ebx
	cmovne	eax, edi
	pop	ebx
	.cfi_restore 3
	.cfi_def_cfa_offset 12
	pop	esi
	.cfi_restore 6
	.cfi_def_cfa_offset 8
	pop	edi
	.cfi_restore 7
	.cfi_def_cfa_offset 4
	ret
	.cfi_endproc
LFE123:
	.globl	___mspabi_cmpf
	.def	___mspabi_cmpf;	.scl	2;	.type	32;	.endef
___mspabi_cmpf:
LFB124:
	.cfi_startproc
	fld	DWORD PTR [esp+4]
	fld	DWORD PTR [esp+8]
	mov	eax, -1
	fcomi	st, st(1)
	ja	L657
	fxch	st(1)
	fcomip	st, st(1)
	fstp	st(0)
	seta	al
	movzx	eax, al
	jmp	L654
L657:
	fstp	st(0)
	fstp	st(0)
L654:
	ret
	.cfi_endproc
LFE124:
	.globl	___mspabi_cmpd
	.def	___mspabi_cmpd;	.scl	2;	.type	32;	.endef
___mspabi_cmpd:
LFB125:
	.cfi_startproc
	fld	QWORD PTR [esp+4]
	fld	QWORD PTR [esp+12]
	mov	eax, -1
	fcomi	st, st(1)
	ja	L662
	fxch	st(1)
	fcomip	st, st(1)
	fstp	st(0)
	seta	al
	movzx	eax, al
	jmp	L659
L662:
	fstp	st(0)
	fstp	st(0)
L659:
	ret
	.cfi_endproc
LFE125:
	.globl	___mspabi_mpysll
	.def	___mspabi_mpysll;	.scl	2;	.type	32;	.endef
___mspabi_mpysll:
LFB126:
	.cfi_startproc
	push	edi
	.cfi_def_cfa_offset 8
	.cfi_offset 7, -8
	push	esi
	.cfi_def_cfa_offset 12
	.cfi_offset 6, -12
	push	ebx
	.cfi_def_cfa_offset 16
	.cfi_offset 3, -16
	sub	esp, 8
	.cfi_def_cfa_offset 24
	mov	eax, DWORD PTR [esp+24]
	mov	edx, DWORD PTR [esp+28]
	mov	edi, eax
	sar	edi, 31
	mov	ebx, edx
	sar	ebx, 31
	mov	DWORD PTR [esp], edx
	mov	DWORD PTR [esp+4], ebx
	mov	ecx, edi
	imul	ecx, edx
	mov	ebx, DWORD PTR [esp+4]
	imul	ebx, eax
	add	ecx, ebx
	mul	edx
	add	edx, ecx
	add	esp, 8
	.cfi_def_cfa_offset 16
	pop	ebx
	.cfi_restore 3
	.cfi_def_cfa_offset 12
	pop	esi
	.cfi_restore 6
	.cfi_def_cfa_offset 8
	pop	edi
	.cfi_restore 7
	.cfi_def_cfa_offset 4
	ret
	.cfi_endproc
LFE126:
	.globl	___mspabi_mpyull
	.def	___mspabi_mpyull;	.scl	2;	.type	32;	.endef
___mspabi_mpyull:
LFB127:
	.cfi_startproc
	mov	eax, DWORD PTR [esp+4]
	mul	DWORD PTR [esp+8]
	ret
	.cfi_endproc
LFE127:
	.globl	___mulhi3
	.def	___mulhi3;	.scl	2;	.type	32;	.endef
___mulhi3:
LFB128:
	.cfi_startproc
	push	ebp
	.cfi_def_cfa_offset 8
	.cfi_offset 5, -8
	push	edi
	.cfi_def_cfa_offset 12
	.cfi_offset 7, -12
	push	esi
	.cfi_def_cfa_offset 16
	.cfi_offset 6, -16
	push	ebx
	.cfi_def_cfa_offset 20
	.cfi_offset 3, -20
	sub	esp, 4
	.cfi_def_cfa_offset 24
	mov	eax, DWORD PTR [esp+28]
	mov	ebp, 0
	test	eax, eax
	js	L675
L667:
	mov	edx, 0
	mov	BYTE PTR [esp+3], 0
	jmp	L668
L675:
	neg	eax
	mov	ebp, 1
	jmp	L667
	.p2align 6
L670:
	mov	esi, edx
	add	esi, DWORD PTR [esp+24]
	test	al, 1
	cmovne	edx, esi
	sal	DWORD PTR [esp+24]
	sar	eax
	add	BYTE PTR [esp+3], 1
L668:
	test	eax, eax
	setne	bl
	mov	esi, ebx
	cmp	BYTE PTR [esp+3], 31
	setbe	bl
	mov	ecx, esi
	test	bl, cl
	jne	L670
	mov	eax, edx
	neg	eax
	test	ebp, ebp
	cmove	eax, edx
	add	esp, 4
	.cfi_def_cfa_offset 20
	pop	ebx
	.cfi_restore 3
	.cfi_def_cfa_offset 16
	pop	esi
	.cfi_restore 6
	.cfi_def_cfa_offset 12
	pop	edi
	.cfi_restore 7
	.cfi_def_cfa_offset 8
	pop	ebp
	.cfi_restore 5
	.cfi_def_cfa_offset 4
	ret
	.cfi_endproc
LFE128:
	.globl	___divsi3
	.def	___divsi3;	.scl	2;	.type	32;	.endef
___divsi3:
LFB129:
	.cfi_startproc
	push	ebx
	.cfi_def_cfa_offset 8
	.cfi_offset 3, -8
	sub	esp, 12
	.cfi_def_cfa_offset 20
	mov	eax, DWORD PTR [esp+20]
	mov	edx, DWORD PTR [esp+24]
	mov	ebx, 0
	test	eax, eax
	js	L682
L677:
	test	edx, edx
	js	L683
L678:
	mov	DWORD PTR [esp+8], 0
	mov	DWORD PTR [esp+4], edx
	mov	DWORD PTR [esp], eax
	call	___udivmodsi4
	mov	edx, eax
	neg	edx
	test	ebx, ebx
	cmovne	eax, edx
	add	esp, 12
	.cfi_remember_state
	.cfi_def_cfa_offset 8
	pop	ebx
	.cfi_restore 3
	.cfi_def_cfa_offset 4
	ret
L682:
	.cfi_restore_state
	neg	eax
	mov	ebx, 1
	jmp	L677
L683:
	neg	edx
	xor	ebx, 1
	jmp	L678
	.cfi_endproc
LFE129:
	.globl	___modsi3
	.def	___modsi3;	.scl	2;	.type	32;	.endef
___modsi3:
LFB130:
	.cfi_startproc
	push	ebx
	.cfi_def_cfa_offset 8
	.cfi_offset 3, -8
	sub	esp, 12
	.cfi_def_cfa_offset 20
	mov	edx, DWORD PTR [esp+20]
	mov	eax, DWORD PTR [esp+24]
	mov	ebx, 0
	test	edx, edx
	js	L690
L685:
	mov	ecx, eax
	neg	ecx
	cmovns	eax, ecx
	mov	DWORD PTR [esp+8], 1
	mov	DWORD PTR [esp+4], eax
	mov	DWORD PTR [esp], edx
	call	___udivmodsi4
	mov	edx, eax
	neg	edx
	test	ebx, ebx
	cmovne	eax, edx
	add	esp, 12
	.cfi_remember_state
	.cfi_def_cfa_offset 8
	pop	ebx
	.cfi_restore 3
	.cfi_def_cfa_offset 4
	ret
L690:
	.cfi_restore_state
	neg	edx
	mov	ebx, 1
	jmp	L685
	.cfi_endproc
LFE130:
	.globl	___udivmodhi4
	.def	___udivmodhi4;	.scl	2;	.type	32;	.endef
___udivmodhi4:
LFB131:
	.cfi_startproc
	push	edi
	.cfi_def_cfa_offset 8
	.cfi_offset 7, -8
	push	esi
	.cfi_def_cfa_offset 12
	.cfi_offset 6, -12
	push	ebx
	.cfi_def_cfa_offset 16
	.cfi_offset 3, -16
	movzx	edi, WORD PTR [esp+16]
	movzx	edx, WORD PTR [esp+20]
	mov	ecx, 1
	jmp	L692
	.p2align 5
L695:
	add	edx, edx
	add	ecx, ecx
L692:
	cmp	dx, di
	setb	bl
	mov	esi, ebx
	test	cx, cx
	setne	bl
	mov	eax, esi
	test	al, bl
	je	L702
	test	dx, dx
	jns	L695
	mov	ebx, 0
	jmp	L694
L702:
	mov	ebx, 0
	jmp	L694
	.p2align 4
L697:
	shr	cx
	shr	dx
L694:
	test	cx, cx
	je	L703
	cmp	di, dx
	jb	L697
	sub	edi, edx
	or	ebx, ecx
	jmp	L697
L703:
	cmp	DWORD PTR [esp+24], 0
	mov	eax, ebx
	cmovne	eax, edi
	pop	ebx
	.cfi_restore 3
	.cfi_def_cfa_offset 12
	pop	esi
	.cfi_restore 6
	.cfi_def_cfa_offset 8
	pop	edi
	.cfi_restore 7
	.cfi_def_cfa_offset 4
	ret
	.cfi_endproc
LFE131:
	.globl	___udivmodsi4_libgcc
	.def	___udivmodsi4_libgcc;	.scl	2;	.type	32;	.endef
___udivmodsi4_libgcc:
LFB132:
	.cfi_startproc
	push	edi
	.cfi_def_cfa_offset 8
	.cfi_offset 7, -8
	push	esi
	.cfi_def_cfa_offset 12
	.cfi_offset 6, -12
	push	ebx
	.cfi_def_cfa_offset 16
	.cfi_offset 3, -16
	mov	edi, DWORD PTR [esp+16]
	mov	edx, DWORD PTR [esp+20]
	mov	ecx, 1
	jmp	L705
	.p2align 5
L708:
	add	edx, edx
	add	ecx, ecx
L705:
	cmp	edx, edi
	setb	bl
	mov	esi, ebx
	test	ecx, ecx
	setne	bl
	mov	eax, esi
	test	al, bl
	je	L715
	test	edx, edx
	jns	L708
	mov	ebx, 0
	jmp	L707
L715:
	mov	ebx, 0
	jmp	L707
	.p2align 4
L710:
	shr	ecx
	shr	edx
L707:
	test	ecx, ecx
	je	L716
	cmp	edi, edx
	jb	L710
	sub	edi, edx
	or	ebx, ecx
	jmp	L710
L716:
	cmp	DWORD PTR [esp+24], 0
	mov	eax, ebx
	cmovne	eax, edi
	pop	ebx
	.cfi_restore 3
	.cfi_def_cfa_offset 12
	pop	esi
	.cfi_restore 6
	.cfi_def_cfa_offset 8
	pop	edi
	.cfi_restore 7
	.cfi_def_cfa_offset 4
	ret
	.cfi_endproc
LFE132:
	.globl	___ashldi3
	.def	___ashldi3;	.scl	2;	.type	32;	.endef
___ashldi3:
LFB133:
	.cfi_startproc
	push	esi
	.cfi_def_cfa_offset 8
	.cfi_offset 6, -8
	push	ebx
	.cfi_def_cfa_offset 12
	.cfi_offset 3, -12
	mov	eax, DWORD PTR [esp+12]
	mov	ecx, DWORD PTR [esp+16]
	mov	ebx, DWORD PTR [esp+20]
	mov	edx, eax
	test	bl, 32
	je	L718
	mov	eax, 0
	lea	ecx, [ebx-32]
	sal	edx, cl
L720:
	pop	ebx
	.cfi_remember_state
	.cfi_restore 3
	.cfi_def_cfa_offset 8
	pop	esi
	.cfi_restore 6
	.cfi_def_cfa_offset 4
	ret
L718:
	.cfi_restore_state
	mov	esi, ecx
	test	ebx, ebx
	je	L721
	mov	ecx, ebx
	sal	eax, cl
	sal	esi, cl
	mov	ecx, 32
	sub	ecx, ebx
	shr	edx, cl
	or	edx, esi
	jmp	L720
L721:
	mov	edx, ecx
	jmp	L720
	.cfi_endproc
LFE133:
	.globl	___ashrdi3
	.def	___ashrdi3;	.scl	2;	.type	32;	.endef
___ashrdi3:
LFB134:
	.cfi_startproc
	push	esi
	.cfi_def_cfa_offset 8
	.cfi_offset 6, -8
	push	ebx
	.cfi_def_cfa_offset 12
	.cfi_offset 3, -12
	mov	ecx, DWORD PTR [esp+12]
	mov	edx, DWORD PTR [esp+16]
	mov	ebx, DWORD PTR [esp+20]
	mov	eax, edx
	test	bl, 32
	je	L724
	cdq
	lea	ecx, [ebx-32]
	sar	eax, cl
L726:
	pop	ebx
	.cfi_remember_state
	.cfi_restore 3
	.cfi_def_cfa_offset 8
	pop	esi
	.cfi_restore 6
	.cfi_def_cfa_offset 4
	ret
L724:
	.cfi_restore_state
	mov	esi, ecx
	test	ebx, ebx
	je	L727
	mov	ecx, ebx
	sar	edx, cl
	mov	ecx, 32
	sub	ecx, ebx
	sal	eax, cl
	mov	ecx, ebx
	shr	esi, cl
	or	eax, esi
	jmp	L726
L727:
	mov	eax, ecx
	jmp	L726
	.cfi_endproc
LFE134:
	.globl	___bswapdi2
	.def	___bswapdi2;	.scl	2;	.type	32;	.endef
___bswapdi2:
LFB135:
	.cfi_startproc
	push	edi
	.cfi_def_cfa_offset 8
	.cfi_offset 7, -8
	push	esi
	.cfi_def_cfa_offset 12
	.cfi_offset 6, -12
	push	ebx
	.cfi_def_cfa_offset 16
	.cfi_offset 3, -16
	sub	esp, 48
	.cfi_def_cfa_offset 64
	mov	ecx, DWORD PTR [esp+64]
	mov	ebx, DWORD PTR [esp+68]
	mov	eax, ecx
	mov	edx, ebx
	mov	eax, edx
	xor	edx, edx
	shr	eax, 24
	mov	DWORD PTR [esp], eax
	mov	DWORD PTR [esp+4], edx
	mov	eax, ecx
	mov	edx, ebx
	mov	eax, edx
	xor	edx, edx
	shr	eax, 8
	and	eax, 65280
	mov	edx, 0
	mov	DWORD PTR [esp+8], eax
	mov	DWORD PTR [esp+12], edx
	mov	esi, ecx
	mov	edi, ebx
	shrd	esi, edi, 24
	shr	edi, 24
	and	esi, 16711680
	mov	edi, 0
	mov	DWORD PTR [esp+16], esi
	mov	DWORD PTR [esp+20], edi
	mov	eax, ecx
	mov	edx, ebx
	shrd	eax, edx, 8
	shr	edx, 8
	and	eax, -16777216
	mov	edx, 0
	mov	DWORD PTR [esp+24], eax
	mov	DWORD PTR [esp+28], edx
	mov	esi, ecx
	mov	edi, ebx
	shld	edi, esi, 8
	sal	esi, 8
	mov	esi, 0
	and	edi, 255
	mov	DWORD PTR [esp+32], esi
	mov	DWORD PTR [esp+36], edi
	mov	eax, ecx
	mov	edx, ebx
	shld	edx, eax, 24
	sal	eax, 24
	mov	eax, 0
	and	edx, 65280
	mov	DWORD PTR [esp+40], eax
	mov	DWORD PTR [esp+44], edx
	mov	esi, ecx
	mov	edi, ebx
	mov	edi, esi
	xor	esi, esi
	sal	edi, 8
	mov	esi, 0
	and	edi, 16711680
	mov	ebx, ecx
	xor	ecx, ecx
	sal	ebx, 24
	mov	eax, ecx
	mov	edx, ebx
	or	eax, DWORD PTR [esp]
	or	edx, DWORD PTR [esp+4]
	or	eax, DWORD PTR [esp+8]
	or	edx, DWORD PTR [esp+12]
	or	eax, DWORD PTR [esp+16]
	or	edx, DWORD PTR [esp+20]
	or	eax, DWORD PTR [esp+24]
	or	edx, DWORD PTR [esp+28]
	or	eax, DWORD PTR [esp+32]
	or	edx, DWORD PTR [esp+36]
	or	eax, DWORD PTR [esp+40]
	or	edx, DWORD PTR [esp+44]
	or	eax, esi
	or	edx, edi
	add	esp, 48
	.cfi_def_cfa_offset 16
	pop	ebx
	.cfi_restore 3
	.cfi_def_cfa_offset 12
	pop	esi
	.cfi_restore 6
	.cfi_def_cfa_offset 8
	pop	edi
	.cfi_restore 7
	.cfi_def_cfa_offset 4
	ret
	.cfi_endproc
LFE135:
	.globl	___bswapsi2
	.def	___bswapsi2;	.scl	2;	.type	32;	.endef
___bswapsi2:
LFB136:
	.cfi_startproc
	push	esi
	.cfi_def_cfa_offset 8
	.cfi_offset 6, -8
	push	ebx
	.cfi_def_cfa_offset 12
	.cfi_offset 3, -12
	mov	edx, DWORD PTR [esp+12]
	mov	esi, edx
	shr	esi, 24
	mov	ebx, edx
	shr	ebx, 8
	and	ebx, 65280
	mov	ecx, edx
	sal	ecx, 8
	and	ecx, 16711680
	mov	eax, edx
	sal	eax, 24
	or	eax, esi
	or	eax, ebx
	or	eax, ecx
	pop	ebx
	.cfi_restore 3
	.cfi_def_cfa_offset 8
	pop	esi
	.cfi_restore 6
	.cfi_def_cfa_offset 4
	ret
	.cfi_endproc
LFE136:
	.globl	___clzsi2
	.def	___clzsi2;	.scl	2;	.type	32;	.endef
___clzsi2:
LFB137:
	.cfi_startproc
	push	esi
	.cfi_def_cfa_offset 8
	.cfi_offset 6, -8
	push	ebx
	.cfi_def_cfa_offset 12
	.cfi_offset 3, -12
	mov	edx, DWORD PTR [esp+12]
	cmp	edx, 65536
	setb	al
	movzx	eax, al
	sal	eax, 4
	mov	ecx, 16
	sub	ecx, eax
	shr	edx, cl
	test	dh, -1
	sete	bl
	movzx	ebx, bl
	sal	ebx, 3
	mov	ecx, 8
	sub	ecx, ebx
	shr	edx, cl
	add	eax, ebx
	test	dl, -16
	sete	bl
	movzx	ebx, bl
	sal	ebx, 2
	mov	ecx, 4
	sub	ecx, ebx
	shr	edx, cl
	add	eax, ebx
	test	dl, 12
	sete	bl
	movzx	ebx, bl
	mov	esi, ebx
	add	esi, esi
	mov	ebx, 2
	mov	ecx, ebx
	sub	ecx, esi
	shr	edx, cl
	add	eax, esi
	test	dl, 2
	sete	cl
	movzx	ecx, cl
	sub	ebx, edx
	mov	edx, ecx
	imul	edx, ebx
	add	eax, edx
	pop	ebx
	.cfi_restore 3
	.cfi_def_cfa_offset 8
	pop	esi
	.cfi_restore 6
	.cfi_def_cfa_offset 4
	ret
	.cfi_endproc
LFE137:
	.globl	___cmpdi2
	.def	___cmpdi2;	.scl	2;	.type	32;	.endef
___cmpdi2:
LFB138:
	.cfi_startproc
	push	esi
	.cfi_def_cfa_offset 8
	.cfi_offset 6, -8
	push	ebx
	.cfi_def_cfa_offset 12
	.cfi_offset 3, -12
	mov	ebx, DWORD PTR [esp+12]
	mov	ecx, DWORD PTR [esp+16]
	mov	esi, DWORD PTR [esp+20]
	mov	edx, DWORD PTR [esp+24]
	mov	eax, 0
	cmp	ecx, edx
	jl	L744
	mov	eax, 2
	jg	L744
	mov	eax, 0
	cmp	ebx, esi
	jb	L744
	cmp	esi, ebx
	setb	al
	movzx	eax, al
	add	eax, 1
L744:
	pop	ebx
	.cfi_restore 3
	.cfi_def_cfa_offset 8
	pop	esi
	.cfi_restore 6
	.cfi_def_cfa_offset 4
	ret
	.cfi_endproc
LFE138:
	.globl	___aeabi_lcmp
	.def	___aeabi_lcmp;	.scl	2;	.type	32;	.endef
___aeabi_lcmp:
LFB139:
	.cfi_startproc
	sub	esp, 20
	.cfi_def_cfa_offset 24
	mov	eax, DWORD PTR [esp+32]
	mov	edx, DWORD PTR [esp+36]
	mov	DWORD PTR [esp+8], eax
	mov	DWORD PTR [esp+12], edx
	mov	eax, DWORD PTR [esp+24]
	mov	edx, DWORD PTR [esp+28]
	mov	DWORD PTR [esp], eax
	mov	DWORD PTR [esp+4], edx
	call	___cmpdi2
	sub	eax, 1
	add	esp, 20
	.cfi_def_cfa_offset 4
	ret
	.cfi_endproc
LFE139:
	.globl	___ctzsi2
	.def	___ctzsi2;	.scl	2;	.type	32;	.endef
___ctzsi2:
LFB140:
	.cfi_startproc
	push	ebx
	.cfi_def_cfa_offset 8
	.cfi_offset 3, -8
	mov	edx, DWORD PTR [esp+8]
	test	dx, dx
	sete	al
	movzx	eax, al
	sal	eax, 4
	mov	ecx, eax
	shr	edx, cl
	test	dl, dl
	sete	cl
	movzx	ecx, cl
	sal	ecx, 3
	shr	edx, cl
	add	eax, ecx
	test	dl, 15
	sete	cl
	movzx	ecx, cl
	sal	ecx, 2
	shr	edx, cl
	add	eax, ecx
	test	dl, 3
	sete	cl
	movzx	ecx, cl
	add	ecx, ecx
	shr	edx, cl
	and	edx, 3
	add	eax, ecx
	mov	ebx, edx
	not	ebx
	shr	edx
	mov	ecx, 2
	sub	ecx, edx
	and	ebx, 1
	mov	edx, ebx
	neg	edx
	and	edx, ecx
	add	eax, edx
	pop	ebx
	.cfi_restore 3
	.cfi_def_cfa_offset 4
	ret
	.cfi_endproc
LFE140:
	.globl	___lshrdi3
	.def	___lshrdi3;	.scl	2;	.type	32;	.endef
___lshrdi3:
LFB141:
	.cfi_startproc
	push	esi
	.cfi_def_cfa_offset 8
	.cfi_offset 6, -8
	push	ebx
	.cfi_def_cfa_offset 12
	.cfi_offset 3, -12
	mov	ecx, DWORD PTR [esp+12]
	mov	edx, DWORD PTR [esp+16]
	mov	ebx, DWORD PTR [esp+20]
	mov	eax, edx
	test	bl, 32
	je	L763
	mov	edx, 0
	lea	ecx, [ebx-32]
	shr	eax, cl
L765:
	pop	ebx
	.cfi_remember_state
	.cfi_restore 3
	.cfi_def_cfa_offset 8
	pop	esi
	.cfi_restore 6
	.cfi_def_cfa_offset 4
	ret
L763:
	.cfi_restore_state
	mov	esi, ecx
	test	ebx, ebx
	je	L766
	mov	ecx, ebx
	shr	edx, cl
	mov	ecx, 32
	sub	ecx, ebx
	sal	eax, cl
	mov	ecx, ebx
	shr	esi, cl
	or	eax, esi
	jmp	L765
L766:
	mov	eax, ecx
	jmp	L765
	.cfi_endproc
LFE141:
	.globl	___muldsi3
	.def	___muldsi3;	.scl	2;	.type	32;	.endef
___muldsi3:
LFB142:
	.cfi_startproc
	push	edi
	.cfi_def_cfa_offset 8
	.cfi_offset 7, -8
	push	esi
	.cfi_def_cfa_offset 12
	.cfi_offset 6, -12
	push	ebx
	.cfi_def_cfa_offset 16
	.cfi_offset 3, -16
	mov	edx, DWORD PTR [esp+16]
	mov	ebx, DWORD PTR [esp+20]
	movzx	ecx, dx
	movzx	edi, bx
	mov	esi, ecx
	imul	esi, edi
	mov	eax, esi
	shr	eax, 16
	shr	edx, 16
	imul	edi, edx
	add	eax, edi
	mov	edi, eax
	shr	edi, 16
	movzx	eax, ax
	movzx	esi, si
	shr	ebx, 16
	imul	ecx, ebx
	add	eax, ecx
	mov	ecx, eax
	sal	ecx, 16
	add	ecx, esi
	shr	eax, 16
	add	eax, edi
	imul	edx, ebx
	add	edx, eax
	mov	eax, ecx
	pop	ebx
	.cfi_restore 3
	.cfi_def_cfa_offset 12
	pop	esi
	.cfi_restore 6
	.cfi_def_cfa_offset 8
	pop	edi
	.cfi_restore 7
	.cfi_def_cfa_offset 4
	ret
	.cfi_endproc
LFE142:
	.globl	___muldi3_compiler_rt
	.def	___muldi3_compiler_rt;	.scl	2;	.type	32;	.endef
___muldi3_compiler_rt:
LFB143:
	.cfi_startproc
	push	ebp
	.cfi_def_cfa_offset 8
	.cfi_offset 5, -8
	push	edi
	.cfi_def_cfa_offset 12
	.cfi_offset 7, -12
	push	esi
	.cfi_def_cfa_offset 16
	.cfi_offset 6, -16
	push	ebx
	.cfi_def_cfa_offset 20
	.cfi_offset 3, -20
	sub	esp, 12
	.cfi_def_cfa_offset 32
	mov	eax, DWORD PTR [esp+32]
	mov	edx, DWORD PTR [esp+40]
	mov	edi, eax
	mov	ebx, DWORD PTR [esp+36]
	mov	ebp, edx
	mov	esi, DWORD PTR [esp+44]
	mov	DWORD PTR [esp+4], edx
	mov	DWORD PTR [esp], eax
	call	___muldsi3
	mov	ecx, edx
	imul	ebx, ebp
	imul	esi, edi
	lea	edx, [ebx+esi]
	add	edx, ecx
	add	esp, 12
	.cfi_def_cfa_offset 20
	pop	ebx
	.cfi_restore 3
	.cfi_def_cfa_offset 16
	pop	esi
	.cfi_restore 6
	.cfi_def_cfa_offset 12
	pop	edi
	.cfi_restore 7
	.cfi_def_cfa_offset 8
	pop	ebp
	.cfi_restore 5
	.cfi_def_cfa_offset 4
	ret
	.cfi_endproc
LFE143:
	.globl	___negdi2
	.def	___negdi2;	.scl	2;	.type	32;	.endef
___negdi2:
LFB144:
	.cfi_startproc
	mov	eax, DWORD PTR [esp+4]
	mov	edx, DWORD PTR [esp+8]
	neg	eax
	adc	edx, 0
	neg	edx
	ret
	.cfi_endproc
LFE144:
	.globl	___paritydi2
	.def	___paritydi2;	.scl	2;	.type	32;	.endef
___paritydi2:
LFB145:
	.cfi_startproc
	mov	eax, DWORD PTR [esp+4]
	mov	ecx, DWORD PTR [esp+8]
	xor	ecx, eax
	mov	eax, ecx
	shr	eax, 16
	xor	ecx, eax
	mov	eax, ecx
	shr	eax, 8
	xor	ecx, eax
	mov	eax, ecx
	shr	eax, 4
	xor	ecx, eax
	and	ecx, 15
	mov	eax, 27030
	sar	eax, cl
	and	eax, 1
	ret
	.cfi_endproc
LFE145:
	.globl	___paritysi2
	.def	___paritysi2;	.scl	2;	.type	32;	.endef
___paritysi2:
LFB146:
	.cfi_startproc
	mov	ecx, DWORD PTR [esp+4]
	mov	eax, ecx
	shr	eax, 16
	xor	ecx, eax
	mov	eax, ecx
	shr	eax, 8
	xor	ecx, eax
	mov	eax, ecx
	shr	eax, 4
	xor	ecx, eax
	and	ecx, 15
	mov	eax, 27030
	sar	eax, cl
	and	eax, 1
	ret
	.cfi_endproc
LFE146:
	.globl	___popcountdi2
	.def	___popcountdi2;	.scl	2;	.type	32;	.endef
___popcountdi2:
LFB147:
	.cfi_startproc
	push	edi
	.cfi_def_cfa_offset 8
	.cfi_offset 7, -8
	push	esi
	.cfi_def_cfa_offset 12
	.cfi_offset 6, -12
	push	ebx
	.cfi_def_cfa_offset 16
	.cfi_offset 3, -16
	mov	eax, DWORD PTR [esp+16]
	mov	edx, DWORD PTR [esp+20]
	mov	ecx, eax
	mov	ebx, edx
	shrd	ecx, ebx, 1
	shr	ebx
	and	ecx, 1431655765
	and	ebx, 1431655765
	sub	eax, ecx
	sbb	edx, ebx
	mov	esi, eax
	mov	edi, edx
	shrd	eax, edx, 2
	shr	edx, 2
	mov	ecx, eax
	mov	ebx, edx
	and	ecx, 858993459
	and	ebx, 858993459
	mov	eax, esi
	mov	edx, edi
	and	eax, 858993459
	and	edx, 858993459
	add	eax, ecx
	adc	edx, ebx
	mov	esi, eax
	mov	edi, edx
	shrd	eax, edx, 4
	shr	edx, 4
	mov	ecx, eax
	mov	ebx, edx
	mov	eax, esi
	mov	edx, edi
	add	eax, ecx
	adc	edx, ebx
	and	eax, 252645135
	and	edx, 252645135
	add	edx, eax
	mov	eax, edx
	shr	eax, 16
	add	edx, eax
	mov	eax, edx
	shr	eax, 8
	add	eax, edx
	and	eax, 127
	pop	ebx
	.cfi_restore 3
	.cfi_def_cfa_offset 12
	pop	esi
	.cfi_restore 6
	.cfi_def_cfa_offset 8
	pop	edi
	.cfi_restore 7
	.cfi_def_cfa_offset 4
	ret
	.cfi_endproc
LFE147:
	.globl	___popcountsi2
	.def	___popcountsi2;	.scl	2;	.type	32;	.endef
___popcountsi2:
LFB148:
	.cfi_startproc
	mov	edx, DWORD PTR [esp+4]
	mov	eax, edx
	shr	eax
	and	eax, 1431655765
	sub	edx, eax
	mov	eax, edx
	shr	eax, 2
	and	eax, 858993459
	and	edx, 858993459
	add	edx, eax
	mov	eax, edx
	shr	eax, 4
	add	edx, eax
	and	edx, 252645135
	mov	eax, edx
	shr	eax, 16
	add	edx, eax
	mov	eax, edx
	shr	eax, 8
	add	eax, edx
	and	eax, 63
	ret
	.cfi_endproc
LFE148:
	.globl	___powidf2
	.def	___powidf2;	.scl	2;	.type	32;	.endef
___powidf2:
LFB149:
	.cfi_startproc
	fld	QWORD PTR [esp+4]
	mov	edx, DWORD PTR [esp+12]
	mov	ecx, edx
	shr	ecx, 31
	fld1
	jmp	L781
	.p2align 5
L779:
	mov	eax, edx
	shr	eax, 31
	add	eax, edx
	sar	eax
	mov	edx, eax
	je	L780
	fxch	st(1)
	fmul	st, st(0)
	fxch	st(1)
L781:
	test	dl, 1
	je	L779
	fmul	st, st(1)
	jmp	L779
L780:
	fstp	st(1)
	fld	st(0)
	test	ecx, ecx
	je	L784
	fstp	st(0)
	fdivr	DWORD PTR LC10
	jmp	L782
L784:
	fstp	st(1)
L782:
	ret
	.cfi_endproc
LFE149:
	.globl	___powisf2
	.def	___powisf2;	.scl	2;	.type	32;	.endef
___powisf2:
LFB150:
	.cfi_startproc
	fld	DWORD PTR [esp+4]
	mov	edx, DWORD PTR [esp+8]
	mov	ecx, edx
	shr	ecx, 31
	fld1
	jmp	L788
	.p2align 5
L786:
	mov	eax, edx
	shr	eax, 31
	add	eax, edx
	sar	eax
	mov	edx, eax
	je	L787
	fxch	st(1)
	fmul	st, st(0)
	fxch	st(1)
L788:
	test	dl, 1
	je	L786
	fmul	st, st(1)
	jmp	L786
L787:
	fstp	st(1)
	fld	st(0)
	test	ecx, ecx
	je	L791
	fstp	st(0)
	fdivr	DWORD PTR LC10
	jmp	L789
L791:
	fstp	st(1)
L789:
	ret
	.cfi_endproc
LFE150:
	.globl	___ucmpdi2
	.def	___ucmpdi2;	.scl	2;	.type	32;	.endef
___ucmpdi2:
LFB151:
	.cfi_startproc
	push	esi
	.cfi_def_cfa_offset 8
	.cfi_offset 6, -8
	push	ebx
	.cfi_def_cfa_offset 12
	.cfi_offset 3, -12
	mov	ebx, DWORD PTR [esp+12]
	mov	edx, DWORD PTR [esp+16]
	mov	esi, DWORD PTR [esp+20]
	mov	ecx, DWORD PTR [esp+24]
	mov	eax, 0
	cmp	edx, ecx
	jb	L793
	mov	eax, 2
	cmp	ecx, edx
	jb	L793
	mov	eax, 0
	cmp	ebx, esi
	jb	L793
	cmp	esi, ebx
	setb	al
	movzx	eax, al
	add	eax, 1
L793:
	pop	ebx
	.cfi_restore 3
	.cfi_def_cfa_offset 8
	pop	esi
	.cfi_restore 6
	.cfi_def_cfa_offset 4
	ret
	.cfi_endproc
LFE151:
	.globl	___aeabi_ulcmp
	.def	___aeabi_ulcmp;	.scl	2;	.type	32;	.endef
___aeabi_ulcmp:
LFB152:
	.cfi_startproc
	sub	esp, 20
	.cfi_def_cfa_offset 24
	mov	eax, DWORD PTR [esp+32]
	mov	edx, DWORD PTR [esp+36]
	mov	DWORD PTR [esp+8], eax
	mov	DWORD PTR [esp+12], edx
	mov	eax, DWORD PTR [esp+24]
	mov	edx, DWORD PTR [esp+28]
	mov	DWORD PTR [esp], eax
	mov	DWORD PTR [esp+4], edx
	call	___ucmpdi2
	sub	eax, 1
	add	esp, 20
	.cfi_def_cfa_offset 4
	ret
	.cfi_endproc
LFE152:
.lcomm _s.0,7,4
	.section .rdata,"dr"
	.align 4
LC2:
	.long	-8388609
	.align 4
LC3:
	.long	2139095039
	.align 8
LC4:
	.long	-1
	.long	-1048577
	.align 8
LC5:
	.long	-1
	.long	2146435071
	.align 16
LC6:
	.long	-1
	.long	-1
	.long	65534
	.align 16
LC7:
	.long	-1
	.long	-1
	.long	32766
	.align 4
LC8:
	.long	1056964608
	.align 4
LC9:
	.long	1073741824
	.align 4
LC10:
	.long	1065353216
	.align 4
LC11:
	.long	1602224128
	.align 4
LC12:
	.long	1191182336
	.def	___moddi3;	.scl	2;	.type	32;	.endef
	.def	___divdi3;	.scl	2;	.type	32;	.endef
	.ident	"GCC: (GNU) 14.2.1 20240801 (Fedora MinGW 14.2.1-3.fc41)"
	.def	_memcpy;	.scl	2;	.type	32;	.endef
